
C:/Pico/FreeRTOS-Project/build/ProjectFiles/FreeRTOS-Project.elf:     file format elf32-littlearm

Sections:
Idx Name          Size      VMA       LMA       File off  Algn
  0 .boot2        00000100  10000000  10000000  00001000  2**0
                  CONTENTS, ALLOC, LOAD, READONLY, CODE
  1 .text         000072c0  10000100  10000100  00001100  2**4
                  CONTENTS, ALLOC, LOAD, READONLY, CODE
  2 .rodata       00000f50  100073c0  100073c0  000083c0  2**3
                  CONTENTS, ALLOC, LOAD, READONLY, DATA
  3 .binary_info  00000024  10008310  10008310  00009310  2**2
                  CONTENTS, ALLOC, LOAD, DATA
  4 .ram_vector_table 000000c0  20000000  20000000  0000ab4c  2**2
                  CONTENTS
  5 .data         00000a8c  200000c0  10008334  0000a0c0  2**4
                  CONTENTS, ALLOC, LOAD, READONLY, CODE
  6 .uninitialized_data 00000000  20000b4c  20000b4c  0000ac0c  2**0
                  CONTENTS
  7 .scratch_x    00000000  20040000  20040000  0000ac0c  2**0
                  CONTENTS
  8 .scratch_y    00000000  20041000  20041000  0000ac0c  2**0
                  CONTENTS
  9 .bss          000005a8  20000b50  20000b50  0000ab50  2**3
                  ALLOC
 10 .heap         00000800  200010f8  200010f8  0000ac0c  2**2
                  CONTENTS, READONLY
 11 .stack_dummy  00000800  20041000  20041000  0000b420  2**5
                  CONTENTS, READONLY
 12 .ARM.attributes 00000028  00000000  00000000  0000bc20  2**0
                  CONTENTS, READONLY
 13 .comment      00000049  00000000  00000000  0000bc48  2**0
                  CONTENTS, READONLY
 14 .debug_info   0001b720  00000000  00000000  0000bc91  2**0
                  CONTENTS, READONLY, DEBUGGING, OCTETS
 15 .debug_abbrev 00004fe5  00000000  00000000  000273b1  2**0
                  CONTENTS, READONLY, DEBUGGING, OCTETS
 16 .debug_loc    00013888  00000000  00000000  0002c396  2**0
                  CONTENTS, READONLY, DEBUGGING, OCTETS
 17 .debug_aranges 00000f78  00000000  00000000  0003fc20  2**3
                  CONTENTS, READONLY, DEBUGGING, OCTETS
 18 .debug_ranges 00003660  00000000  00000000  00040b98  2**3
                  CONTENTS, READONLY, DEBUGGING, OCTETS
 19 .debug_line   00011d94  00000000  00000000  000441f8  2**0
                  CONTENTS, READONLY, DEBUGGING, OCTETS
 20 .debug_str    00005032  00000000  00000000  00055f8c  2**0
                  CONTENTS, READONLY, DEBUGGING, OCTETS
 21 .debug_frame  00002748  00000000  00000000  0005afc0  2**2
                  CONTENTS, READONLY, DEBUGGING, OCTETS

C:/Pico/FreeRTOS-Project/build/ProjectFiles/FreeRTOS-Project.elf:     file format elf32-littlearm


Disassembly of section .boot2:

10000000 <__boot2_start__>:
10000000:	4b32b500 	.word	0x4b32b500
10000004:	60582021 	.word	0x60582021
10000008:	21026898 	.word	0x21026898
1000000c:	60984388 	.word	0x60984388
10000010:	611860d8 	.word	0x611860d8
10000014:	4b2e6158 	.word	0x4b2e6158
10000018:	60992100 	.word	0x60992100
1000001c:	61592102 	.word	0x61592102
10000020:	22f02101 	.word	0x22f02101
10000024:	492b5099 	.word	0x492b5099
10000028:	21016019 	.word	0x21016019
1000002c:	20356099 	.word	0x20356099
10000030:	f844f000 	.word	0xf844f000
10000034:	42902202 	.word	0x42902202
10000038:	2106d014 	.word	0x2106d014
1000003c:	f0006619 	.word	0xf0006619
10000040:	6e19f834 	.word	0x6e19f834
10000044:	66192101 	.word	0x66192101
10000048:	66182000 	.word	0x66182000
1000004c:	f000661a 	.word	0xf000661a
10000050:	6e19f82c 	.word	0x6e19f82c
10000054:	6e196e19 	.word	0x6e196e19
10000058:	f0002005 	.word	0xf0002005
1000005c:	2101f82f 	.word	0x2101f82f
10000060:	d1f94208 	.word	0xd1f94208
10000064:	60992100 	.word	0x60992100
10000068:	6019491b 	.word	0x6019491b
1000006c:	60592100 	.word	0x60592100
10000070:	481b491a 	.word	0x481b491a
10000074:	21016001 	.word	0x21016001
10000078:	21eb6099 	.word	0x21eb6099
1000007c:	21a06619 	.word	0x21a06619
10000080:	f0006619 	.word	0xf0006619
10000084:	2100f812 	.word	0x2100f812
10000088:	49166099 	.word	0x49166099
1000008c:	60014814 	.word	0x60014814
10000090:	60992101 	.word	0x60992101
10000094:	2800bc01 	.word	0x2800bc01
10000098:	4700d000 	.word	0x4700d000
1000009c:	49134812 	.word	0x49134812
100000a0:	c8036008 	.word	0xc8036008
100000a4:	8808f380 	.word	0x8808f380
100000a8:	b5034708 	.word	0xb5034708
100000ac:	20046a99 	.word	0x20046a99
100000b0:	d0fb4201 	.word	0xd0fb4201
100000b4:	42012001 	.word	0x42012001
100000b8:	bd03d1f8 	.word	0xbd03d1f8
100000bc:	6618b502 	.word	0x6618b502
100000c0:	f7ff6618 	.word	0xf7ff6618
100000c4:	6e18fff2 	.word	0x6e18fff2
100000c8:	bd026e18 	.word	0xbd026e18
100000cc:	40020000 	.word	0x40020000
100000d0:	18000000 	.word	0x18000000
100000d4:	00070000 	.word	0x00070000
100000d8:	005f0300 	.word	0x005f0300
100000dc:	00002221 	.word	0x00002221
100000e0:	180000f4 	.word	0x180000f4
100000e4:	a0002022 	.word	0xa0002022
100000e8:	10000100 	.word	0x10000100
100000ec:	e000ed08 	.word	0xe000ed08
	...
100000fc:	7a4eb274 	.word	0x7a4eb274

Disassembly of section .text:

10000100 <__VECTOR_TABLE>:
10000100:	20042000 	.word	0x20042000
10000104:	100001f7 	.word	0x100001f7
10000108:	100001c3 	.word	0x100001c3
1000010c:	100001c5 	.word	0x100001c5
10000110:	100001c1 	.word	0x100001c1
10000114:	100001c1 	.word	0x100001c1
10000118:	100001c1 	.word	0x100001c1
1000011c:	100001c1 	.word	0x100001c1
10000120:	100001c1 	.word	0x100001c1
10000124:	100001c1 	.word	0x100001c1
10000128:	100001c1 	.word	0x100001c1
1000012c:	10006005 	.word	0x10006005
10000130:	100001c1 	.word	0x100001c1
10000134:	100001c1 	.word	0x100001c1
10000138:	1000605b 	.word	0x1000605b
1000013c:	100060a5 	.word	0x100060a5
10000140:	100001cd 	.word	0x100001cd
10000144:	100001cd 	.word	0x100001cd
10000148:	100001cd 	.word	0x100001cd
1000014c:	100001cd 	.word	0x100001cd
10000150:	100001cd 	.word	0x100001cd
10000154:	100001cd 	.word	0x100001cd
10000158:	100001cd 	.word	0x100001cd
1000015c:	100001cd 	.word	0x100001cd
10000160:	100001cd 	.word	0x100001cd
10000164:	100001cd 	.word	0x100001cd
10000168:	100001cd 	.word	0x100001cd
1000016c:	100001cd 	.word	0x100001cd
10000170:	100001cd 	.word	0x100001cd
10000174:	100001cd 	.word	0x100001cd
10000178:	100001cd 	.word	0x100001cd
1000017c:	100001cd 	.word	0x100001cd
10000180:	100001cd 	.word	0x100001cd
10000184:	100001cd 	.word	0x100001cd
10000188:	100001cd 	.word	0x100001cd
1000018c:	100001cd 	.word	0x100001cd
10000190:	100001cd 	.word	0x100001cd
10000194:	100001cd 	.word	0x100001cd
10000198:	100001cd 	.word	0x100001cd
1000019c:	100001cd 	.word	0x100001cd
100001a0:	100001cd 	.word	0x100001cd
100001a4:	100001cd 	.word	0x100001cd
100001a8:	100001cd 	.word	0x100001cd
100001ac:	100001cd 	.word	0x100001cd
100001b0:	100001cd 	.word	0x100001cd
100001b4:	100001cd 	.word	0x100001cd
100001b8:	100001cd 	.word	0x100001cd
100001bc:	100001cd 	.word	0x100001cd

100001c0 <isr_invalid>:
100001c0:	be00      	bkpt	0x0000

100001c2 <isr_nmi>:
100001c2:	be00      	bkpt	0x0000

100001c4 <isr_hardfault>:
100001c4:	be00      	bkpt	0x0000
100001c6:	be00      	bkpt	0x0000
100001c8:	be00      	bkpt	0x0000
100001ca:	be00      	bkpt	0x0000

100001cc <__unhandled_user_irq>:
100001cc:	f3ef 8005 	mrs	r0, IPSR
100001d0:	3810      	subs	r0, #16

100001d2 <unhandled_user_irq_num_in_r0>:
100001d2:	be00      	bkpt	0x0000

100001d4 <binary_info_header>:
100001d4:	7188ebf2 	.word	0x7188ebf2
100001d8:	10008310 	.word	0x10008310
100001dc:	10008334 	.word	0x10008334
100001e0:	10000234 	.word	0x10000234
100001e4:	e71aa390 	.word	0xe71aa390

100001e8 <_entry_point>:
100001e8:	2000      	movs	r0, #0
100001ea:	491f      	ldr	r1, [pc, #124]	; (10000268 <hold_non_core0_in_bootrom+0xa>)
100001ec:	6008      	str	r0, [r1, #0]
100001ee:	c806      	ldmia	r0!, {r1, r2}
100001f0:	f381 8808 	msr	MSP, r1
100001f4:	4710      	bx	r2

100001f6 <_reset_handler>:
100001f6:	481d      	ldr	r0, [pc, #116]	; (1000026c <hold_non_core0_in_bootrom+0xe>)
100001f8:	6800      	ldr	r0, [r0, #0]
100001fa:	2800      	cmp	r0, #0
100001fc:	d12f      	bne.n	1000025e <hold_non_core0_in_bootrom>
100001fe:	a40d      	add	r4, pc, #52	; (adr r4, 10000234 <data_cpy_table>)
10000200:	cc0e      	ldmia	r4!, {r1, r2, r3}
10000202:	2900      	cmp	r1, #0
10000204:	d002      	beq.n	1000020c <_reset_handler+0x16>
10000206:	f000 f812 	bl	1000022e <data_cpy>
1000020a:	e7f9      	b.n	10000200 <_reset_handler+0xa>
1000020c:	4918      	ldr	r1, [pc, #96]	; (10000270 <hold_non_core0_in_bootrom+0x12>)
1000020e:	4a19      	ldr	r2, [pc, #100]	; (10000274 <hold_non_core0_in_bootrom+0x16>)
10000210:	2000      	movs	r0, #0
10000212:	e000      	b.n	10000216 <bss_fill_test>

10000214 <bss_fill_loop>:
10000214:	c101      	stmia	r1!, {r0}

10000216 <bss_fill_test>:
10000216:	4291      	cmp	r1, r2
10000218:	d1fc      	bne.n	10000214 <bss_fill_loop>

1000021a <platform_entry>:
1000021a:	4917      	ldr	r1, [pc, #92]	; (10000278 <hold_non_core0_in_bootrom+0x1a>)
1000021c:	4788      	blx	r1
1000021e:	4917      	ldr	r1, [pc, #92]	; (1000027c <hold_non_core0_in_bootrom+0x1e>)
10000220:	4788      	blx	r1
10000222:	4917      	ldr	r1, [pc, #92]	; (10000280 <hold_non_core0_in_bootrom+0x22>)
10000224:	4788      	blx	r1
10000226:	be00      	bkpt	0x0000
10000228:	e7fd      	b.n	10000226 <platform_entry+0xc>

1000022a <data_cpy_loop>:
1000022a:	c901      	ldmia	r1!, {r0}
1000022c:	c201      	stmia	r2!, {r0}

1000022e <data_cpy>:
1000022e:	429a      	cmp	r2, r3
10000230:	d3fb      	bcc.n	1000022a <data_cpy_loop>
10000232:	4770      	bx	lr

10000234 <data_cpy_table>:
10000234:	10008334 	.word	0x10008334
10000238:	200000c0 	.word	0x200000c0
1000023c:	20000b4c 	.word	0x20000b4c
10000240:	10008dc0 	.word	0x10008dc0
10000244:	20040000 	.word	0x20040000
10000248:	20040000 	.word	0x20040000
1000024c:	10008dc0 	.word	0x10008dc0
10000250:	20041000 	.word	0x20041000
10000254:	20041000 	.word	0x20041000
10000258:	00000000 	.word	0x00000000
1000025c:	4770      	bx	lr

1000025e <hold_non_core0_in_bootrom>:
1000025e:	4809      	ldr	r0, [pc, #36]	; (10000284 <hold_non_core0_in_bootrom+0x26>)
10000260:	f003 f864 	bl	1000332c <rom_func_lookup>
10000264:	4700      	bx	r0
10000266:	0000      	.short	0x0000
10000268:	e000ed08 	.word	0xe000ed08
1000026c:	d0000000 	.word	0xd0000000
10000270:	20000b50 	.word	0x20000b50
10000274:	200010f8 	.word	0x200010f8
10000278:	100020b5 	.word	0x100020b5
1000027c:	100003e9 	.word	0x100003e9
10000280:	10002071 	.word	0x10002071
10000284:	00005657 	.word	0x00005657

10000288 <__bi_50>:
10000288:	50520006 5360b3ab 10008220              ..RP..`S ...

10000294 <__bi_38>:
10000294:	50520006 02031c86 10008230              ..RP....0...

100002a0 <__bi_30>:
100002a0:	50520006 9da22254 10008244              ..RPT"..D...

100002ac <__bi_22>:
100002ac:	50520005 68f465de 10008dc0              ..RP.e.h....

100002b8 <_init>:
100002b8:	b5f8      	push	{r3, r4, r5, r6, r7, lr}
100002ba:	46c0      	nop			; (mov r8, r8)

100002bc <__do_global_dtors_aux>:
100002bc:	b510      	push	{r4, lr}
100002be:	4c06      	ldr	r4, [pc, #24]	; (100002d8 <__do_global_dtors_aux+0x1c>)
100002c0:	7823      	ldrb	r3, [r4, #0]
100002c2:	2b00      	cmp	r3, #0
100002c4:	d107      	bne.n	100002d6 <__do_global_dtors_aux+0x1a>
100002c6:	4b05      	ldr	r3, [pc, #20]	; (100002dc <__do_global_dtors_aux+0x20>)
100002c8:	2b00      	cmp	r3, #0
100002ca:	d002      	beq.n	100002d2 <__do_global_dtors_aux+0x16>
100002cc:	4804      	ldr	r0, [pc, #16]	; (100002e0 <__do_global_dtors_aux+0x24>)
100002ce:	e000      	b.n	100002d2 <__do_global_dtors_aux+0x16>
100002d0:	bf00      	nop
100002d2:	2301      	movs	r3, #1
100002d4:	7023      	strb	r3, [r4, #0]
100002d6:	bd10      	pop	{r4, pc}
100002d8:	20000c50 	.word	0x20000c50
100002dc:	00000000 	.word	0x00000000
100002e0:	100073c0 	.word	0x100073c0

100002e4 <frame_dummy>:
100002e4:	4b04      	ldr	r3, [pc, #16]	; (100002f8 <frame_dummy+0x14>)
100002e6:	b510      	push	{r4, lr}
100002e8:	2b00      	cmp	r3, #0
100002ea:	d003      	beq.n	100002f4 <frame_dummy+0x10>
100002ec:	4903      	ldr	r1, [pc, #12]	; (100002fc <frame_dummy+0x18>)
100002ee:	4804      	ldr	r0, [pc, #16]	; (10000300 <frame_dummy+0x1c>)
100002f0:	e000      	b.n	100002f4 <frame_dummy+0x10>
100002f2:	bf00      	nop
100002f4:	bd10      	pop	{r4, pc}
100002f6:	46c0      	nop			; (mov r8, r8)
100002f8:	00000000 	.word	0x00000000
100002fc:	20000c54 	.word	0x20000c54
10000300:	100073c0 	.word	0x100073c0

10000304 <led_task>:
10000304:	b570      	push	{r4, r5, r6, lr}
10000306:	2019      	movs	r0, #25
10000308:	f000 f8aa 	bl	10000460 <gpio_init>
1000030c:	23d0      	movs	r3, #208	; 0xd0
1000030e:	061b      	lsls	r3, r3, #24
10000310:	2280      	movs	r2, #128	; 0x80
10000312:	0492      	lsls	r2, r2, #18
10000314:	625a      	str	r2, [r3, #36]	; 0x24
10000316:	24d0      	movs	r4, #208	; 0xd0
10000318:	0624      	lsls	r4, r4, #24
1000031a:	2580      	movs	r5, #128	; 0x80
1000031c:	04ad      	lsls	r5, r5, #18
1000031e:	6165      	str	r5, [r4, #20]
10000320:	4806      	ldr	r0, [pc, #24]	; (1000033c <led_task+0x38>)
10000322:	f004 f96b 	bl	100045fc <__wrap_printf>
10000326:	2064      	movs	r0, #100	; 0x64
10000328:	f004 ff3e 	bl	100051a8 <vTaskDelay>
1000032c:	61a5      	str	r5, [r4, #24]
1000032e:	4804      	ldr	r0, [pc, #16]	; (10000340 <led_task+0x3c>)
10000330:	f004 f964 	bl	100045fc <__wrap_printf>
10000334:	2064      	movs	r0, #100	; 0x64
10000336:	f004 ff37 	bl	100051a8 <vTaskDelay>
1000033a:	e7ec      	b.n	10000316 <led_task+0x12>
1000033c:	100073c0 	.word	0x100073c0
10000340:	100073cc 	.word	0x100073cc

10000344 <temp_sens>:
10000344:	b510      	push	{r4, lr}
10000346:	f004 fa75 	bl	10004834 <adc_init>
1000034a:	4b1d      	ldr	r3, [pc, #116]	; (100003c0 <temp_sens+0x7c>)
1000034c:	2202      	movs	r2, #2
1000034e:	601a      	str	r2, [r3, #0]
10000350:	4b1c      	ldr	r3, [pc, #112]	; (100003c4 <temp_sens+0x80>)
10000352:	681a      	ldr	r2, [r3, #0]
10000354:	2380      	movs	r3, #128	; 0x80
10000356:	01db      	lsls	r3, r3, #7
10000358:	4053      	eors	r3, r2
1000035a:	22e0      	movs	r2, #224	; 0xe0
1000035c:	01d2      	lsls	r2, r2, #7
1000035e:	4013      	ands	r3, r2
10000360:	4a19      	ldr	r2, [pc, #100]	; (100003c8 <temp_sens+0x84>)
10000362:	6013      	str	r3, [r2, #0]
10000364:	4b16      	ldr	r3, [pc, #88]	; (100003c0 <temp_sens+0x7c>)
10000366:	2204      	movs	r2, #4
10000368:	601a      	str	r2, [r3, #0]
1000036a:	4b16      	ldr	r3, [pc, #88]	; (100003c4 <temp_sens+0x80>)
1000036c:	681b      	ldr	r3, [r3, #0]
1000036e:	05db      	lsls	r3, r3, #23
10000370:	d5fb      	bpl.n	1000036a <temp_sens+0x26>
10000372:	4b14      	ldr	r3, [pc, #80]	; (100003c4 <temp_sens+0x80>)
10000374:	6858      	ldr	r0, [r3, #4]
10000376:	0400      	lsls	r0, r0, #16
10000378:	0c00      	lsrs	r0, r0, #16
1000037a:	f003 fee7 	bl	1000414c <__wrap___aeabi_i2f>
1000037e:	4913      	ldr	r1, [pc, #76]	; (100003cc <temp_sens+0x88>)
10000380:	f003 fedb 	bl	1000413a <__wrap___aeabi_fmul>
10000384:	f003 ff04 	bl	10004190 <__wrap___aeabi_f2d>
10000388:	4a11      	ldr	r2, [pc, #68]	; (100003d0 <temp_sens+0x8c>)
1000038a:	4b12      	ldr	r3, [pc, #72]	; (100003d4 <temp_sens+0x90>)
1000038c:	f003 fa5d 	bl	1000384a <__wrap___aeabi_dsub>
10000390:	4a11      	ldr	r2, [pc, #68]	; (100003d8 <temp_sens+0x94>)
10000392:	4b12      	ldr	r3, [pc, #72]	; (100003dc <temp_sens+0x98>)
10000394:	f003 fa6b 	bl	1000386e <__wrap___aeabi_ddiv>
10000398:	0002      	movs	r2, r0
1000039a:	000b      	movs	r3, r1
1000039c:	2000      	movs	r0, #0
1000039e:	4910      	ldr	r1, [pc, #64]	; (100003e0 <temp_sens+0x9c>)
100003a0:	f003 fa53 	bl	1000384a <__wrap___aeabi_dsub>
100003a4:	f003 fb3a 	bl	10003a1c <__wrap___aeabi_d2f>
100003a8:	f003 fef2 	bl	10004190 <__wrap___aeabi_f2d>
100003ac:	0002      	movs	r2, r0
100003ae:	000b      	movs	r3, r1
100003b0:	480c      	ldr	r0, [pc, #48]	; (100003e4 <temp_sens+0xa0>)
100003b2:	f004 f923 	bl	100045fc <__wrap_printf>
100003b6:	20fa      	movs	r0, #250	; 0xfa
100003b8:	0080      	lsls	r0, r0, #2
100003ba:	f001 f82f 	bl	1000141c <sleep_ms>
100003be:	e7d1      	b.n	10000364 <temp_sens+0x20>
100003c0:	4004e000 	.word	0x4004e000
100003c4:	4004c000 	.word	0x4004c000
100003c8:	4004d000 	.word	0x4004d000
100003cc:	3a533333 	.word	0x3a533333
100003d0:	4fdf3b64 	.word	0x4fdf3b64
100003d4:	3fe6978d 	.word	0x3fe6978d
100003d8:	add9c27f 	.word	0xadd9c27f
100003dc:	3f5c3265 	.word	0x3f5c3265
100003e0:	403b0000 	.word	0x403b0000
100003e4:	100073d8 	.word	0x100073d8

100003e8 <main>:
100003e8:	b570      	push	{r4, r5, r6, lr}
100003ea:	b082      	sub	sp, #8
100003ec:	f004 f912 	bl	10004614 <stdio_init_all>
100003f0:	2480      	movs	r4, #128	; 0x80
100003f2:	0064      	lsls	r4, r4, #1
100003f4:	2600      	movs	r6, #0
100003f6:	9601      	str	r6, [sp, #4]
100003f8:	2501      	movs	r5, #1
100003fa:	9500      	str	r5, [sp, #0]
100003fc:	2300      	movs	r3, #0
100003fe:	0022      	movs	r2, r4
10000400:	4907      	ldr	r1, [pc, #28]	; (10000420 <main+0x38>)
10000402:	4808      	ldr	r0, [pc, #32]	; (10000424 <main+0x3c>)
10000404:	f004 fb90 	bl	10004b28 <xTaskCreate>
10000408:	9601      	str	r6, [sp, #4]
1000040a:	9500      	str	r5, [sp, #0]
1000040c:	2300      	movs	r3, #0
1000040e:	0022      	movs	r2, r4
10000410:	4905      	ldr	r1, [pc, #20]	; (10000428 <main+0x40>)
10000412:	4806      	ldr	r0, [pc, #24]	; (1000042c <main+0x44>)
10000414:	f004 fb88 	bl	10004b28 <xTaskCreate>
10000418:	f004 fd14 	bl	10004e44 <vTaskStartScheduler>
1000041c:	e7fe      	b.n	1000041c <main+0x34>
1000041e:	46c0      	nop			; (mov r8, r8)
10000420:	100073e8 	.word	0x100073e8
10000424:	10000305 	.word	0x10000305
10000428:	100073f4 	.word	0x100073f4
1000042c:	10000345 	.word	0x10000345

10000430 <gpio_set_function>:
10000430:	b510      	push	{r4, lr}
10000432:	0083      	lsls	r3, r0, #2
10000434:	4a08      	ldr	r2, [pc, #32]	; (10000458 <gpio_set_function+0x28>)
10000436:	4694      	mov	ip, r2
10000438:	4463      	add	r3, ip
1000043a:	681c      	ldr	r4, [r3, #0]
1000043c:	2240      	movs	r2, #64	; 0x40
1000043e:	4062      	eors	r2, r4
10000440:	24c0      	movs	r4, #192	; 0xc0
10000442:	4014      	ands	r4, r2
10000444:	2280      	movs	r2, #128	; 0x80
10000446:	0152      	lsls	r2, r2, #5
10000448:	4313      	orrs	r3, r2
1000044a:	601c      	str	r4, [r3, #0]
1000044c:	00c0      	lsls	r0, r0, #3
1000044e:	4b03      	ldr	r3, [pc, #12]	; (1000045c <gpio_set_function+0x2c>)
10000450:	469c      	mov	ip, r3
10000452:	4460      	add	r0, ip
10000454:	6041      	str	r1, [r0, #4]
10000456:	bd10      	pop	{r4, pc}
10000458:	4001c004 	.word	0x4001c004
1000045c:	40014000 	.word	0x40014000

10000460 <gpio_init>:
10000460:	b510      	push	{r4, lr}
10000462:	2301      	movs	r3, #1
10000464:	4083      	lsls	r3, r0
10000466:	22d0      	movs	r2, #208	; 0xd0
10000468:	0612      	lsls	r2, r2, #24
1000046a:	6293      	str	r3, [r2, #40]	; 0x28
1000046c:	6193      	str	r3, [r2, #24]
1000046e:	2105      	movs	r1, #5
10000470:	f7ff ffde 	bl	10000430 <gpio_set_function>
10000474:	bd10      	pop	{r4, pc}
	...

10000478 <running_on_fpga>:
10000478:	4b03      	ldr	r3, [pc, #12]	; (10000488 <running_on_fpga+0x10>)
1000047a:	681b      	ldr	r3, [r3, #0]
1000047c:	2002      	movs	r0, #2
1000047e:	4018      	ands	r0, r3
10000480:	1e43      	subs	r3, r0, #1
10000482:	4198      	sbcs	r0, r3
10000484:	b2c0      	uxtb	r0, r0
10000486:	4770      	bx	lr
10000488:	4006c000 	.word	0x4006c000

1000048c <hw_claim_lock>:
1000048c:	f3ef 8010 	mrs	r0, PRIMASK
10000490:	b672      	cpsid	i
10000492:	4b03      	ldr	r3, [pc, #12]	; (100004a0 <hw_claim_lock+0x14>)
10000494:	681b      	ldr	r3, [r3, #0]
10000496:	2b00      	cmp	r3, #0
10000498:	d0fb      	beq.n	10000492 <hw_claim_lock+0x6>
1000049a:	f3bf 8f5f 	dmb	sy
1000049e:	4770      	bx	lr
100004a0:	d000012c 	.word	0xd000012c

100004a4 <hw_claim_unlock>:
100004a4:	f3bf 8f5f 	dmb	sy
100004a8:	4b02      	ldr	r3, [pc, #8]	; (100004b4 <hw_claim_unlock+0x10>)
100004aa:	2200      	movs	r2, #0
100004ac:	601a      	str	r2, [r3, #0]
100004ae:	f380 8810 	msr	PRIMASK, r0
100004b2:	4770      	bx	lr
100004b4:	d000012c 	.word	0xd000012c

100004b8 <hw_claim_or_assert>:
100004b8:	b5f8      	push	{r3, r4, r5, r6, r7, lr}
100004ba:	0006      	movs	r6, r0
100004bc:	000c      	movs	r4, r1
100004be:	0015      	movs	r5, r2
100004c0:	f7ff ffe4 	bl	1000048c <hw_claim_lock>
100004c4:	08e3      	lsrs	r3, r4, #3
100004c6:	18f7      	adds	r7, r6, r3
100004c8:	5cf1      	ldrb	r1, [r6, r3]
100004ca:	2207      	movs	r2, #7
100004cc:	4022      	ands	r2, r4
100004ce:	2301      	movs	r3, #1
100004d0:	4093      	lsls	r3, r2
100004d2:	420b      	tst	r3, r1
100004d4:	d105      	bne.n	100004e2 <hw_claim_or_assert+0x2a>
100004d6:	b2db      	uxtb	r3, r3
100004d8:	430b      	orrs	r3, r1
100004da:	703b      	strb	r3, [r7, #0]
100004dc:	f7ff ffe2 	bl	100004a4 <hw_claim_unlock>
100004e0:	bdf8      	pop	{r3, r4, r5, r6, r7, pc}
100004e2:	0021      	movs	r1, r4
100004e4:	0028      	movs	r0, r5
100004e6:	f001 fe61 	bl	100021ac <panic>
	...

100004ec <spin_locks_reset>:
100004ec:	2300      	movs	r3, #0
100004ee:	e007      	b.n	10000500 <spin_locks_reset+0x14>
100004f0:	4a05      	ldr	r2, [pc, #20]	; (10000508 <spin_locks_reset+0x1c>)
100004f2:	189a      	adds	r2, r3, r2
100004f4:	0092      	lsls	r2, r2, #2
100004f6:	f3bf 8f5f 	dmb	sy
100004fa:	2100      	movs	r1, #0
100004fc:	6011      	str	r1, [r2, #0]
100004fe:	3301      	adds	r3, #1
10000500:	2b1f      	cmp	r3, #31
10000502:	d9f5      	bls.n	100004f0 <spin_locks_reset+0x4>
10000504:	4770      	bx	lr
10000506:	46c0      	nop			; (mov r8, r8)
10000508:	34000040 	.word	0x34000040

1000050c <next_striped_spin_lock_num>:
1000050c:	4a05      	ldr	r2, [pc, #20]	; (10000524 <next_striped_spin_lock_num+0x18>)
1000050e:	7810      	ldrb	r0, [r2, #0]
10000510:	1c43      	adds	r3, r0, #1
10000512:	b2db      	uxtb	r3, r3
10000514:	7013      	strb	r3, [r2, #0]
10000516:	2b17      	cmp	r3, #23
10000518:	d902      	bls.n	10000520 <next_striped_spin_lock_num+0x14>
1000051a:	0013      	movs	r3, r2
1000051c:	2210      	movs	r2, #16
1000051e:	701a      	strb	r2, [r3, #0]
10000520:	4770      	bx	lr
10000522:	46c0      	nop			; (mov r8, r8)
10000524:	20000238 	.word	0x20000238

10000528 <set_raw_irq_handler_and_unlock>:
10000528:	4b07      	ldr	r3, [pc, #28]	; (10000548 <set_raw_irq_handler_and_unlock+0x20>)
1000052a:	689b      	ldr	r3, [r3, #8]
1000052c:	3010      	adds	r0, #16
1000052e:	0080      	lsls	r0, r0, #2
10000530:	5019      	str	r1, [r3, r0]
10000532:	f3bf 8f5f 	dmb	sy
10000536:	f3bf 8f5f 	dmb	sy
1000053a:	4b04      	ldr	r3, [pc, #16]	; (1000054c <set_raw_irq_handler_and_unlock+0x24>)
1000053c:	2100      	movs	r1, #0
1000053e:	6019      	str	r1, [r3, #0]
10000540:	f382 8810 	msr	PRIMASK, r2
10000544:	4770      	bx	lr
10000546:	46c0      	nop			; (mov r8, r8)
10000548:	e000ed00 	.word	0xe000ed00
1000054c:	d0000124 	.word	0xd0000124

10000550 <make_branch>:
10000550:	b510      	push	{r4, lr}
10000552:	1a09      	subs	r1, r1, r0
10000554:	1f08      	subs	r0, r1, #4
10000556:	4b0a      	ldr	r3, [pc, #40]	; (10000580 <make_branch+0x30>)
10000558:	469c      	mov	ip, r3
1000055a:	4461      	add	r1, ip
1000055c:	4a09      	ldr	r2, [pc, #36]	; (10000584 <make_branch+0x34>)
1000055e:	4291      	cmp	r1, r2
10000560:	d808      	bhi.n	10000574 <make_branch+0x24>
10000562:	07c3      	lsls	r3, r0, #31
10000564:	d406      	bmi.n	10000574 <make_branch+0x24>
10000566:	1040      	asrs	r0, r0, #1
10000568:	0540      	lsls	r0, r0, #21
1000056a:	0d40      	lsrs	r0, r0, #21
1000056c:	4b06      	ldr	r3, [pc, #24]	; (10000588 <make_branch+0x38>)
1000056e:	4318      	orrs	r0, r3
10000570:	b280      	uxth	r0, r0
10000572:	bd10      	pop	{r4, pc}
10000574:	4b05      	ldr	r3, [pc, #20]	; (1000058c <make_branch+0x3c>)
10000576:	4a06      	ldr	r2, [pc, #24]	; (10000590 <make_branch+0x40>)
10000578:	21a3      	movs	r1, #163	; 0xa3
1000057a:	4806      	ldr	r0, [pc, #24]	; (10000594 <make_branch+0x44>)
1000057c:	f001 fd7c 	bl	10002078 <__assert_func>
10000580:	000007fc 	.word	0x000007fc
10000584:	00000ffe 	.word	0x00000ffe
10000588:	ffffe000 	.word	0xffffe000
1000058c:	10007400 	.word	0x10007400
10000590:	10007648 	.word	0x10007648
10000594:	10007430 	.word	0x10007430

10000598 <insert_branch_and_link>:
10000598:	b510      	push	{r4, lr}
1000059a:	1a09      	subs	r1, r1, r0
1000059c:	3904      	subs	r1, #4
1000059e:	084c      	lsrs	r4, r1, #1
100005a0:	0b09      	lsrs	r1, r1, #12
100005a2:	d108      	bne.n	100005b6 <insert_branch_and_link+0x1e>
100005a4:	0549      	lsls	r1, r1, #21
100005a6:	0d49      	lsrs	r1, r1, #21
100005a8:	4a06      	ldr	r2, [pc, #24]	; (100005c4 <insert_branch_and_link+0x2c>)
100005aa:	4311      	orrs	r1, r2
100005ac:	8001      	strh	r1, [r0, #0]
100005ae:	4b06      	ldr	r3, [pc, #24]	; (100005c8 <insert_branch_and_link+0x30>)
100005b0:	4323      	orrs	r3, r4
100005b2:	8043      	strh	r3, [r0, #2]
100005b4:	bd10      	pop	{r4, pc}
100005b6:	4b05      	ldr	r3, [pc, #20]	; (100005cc <insert_branch_and_link+0x34>)
100005b8:	4a05      	ldr	r2, [pc, #20]	; (100005d0 <insert_branch_and_link+0x38>)
100005ba:	21ab      	movs	r1, #171	; 0xab
100005bc:	4805      	ldr	r0, [pc, #20]	; (100005d4 <insert_branch_and_link+0x3c>)
100005be:	f001 fd5b 	bl	10002078 <__assert_func>
100005c2:	46c0      	nop			; (mov r8, r8)
100005c4:	fffff000 	.word	0xfffff000
100005c8:	fffff800 	.word	0xfffff800
100005cc:	10007464 	.word	0x10007464
100005d0:	1000761c 	.word	0x1000761c
100005d4:	10007430 	.word	0x10007430

100005d8 <irq_is_enabled>:
100005d8:	2301      	movs	r3, #1
100005da:	4083      	lsls	r3, r0
100005dc:	4a03      	ldr	r2, [pc, #12]	; (100005ec <irq_is_enabled+0x14>)
100005de:	6810      	ldr	r0, [r2, #0]
100005e0:	4018      	ands	r0, r3
100005e2:	1e43      	subs	r3, r0, #1
100005e4:	4198      	sbcs	r0, r3
100005e6:	b2c0      	uxtb	r0, r0
100005e8:	4770      	bx	lr
100005ea:	46c0      	nop			; (mov r8, r8)
100005ec:	e000e100 	.word	0xe000e100

100005f0 <irq_set_mask_enabled>:
100005f0:	2900      	cmp	r1, #0
100005f2:	d004      	beq.n	100005fe <irq_set_mask_enabled+0xe>
100005f4:	4b03      	ldr	r3, [pc, #12]	; (10000604 <irq_set_mask_enabled+0x14>)
100005f6:	6018      	str	r0, [r3, #0]
100005f8:	4b03      	ldr	r3, [pc, #12]	; (10000608 <irq_set_mask_enabled+0x18>)
100005fa:	6018      	str	r0, [r3, #0]
100005fc:	4770      	bx	lr
100005fe:	4b03      	ldr	r3, [pc, #12]	; (1000060c <irq_set_mask_enabled+0x1c>)
10000600:	6018      	str	r0, [r3, #0]
10000602:	e7fb      	b.n	100005fc <irq_set_mask_enabled+0xc>
10000604:	e000e280 	.word	0xe000e280
10000608:	e000e100 	.word	0xe000e100
1000060c:	e000e180 	.word	0xe000e180

10000610 <irq_set_enabled>:
10000610:	b510      	push	{r4, lr}
10000612:	2301      	movs	r3, #1
10000614:	4083      	lsls	r3, r0
10000616:	0018      	movs	r0, r3
10000618:	f7ff ffea 	bl	100005f0 <irq_set_mask_enabled>
1000061c:	bd10      	pop	{r4, pc}
	...

10000620 <irq_get_vtable_handler>:
10000620:	4b02      	ldr	r3, [pc, #8]	; (1000062c <irq_get_vtable_handler+0xc>)
10000622:	689b      	ldr	r3, [r3, #8]
10000624:	3010      	adds	r0, #16
10000626:	0080      	lsls	r0, r0, #2
10000628:	58c0      	ldr	r0, [r0, r3]
1000062a:	4770      	bx	lr
1000062c:	e000ed00 	.word	0xe000ed00

10000630 <irq_set_exclusive_handler>:
10000630:	b570      	push	{r4, r5, r6, lr}
10000632:	0004      	movs	r4, r0
10000634:	000d      	movs	r5, r1
10000636:	f3ef 8610 	mrs	r6, PRIMASK
1000063a:	b672      	cpsid	i
1000063c:	4b0c      	ldr	r3, [pc, #48]	; (10000670 <irq_set_exclusive_handler+0x40>)
1000063e:	681b      	ldr	r3, [r3, #0]
10000640:	2b00      	cmp	r3, #0
10000642:	d0fb      	beq.n	1000063c <irq_set_exclusive_handler+0xc>
10000644:	f3bf 8f5f 	dmb	sy
10000648:	0020      	movs	r0, r4
1000064a:	f7ff ffe9 	bl	10000620 <irq_get_vtable_handler>
1000064e:	4b09      	ldr	r3, [pc, #36]	; (10000674 <irq_set_exclusive_handler+0x44>)
10000650:	4298      	cmp	r0, r3
10000652:	d001      	beq.n	10000658 <irq_set_exclusive_handler+0x28>
10000654:	42a8      	cmp	r0, r5
10000656:	d105      	bne.n	10000664 <irq_set_exclusive_handler+0x34>
10000658:	0032      	movs	r2, r6
1000065a:	0029      	movs	r1, r5
1000065c:	0020      	movs	r0, r4
1000065e:	f7ff ff63 	bl	10000528 <set_raw_irq_handler_and_unlock>
10000662:	bd70      	pop	{r4, r5, r6, pc}
10000664:	4b04      	ldr	r3, [pc, #16]	; (10000678 <irq_set_exclusive_handler+0x48>)
10000666:	4a05      	ldr	r2, [pc, #20]	; (1000067c <irq_set_exclusive_handler+0x4c>)
10000668:	2186      	movs	r1, #134	; 0x86
1000066a:	4805      	ldr	r0, [pc, #20]	; (10000680 <irq_set_exclusive_handler+0x50>)
1000066c:	f001 fd04 	bl	10002078 <__assert_func>
10000670:	d0000124 	.word	0xd0000124
10000674:	100001cd 	.word	0x100001cd
10000678:	10007474 	.word	0x10007474
1000067c:	10007664 	.word	0x10007664
10000680:	10007430 	.word	0x10007430

10000684 <irq_remove_handler>:
10000684:	b5f0      	push	{r4, r5, r6, r7, lr}
10000686:	46ce      	mov	lr, r9
10000688:	4647      	mov	r7, r8
1000068a:	b580      	push	{r7, lr}
1000068c:	b083      	sub	sp, #12
1000068e:	0006      	movs	r6, r0
10000690:	000d      	movs	r5, r1
10000692:	f3ef 8810 	mrs	r8, PRIMASK
10000696:	b672      	cpsid	i
10000698:	4b56      	ldr	r3, [pc, #344]	; (100007f4 <irq_remove_handler+0x170>)
1000069a:	681b      	ldr	r3, [r3, #0]
1000069c:	2b00      	cmp	r3, #0
1000069e:	d0fb      	beq.n	10000698 <irq_remove_handler+0x14>
100006a0:	f3bf 8f5f 	dmb	sy
100006a4:	4b54      	ldr	r3, [pc, #336]	; (100007f8 <irq_remove_handler+0x174>)
100006a6:	689a      	ldr	r2, [r3, #8]
100006a8:	0034      	movs	r4, r6
100006aa:	3410      	adds	r4, #16
100006ac:	00a3      	lsls	r3, r4, #2
100006ae:	58d7      	ldr	r7, [r2, r3]
100006b0:	4b52      	ldr	r3, [pc, #328]	; (100007fc <irq_remove_handler+0x178>)
100006b2:	429f      	cmp	r7, r3
100006b4:	d007      	beq.n	100006c6 <irq_remove_handler+0x42>
100006b6:	42af      	cmp	r7, r5
100006b8:	d100      	bne.n	100006bc <irq_remove_handler+0x38>
100006ba:	e098      	b.n	100007ee <irq_remove_handler+0x16a>
100006bc:	9701      	str	r7, [sp, #4]
100006be:	4b50      	ldr	r3, [pc, #320]	; (10000800 <irq_remove_handler+0x17c>)
100006c0:	1afb      	subs	r3, r7, r3
100006c2:	2b2f      	cmp	r3, #47	; 0x2f
100006c4:	d909      	bls.n	100006da <irq_remove_handler+0x56>
100006c6:	4642      	mov	r2, r8
100006c8:	0039      	movs	r1, r7
100006ca:	0030      	movs	r0, r6
100006cc:	f7ff ff2c 	bl	10000528 <set_raw_irq_handler_and_unlock>
100006d0:	b003      	add	sp, #12
100006d2:	bcc0      	pop	{r6, r7}
100006d4:	46b9      	mov	r9, r7
100006d6:	46b0      	mov	r8, r6
100006d8:	bdf0      	pop	{r4, r5, r6, r7, pc}
100006da:	0030      	movs	r0, r6
100006dc:	f7ff ff7c 	bl	100005d8 <irq_is_enabled>
100006e0:	4681      	mov	r9, r0
100006e2:	2100      	movs	r1, #0
100006e4:	0030      	movs	r0, r6
100006e6:	f7ff ff93 	bl	10000610 <irq_set_enabled>
100006ea:	f3bf 8f5f 	dmb	sy
100006ee:	f3ef 8105 	mrs	r1, IPSR
100006f2:	2900      	cmp	r1, #0
100006f4:	d001      	beq.n	100006fa <irq_remove_handler+0x76>
100006f6:	428c      	cmp	r4, r1
100006f8:	d111      	bne.n	1000071e <irq_remove_handler+0x9a>
100006fa:	2301      	movs	r3, #1
100006fc:	9c01      	ldr	r4, [sp, #4]
100006fe:	439c      	bics	r4, r3
10000700:	2200      	movs	r2, #0
10000702:	68a3      	ldr	r3, [r4, #8]
10000704:	42ab      	cmp	r3, r5
10000706:	d012      	beq.n	1000072e <irq_remove_handler+0xaa>
10000708:	2206      	movs	r2, #6
1000070a:	56a2      	ldrsb	r2, [r4, r2]
1000070c:	2a00      	cmp	r2, #0
1000070e:	db0d      	blt.n	1000072c <irq_remove_handler+0xa8>
10000710:	0053      	lsls	r3, r2, #1
10000712:	189b      	adds	r3, r3, r2
10000714:	009b      	lsls	r3, r3, #2
10000716:	0022      	movs	r2, r4
10000718:	4c39      	ldr	r4, [pc, #228]	; (10000800 <irq_remove_handler+0x17c>)
1000071a:	18e4      	adds	r4, r4, r3
1000071c:	e7f1      	b.n	10000702 <irq_remove_handler+0x7e>
1000071e:	2136      	movs	r1, #54	; 0x36
10000720:	4b38      	ldr	r3, [pc, #224]	; (10000804 <irq_remove_handler+0x180>)
10000722:	4a39      	ldr	r2, [pc, #228]	; (10000808 <irq_remove_handler+0x184>)
10000724:	31ff      	adds	r1, #255	; 0xff
10000726:	4839      	ldr	r0, [pc, #228]	; (1000080c <irq_remove_handler+0x188>)
10000728:	f001 fca6 	bl	10002078 <__assert_func>
1000072c:	0022      	movs	r2, r4
1000072e:	42ab      	cmp	r3, r5
10000730:	d156      	bne.n	100007e0 <irq_remove_handler+0x15c>
10000732:	2506      	movs	r5, #6
10000734:	5765      	ldrsb	r5, [r4, r5]
10000736:	2d00      	cmp	r5, #0
10000738:	db38      	blt.n	100007ac <irq_remove_handler+0x128>
1000073a:	006b      	lsls	r3, r5, #1
1000073c:	195b      	adds	r3, r3, r5
1000073e:	009a      	lsls	r2, r3, #2
10000740:	4b2f      	ldr	r3, [pc, #188]	; (10000800 <irq_remove_handler+0x17c>)
10000742:	189b      	adds	r3, r3, r2
10000744:	689a      	ldr	r2, [r3, #8]
10000746:	60a2      	str	r2, [r4, #8]
10000748:	79da      	ldrb	r2, [r3, #7]
1000074a:	71e2      	strb	r2, [r4, #7]
1000074c:	2206      	movs	r2, #6
1000074e:	569a      	ldrsb	r2, [r3, r2]
10000750:	71a2      	strb	r2, [r4, #6]
10000752:	799b      	ldrb	r3, [r3, #6]
10000754:	b25b      	sxtb	r3, r3
10000756:	2b00      	cmp	r3, #0
10000758:	da0f      	bge.n	1000077a <irq_remove_handler+0xf6>
1000075a:	482d      	ldr	r0, [pc, #180]	; (10000810 <irq_remove_handler+0x18c>)
1000075c:	80a0      	strh	r0, [r4, #4]
1000075e:	006b      	lsls	r3, r5, #1
10000760:	195b      	adds	r3, r3, r5
10000762:	009b      	lsls	r3, r3, #2
10000764:	4a26      	ldr	r2, [pc, #152]	; (10000800 <irq_remove_handler+0x17c>)
10000766:	18d3      	adds	r3, r2, r3
10000768:	4a2a      	ldr	r2, [pc, #168]	; (10000814 <irq_remove_handler+0x190>)
1000076a:	7811      	ldrb	r1, [r2, #0]
1000076c:	7199      	strb	r1, [r3, #6]
1000076e:	7015      	strb	r5, [r2, #0]
10000770:	4649      	mov	r1, r9
10000772:	0030      	movs	r0, r6
10000774:	f7ff ff4c 	bl	10000610 <irq_set_enabled>
10000778:	e7a5      	b.n	100006c6 <irq_remove_handler+0x42>
1000077a:	1d20      	adds	r0, r4, #4
1000077c:	006b      	lsls	r3, r5, #1
1000077e:	195b      	adds	r3, r3, r5
10000780:	009b      	lsls	r3, r3, #2
10000782:	4a1f      	ldr	r2, [pc, #124]	; (10000800 <irq_remove_handler+0x17c>)
10000784:	189b      	adds	r3, r3, r2
10000786:	1d1a      	adds	r2, r3, #4
10000788:	889b      	ldrh	r3, [r3, #4]
1000078a:	0ad9      	lsrs	r1, r3, #11
1000078c:	291c      	cmp	r1, #28
1000078e:	d107      	bne.n	100007a0 <irq_remove_handler+0x11c>
10000790:	055b      	lsls	r3, r3, #21
10000792:	155b      	asrs	r3, r3, #21
10000794:	3302      	adds	r3, #2
10000796:	0059      	lsls	r1, r3, #1
10000798:	1851      	adds	r1, r2, r1
1000079a:	f7ff fed9 	bl	10000550 <make_branch>
1000079e:	e7dd      	b.n	1000075c <irq_remove_handler+0xd8>
100007a0:	4b1d      	ldr	r3, [pc, #116]	; (10000818 <irq_remove_handler+0x194>)
100007a2:	4a1e      	ldr	r2, [pc, #120]	; (1000081c <irq_remove_handler+0x198>)
100007a4:	21b1      	movs	r1, #177	; 0xb1
100007a6:	4819      	ldr	r0, [pc, #100]	; (1000080c <irq_remove_handler+0x188>)
100007a8:	f001 fc66 	bl	10002078 <__assert_func>
100007ac:	2900      	cmp	r1, #0
100007ae:	d112      	bne.n	100007d6 <irq_remove_handler+0x152>
100007b0:	2a00      	cmp	r2, #0
100007b2:	d00e      	beq.n	100007d2 <irq_remove_handler+0x14e>
100007b4:	23ff      	movs	r3, #255	; 0xff
100007b6:	7193      	strb	r3, [r2, #6]
100007b8:	4b19      	ldr	r3, [pc, #100]	; (10000820 <irq_remove_handler+0x19c>)
100007ba:	8093      	strh	r3, [r2, #4]
100007bc:	4a15      	ldr	r2, [pc, #84]	; (10000814 <irq_remove_handler+0x190>)
100007be:	7813      	ldrb	r3, [r2, #0]
100007c0:	71a3      	strb	r3, [r4, #6]
100007c2:	4b18      	ldr	r3, [pc, #96]	; (10000824 <irq_remove_handler+0x1a0>)
100007c4:	490e      	ldr	r1, [pc, #56]	; (10000800 <irq_remove_handler+0x17c>)
100007c6:	1a64      	subs	r4, r4, r1
100007c8:	4164      	adcs	r4, r4
100007ca:	4363      	muls	r3, r4
100007cc:	0d1b      	lsrs	r3, r3, #20
100007ce:	7013      	strb	r3, [r2, #0]
100007d0:	e7ce      	b.n	10000770 <irq_remove_handler+0xec>
100007d2:	4f0a      	ldr	r7, [pc, #40]	; (100007fc <irq_remove_handler+0x178>)
100007d4:	e7f2      	b.n	100007bc <irq_remove_handler+0x138>
100007d6:	1d20      	adds	r0, r4, #4
100007d8:	4913      	ldr	r1, [pc, #76]	; (10000828 <irq_remove_handler+0x1a4>)
100007da:	f7ff fedd 	bl	10000598 <insert_branch_and_link>
100007de:	e7c7      	b.n	10000770 <irq_remove_handler+0xec>
100007e0:	216a      	movs	r1, #106	; 0x6a
100007e2:	4b12      	ldr	r3, [pc, #72]	; (1000082c <irq_remove_handler+0x1a8>)
100007e4:	4a08      	ldr	r2, [pc, #32]	; (10000808 <irq_remove_handler+0x184>)
100007e6:	31ff      	adds	r1, #255	; 0xff
100007e8:	4808      	ldr	r0, [pc, #32]	; (1000080c <irq_remove_handler+0x188>)
100007ea:	f001 fc45 	bl	10002078 <__assert_func>
100007ee:	4f03      	ldr	r7, [pc, #12]	; (100007fc <irq_remove_handler+0x178>)
100007f0:	e769      	b.n	100006c6 <irq_remove_handler+0x42>
100007f2:	46c0      	nop			; (mov r8, r8)
100007f4:	d0000124 	.word	0xd0000124
100007f8:	e000ed00 	.word	0xe000ed00
100007fc:	100001cd 	.word	0x100001cd
10000800:	2000023c 	.word	0x2000023c
10000804:	10007588 	.word	0x10007588
10000808:	10007634 	.word	0x10007634
1000080c:	10007430 	.word	0x10007430
10000810:	0000bd01 	.word	0x0000bd01
10000814:	200010f5 	.word	0x200010f5
10000818:	10007570 	.word	0x10007570
1000081c:	10007654 	.word	0x10007654
10000820:	ffffbd01 	.word	0xffffbd01
10000824:	0000aaaa 	.word	0x0000aaaa
10000828:	20000276 	.word	0x20000276
1000082c:	100075bc 	.word	0x100075bc

10000830 <irq_add_tail_to_free_list>:
10000830:	b570      	push	{r4, r5, r6, lr}
10000832:	2101      	movs	r1, #1
10000834:	4301      	orrs	r1, r0
10000836:	4b2e      	ldr	r3, [pc, #184]	; (100008f0 <irq_add_tail_to_free_list+0xc0>)
10000838:	1acb      	subs	r3, r1, r3
1000083a:	2b2f      	cmp	r3, #47	; 0x2f
1000083c:	d828      	bhi.n	10000890 <irq_add_tail_to_free_list+0x60>
1000083e:	f3ef 8305 	mrs	r3, IPSR
10000842:	2b00      	cmp	r3, #0
10000844:	d02b      	beq.n	1000089e <irq_add_tail_to_free_list+0x6e>
10000846:	f3ef 8c10 	mrs	ip, PRIMASK
1000084a:	b672      	cpsid	i
1000084c:	4a29      	ldr	r2, [pc, #164]	; (100008f4 <irq_add_tail_to_free_list+0xc4>)
1000084e:	6812      	ldr	r2, [r2, #0]
10000850:	2a00      	cmp	r2, #0
10000852:	d0fb      	beq.n	1000084c <irq_add_tail_to_free_list+0x1c>
10000854:	f3bf 8f5f 	dmb	sy
10000858:	4a27      	ldr	r2, [pc, #156]	; (100008f8 <irq_add_tail_to_free_list+0xc8>)
1000085a:	0004      	movs	r4, r0
1000085c:	4d24      	ldr	r5, [pc, #144]	; (100008f0 <irq_add_tail_to_free_list+0xc0>)
1000085e:	1b64      	subs	r4, r4, r5
10000860:	4164      	adcs	r4, r4
10000862:	4362      	muls	r2, r4
10000864:	0d12      	lsrs	r2, r2, #20
10000866:	b254      	sxtb	r4, r2
10000868:	4a24      	ldr	r2, [pc, #144]	; (100008fc <irq_add_tail_to_free_list+0xcc>)
1000086a:	6892      	ldr	r2, [r2, #8]
1000086c:	009b      	lsls	r3, r3, #2
1000086e:	58d2      	ldr	r2, [r2, r3]
10000870:	428a      	cmp	r2, r1
10000872:	d01b      	beq.n	100008ac <irq_add_tail_to_free_list+0x7c>
10000874:	2200      	movs	r2, #0
10000876:	2a03      	cmp	r2, #3
10000878:	d832      	bhi.n	100008e0 <irq_add_tail_to_free_list+0xb0>
1000087a:	0053      	lsls	r3, r2, #1
1000087c:	189b      	adds	r3, r3, r2
1000087e:	009b      	lsls	r3, r3, #2
10000880:	491b      	ldr	r1, [pc, #108]	; (100008f0 <irq_add_tail_to_free_list+0xc0>)
10000882:	18cb      	adds	r3, r1, r3
10000884:	799b      	ldrb	r3, [r3, #6]
10000886:	b25b      	sxtb	r3, r3
10000888:	42a3      	cmp	r3, r4
1000088a:	d01f      	beq.n	100008cc <irq_add_tail_to_free_list+0x9c>
1000088c:	3201      	adds	r2, #1
1000088e:	e7f2      	b.n	10000876 <irq_add_tail_to_free_list+0x46>
10000890:	21c7      	movs	r1, #199	; 0xc7
10000892:	4b1b      	ldr	r3, [pc, #108]	; (10000900 <irq_add_tail_to_free_list+0xd0>)
10000894:	4a1b      	ldr	r2, [pc, #108]	; (10000904 <irq_add_tail_to_free_list+0xd4>)
10000896:	0049      	lsls	r1, r1, #1
10000898:	481b      	ldr	r0, [pc, #108]	; (10000908 <irq_add_tail_to_free_list+0xd8>)
1000089a:	f001 fbed 	bl	10002078 <__assert_func>
1000089e:	2192      	movs	r1, #146	; 0x92
100008a0:	4b1a      	ldr	r3, [pc, #104]	; (1000090c <irq_add_tail_to_free_list+0xdc>)
100008a2:	4a18      	ldr	r2, [pc, #96]	; (10000904 <irq_add_tail_to_free_list+0xd4>)
100008a4:	31ff      	adds	r1, #255	; 0xff
100008a6:	4818      	ldr	r0, [pc, #96]	; (10000908 <irq_add_tail_to_free_list+0xd8>)
100008a8:	f001 fbe6 	bl	10002078 <__assert_func>
100008ac:	4a13      	ldr	r2, [pc, #76]	; (100008fc <irq_add_tail_to_free_list+0xcc>)
100008ae:	6892      	ldr	r2, [r2, #8]
100008b0:	4917      	ldr	r1, [pc, #92]	; (10000910 <irq_add_tail_to_free_list+0xe0>)
100008b2:	50d1      	str	r1, [r2, r3]
100008b4:	4b17      	ldr	r3, [pc, #92]	; (10000914 <irq_add_tail_to_free_list+0xe4>)
100008b6:	781a      	ldrb	r2, [r3, #0]
100008b8:	7182      	strb	r2, [r0, #6]
100008ba:	701c      	strb	r4, [r3, #0]
100008bc:	f3bf 8f5f 	dmb	sy
100008c0:	4b0c      	ldr	r3, [pc, #48]	; (100008f4 <irq_add_tail_to_free_list+0xc4>)
100008c2:	2200      	movs	r2, #0
100008c4:	601a      	str	r2, [r3, #0]
100008c6:	f38c 8810 	msr	PRIMASK, ip
100008ca:	bd70      	pop	{r4, r5, r6, pc}
100008cc:	000d      	movs	r5, r1
100008ce:	0053      	lsls	r3, r2, #1
100008d0:	1899      	adds	r1, r3, r2
100008d2:	0089      	lsls	r1, r1, #2
100008d4:	1869      	adds	r1, r5, r1
100008d6:	26ff      	movs	r6, #255	; 0xff
100008d8:	718e      	strb	r6, [r1, #6]
100008da:	4a0f      	ldr	r2, [pc, #60]	; (10000918 <irq_add_tail_to_free_list+0xe8>)
100008dc:	808a      	strh	r2, [r1, #4]
100008de:	e7e9      	b.n	100008b4 <irq_add_tail_to_free_list+0x84>
100008e0:	21d1      	movs	r1, #209	; 0xd1
100008e2:	4b0e      	ldr	r3, [pc, #56]	; (1000091c <irq_add_tail_to_free_list+0xec>)
100008e4:	4a07      	ldr	r2, [pc, #28]	; (10000904 <irq_add_tail_to_free_list+0xd4>)
100008e6:	0049      	lsls	r1, r1, #1
100008e8:	4807      	ldr	r0, [pc, #28]	; (10000908 <irq_add_tail_to_free_list+0xd8>)
100008ea:	f001 fbc5 	bl	10002078 <__assert_func>
100008ee:	46c0      	nop			; (mov r8, r8)
100008f0:	2000023c 	.word	0x2000023c
100008f4:	d0000124 	.word	0xd0000124
100008f8:	0000aaaa 	.word	0x0000aaaa
100008fc:	e000ed00 	.word	0xe000ed00
10000900:	100075c4 	.word	0x100075c4
10000904:	10007600 	.word	0x10007600
10000908:	10007430 	.word	0x10007430
1000090c:	100075ec 	.word	0x100075ec
10000910:	100001cd 	.word	0x100001cd
10000914:	200010f5 	.word	0x200010f5
10000918:	ffffbd01 	.word	0xffffbd01
1000091c:	100075f8 	.word	0x100075f8

10000920 <irq_init_priorities>:
10000920:	2200      	movs	r2, #0
10000922:	4b04      	ldr	r3, [pc, #16]	; (10000934 <irq_init_priorities+0x14>)
10000924:	e002      	b.n	1000092c <irq_init_priorities+0xc>
10000926:	4904      	ldr	r1, [pc, #16]	; (10000938 <irq_init_priorities+0x18>)
10000928:	c302      	stmia	r3!, {r1}
1000092a:	3201      	adds	r2, #1
1000092c:	2a07      	cmp	r2, #7
1000092e:	d9fa      	bls.n	10000926 <irq_init_priorities+0x6>
10000930:	4770      	bx	lr
10000932:	46c0      	nop			; (mov r8, r8)
10000934:	e000e400 	.word	0xe000e400
10000938:	80808080 	.word	0x80808080

1000093c <lock_init>:
1000093c:	4b02      	ldr	r3, [pc, #8]	; (10000948 <lock_init+0xc>)
1000093e:	469c      	mov	ip, r3
10000940:	4461      	add	r1, ip
10000942:	0089      	lsls	r1, r1, #2
10000944:	6001      	str	r1, [r0, #0]
10000946:	4770      	bx	lr
10000948:	34000040 	.word	0x34000040

1000094c <mutex_init>:
1000094c:	b510      	push	{r4, lr}
1000094e:	0004      	movs	r4, r0
10000950:	f7ff fddc 	bl	1000050c <next_striped_spin_lock_num>
10000954:	0001      	movs	r1, r0
10000956:	0020      	movs	r0, r4
10000958:	f7ff fff0 	bl	1000093c <lock_init>
1000095c:	23ff      	movs	r3, #255	; 0xff
1000095e:	7123      	strb	r3, [r4, #4]
10000960:	f3bf 8f5f 	dmb	sy
10000964:	bd10      	pop	{r4, pc}

10000966 <recursive_mutex_init>:
10000966:	b510      	push	{r4, lr}
10000968:	0004      	movs	r4, r0
1000096a:	f7ff fdcf 	bl	1000050c <next_striped_spin_lock_num>
1000096e:	0001      	movs	r1, r0
10000970:	0020      	movs	r0, r4
10000972:	f7ff ffe3 	bl	1000093c <lock_init>
10000976:	23ff      	movs	r3, #255	; 0xff
10000978:	7123      	strb	r3, [r4, #4]
1000097a:	2300      	movs	r3, #0
1000097c:	7163      	strb	r3, [r4, #5]
1000097e:	f3bf 8f5f 	dmb	sy
10000982:	bd10      	pop	{r4, pc}

10000984 <alarm_pool_post_alloc_init>:
10000984:	b570      	push	{r4, r5, r6, lr}
10000986:	0005      	movs	r5, r0
10000988:	000c      	movs	r4, r1
1000098a:	0008      	movs	r0, r1
1000098c:	f000 fed6 	bl	1000173c <hardware_alarm_cancel>
10000990:	4909      	ldr	r1, [pc, #36]	; (100009b8 <alarm_pool_post_alloc_init+0x34>)
10000992:	0020      	movs	r0, r4
10000994:	f000 fe16 	bl	100015c4 <hardware_alarm_set_callback>
10000998:	f7ff fdb8 	bl	1000050c <next_striped_spin_lock_num>
1000099c:	4b07      	ldr	r3, [pc, #28]	; (100009bc <alarm_pool_post_alloc_init+0x38>)
1000099e:	469c      	mov	ip, r3
100009a0:	4460      	add	r0, ip
100009a2:	0080      	lsls	r0, r0, #2
100009a4:	6068      	str	r0, [r5, #4]
100009a6:	752c      	strb	r4, [r5, #20]
100009a8:	23d0      	movs	r3, #208	; 0xd0
100009aa:	061b      	lsls	r3, r3, #24
100009ac:	781b      	ldrb	r3, [r3, #0]
100009ae:	756b      	strb	r3, [r5, #21]
100009b0:	00a4      	lsls	r4, r4, #2
100009b2:	4b03      	ldr	r3, [pc, #12]	; (100009c0 <alarm_pool_post_alloc_init+0x3c>)
100009b4:	50e5      	str	r5, [r4, r3]
100009b6:	bd70      	pop	{r4, r5, r6, pc}
100009b8:	10000cc9 	.word	0x10000cc9
100009bc:	34000040 	.word	0x34000040
100009c0:	20000ec4 	.word	0x20000ec4

100009c4 <sleep_until_callback>:
100009c4:	4b0a      	ldr	r3, [pc, #40]	; (100009f0 <sleep_until_callback+0x2c>)
100009c6:	681a      	ldr	r2, [r3, #0]
100009c8:	f3ef 8110 	mrs	r1, PRIMASK
100009cc:	b672      	cpsid	i
100009ce:	6813      	ldr	r3, [r2, #0]
100009d0:	2b00      	cmp	r3, #0
100009d2:	d0fc      	beq.n	100009ce <sleep_until_callback+0xa>
100009d4:	f3bf 8f5f 	dmb	sy
100009d8:	4b05      	ldr	r3, [pc, #20]	; (100009f0 <sleep_until_callback+0x2c>)
100009da:	681b      	ldr	r3, [r3, #0]
100009dc:	f3bf 8f5f 	dmb	sy
100009e0:	2200      	movs	r2, #0
100009e2:	601a      	str	r2, [r3, #0]
100009e4:	f381 8810 	msr	PRIMASK, r1
100009e8:	bf40      	sev
100009ea:	2000      	movs	r0, #0
100009ec:	2100      	movs	r1, #0
100009ee:	4770      	bx	lr
100009f0:	200010d8 	.word	0x200010d8

100009f4 <timer_pool_entry_comparator>:
100009f4:	b510      	push	{r4, lr}
100009f6:	2900      	cmp	r1, #0
100009f8:	d022      	beq.n	10000a40 <timer_pool_entry_comparator+0x4c>
100009fa:	6803      	ldr	r3, [r0, #0]
100009fc:	7b1b      	ldrb	r3, [r3, #12]
100009fe:	4299      	cmp	r1, r3
10000a00:	d81e      	bhi.n	10000a40 <timer_pool_entry_comparator+0x4c>
10000a02:	4b17      	ldr	r3, [pc, #92]	; (10000a60 <timer_pool_entry_comparator+0x6c>)
10000a04:	469c      	mov	ip, r3
10000a06:	4461      	add	r1, ip
10000a08:	0109      	lsls	r1, r1, #4
10000a0a:	6883      	ldr	r3, [r0, #8]
10000a0c:	469c      	mov	ip, r3
10000a0e:	4461      	add	r1, ip
10000a10:	680c      	ldr	r4, [r1, #0]
10000a12:	6849      	ldr	r1, [r1, #4]
10000a14:	2a00      	cmp	r2, #0
10000a16:	d019      	beq.n	10000a4c <timer_pool_entry_comparator+0x58>
10000a18:	6803      	ldr	r3, [r0, #0]
10000a1a:	7b1b      	ldrb	r3, [r3, #12]
10000a1c:	429a      	cmp	r2, r3
10000a1e:	d815      	bhi.n	10000a4c <timer_pool_entry_comparator+0x58>
10000a20:	6883      	ldr	r3, [r0, #8]
10000a22:	480f      	ldr	r0, [pc, #60]	; (10000a60 <timer_pool_entry_comparator+0x6c>)
10000a24:	4684      	mov	ip, r0
10000a26:	4462      	add	r2, ip
10000a28:	0112      	lsls	r2, r2, #4
10000a2a:	189a      	adds	r2, r3, r2
10000a2c:	6810      	ldr	r0, [r2, #0]
10000a2e:	6853      	ldr	r3, [r2, #4]
10000a30:	0002      	movs	r2, r0
10000a32:	2001      	movs	r0, #1
10000a34:	428b      	cmp	r3, r1
10000a36:	d801      	bhi.n	10000a3c <timer_pool_entry_comparator+0x48>
10000a38:	d00e      	beq.n	10000a58 <timer_pool_entry_comparator+0x64>
10000a3a:	2000      	movs	r0, #0
10000a3c:	b2c0      	uxtb	r0, r0
10000a3e:	bd10      	pop	{r4, pc}
10000a40:	4b08      	ldr	r3, [pc, #32]	; (10000a64 <timer_pool_entry_comparator+0x70>)
10000a42:	4a09      	ldr	r2, [pc, #36]	; (10000a68 <timer_pool_entry_comparator+0x74>)
10000a44:	213c      	movs	r1, #60	; 0x3c
10000a46:	4809      	ldr	r0, [pc, #36]	; (10000a6c <timer_pool_entry_comparator+0x78>)
10000a48:	f001 fb16 	bl	10002078 <__assert_func>
10000a4c:	4b05      	ldr	r3, [pc, #20]	; (10000a64 <timer_pool_entry_comparator+0x70>)
10000a4e:	4a06      	ldr	r2, [pc, #24]	; (10000a68 <timer_pool_entry_comparator+0x74>)
10000a50:	213c      	movs	r1, #60	; 0x3c
10000a52:	4806      	ldr	r0, [pc, #24]	; (10000a6c <timer_pool_entry_comparator+0x78>)
10000a54:	f001 fb10 	bl	10002078 <__assert_func>
10000a58:	42a2      	cmp	r2, r4
10000a5a:	d8ef      	bhi.n	10000a3c <timer_pool_entry_comparator+0x48>
10000a5c:	e7ed      	b.n	10000a3a <timer_pool_entry_comparator+0x46>
10000a5e:	46c0      	nop			; (mov r8, r8)
10000a60:	0fffffff 	.word	0x0fffffff
10000a64:	100077c4 	.word	0x100077c4
10000a68:	10007a1c 	.word	0x10007a1c
10000a6c:	10007794 	.word	0x10007794

10000a70 <ph_add_child_node>:
10000a70:	b510      	push	{r4, lr}
10000a72:	2900      	cmp	r1, #0
10000a74:	d01e      	beq.n	10000ab4 <ph_add_child_node+0x44>
10000a76:	7b03      	ldrb	r3, [r0, #12]
10000a78:	4299      	cmp	r1, r3
10000a7a:	d81b      	bhi.n	10000ab4 <ph_add_child_node+0x44>
10000a7c:	004b      	lsls	r3, r1, #1
10000a7e:	185b      	adds	r3, r3, r1
10000a80:	3b03      	subs	r3, #3
10000a82:	6804      	ldr	r4, [r0, #0]
10000a84:	46a4      	mov	ip, r4
10000a86:	4463      	add	r3, ip
10000a88:	2900      	cmp	r1, #0
10000a8a:	d019      	beq.n	10000ac0 <ph_add_child_node+0x50>
10000a8c:	2a00      	cmp	r2, #0
10000a8e:	d01d      	beq.n	10000acc <ph_add_child_node+0x5c>
10000a90:	4291      	cmp	r1, r2
10000a92:	d021      	beq.n	10000ad8 <ph_add_child_node+0x68>
10000a94:	2a00      	cmp	r2, #0
10000a96:	d025      	beq.n	10000ae4 <ph_add_child_node+0x74>
10000a98:	7b04      	ldrb	r4, [r0, #12]
10000a9a:	42a2      	cmp	r2, r4
10000a9c:	d822      	bhi.n	10000ae4 <ph_add_child_node+0x74>
10000a9e:	6804      	ldr	r4, [r0, #0]
10000aa0:	0050      	lsls	r0, r2, #1
10000aa2:	1880      	adds	r0, r0, r2
10000aa4:	3803      	subs	r0, #3
10000aa6:	1820      	adds	r0, r4, r0
10000aa8:	7081      	strb	r1, [r0, #2]
10000aaa:	7819      	ldrb	r1, [r3, #0]
10000aac:	2900      	cmp	r1, #0
10000aae:	d11f      	bne.n	10000af0 <ph_add_child_node+0x80>
10000ab0:	701a      	strb	r2, [r3, #0]
10000ab2:	bd10      	pop	{r4, pc}
10000ab4:	4b10      	ldr	r3, [pc, #64]	; (10000af8 <ph_add_child_node+0x88>)
10000ab6:	4a11      	ldr	r2, [pc, #68]	; (10000afc <ph_add_child_node+0x8c>)
10000ab8:	2168      	movs	r1, #104	; 0x68
10000aba:	4811      	ldr	r0, [pc, #68]	; (10000b00 <ph_add_child_node+0x90>)
10000abc:	f001 fadc 	bl	10002078 <__assert_func>
10000ac0:	4b10      	ldr	r3, [pc, #64]	; (10000b04 <ph_add_child_node+0x94>)
10000ac2:	4a11      	ldr	r2, [pc, #68]	; (10000b08 <ph_add_child_node+0x98>)
10000ac4:	316f      	adds	r1, #111	; 0x6f
10000ac6:	480e      	ldr	r0, [pc, #56]	; (10000b00 <ph_add_child_node+0x90>)
10000ac8:	f001 fad6 	bl	10002078 <__assert_func>
10000acc:	4b0f      	ldr	r3, [pc, #60]	; (10000b0c <ph_add_child_node+0x9c>)
10000ace:	4a0e      	ldr	r2, [pc, #56]	; (10000b08 <ph_add_child_node+0x98>)
10000ad0:	2170      	movs	r1, #112	; 0x70
10000ad2:	480b      	ldr	r0, [pc, #44]	; (10000b00 <ph_add_child_node+0x90>)
10000ad4:	f001 fad0 	bl	10002078 <__assert_func>
10000ad8:	4b0d      	ldr	r3, [pc, #52]	; (10000b10 <ph_add_child_node+0xa0>)
10000ada:	4a0b      	ldr	r2, [pc, #44]	; (10000b08 <ph_add_child_node+0x98>)
10000adc:	2171      	movs	r1, #113	; 0x71
10000ade:	4808      	ldr	r0, [pc, #32]	; (10000b00 <ph_add_child_node+0x90>)
10000ae0:	f001 faca 	bl	10002078 <__assert_func>
10000ae4:	4b04      	ldr	r3, [pc, #16]	; (10000af8 <ph_add_child_node+0x88>)
10000ae6:	4a05      	ldr	r2, [pc, #20]	; (10000afc <ph_add_child_node+0x8c>)
10000ae8:	2168      	movs	r1, #104	; 0x68
10000aea:	4805      	ldr	r0, [pc, #20]	; (10000b00 <ph_add_child_node+0x90>)
10000aec:	f001 fac4 	bl	10002078 <__assert_func>
10000af0:	7041      	strb	r1, [r0, #1]
10000af2:	701a      	strb	r2, [r3, #0]
10000af4:	e7dd      	b.n	10000ab2 <ph_add_child_node+0x42>
10000af6:	46c0      	nop			; (mov r8, r8)
10000af8:	100077e8 	.word	0x100077e8
10000afc:	10007a88 	.word	0x10007a88
10000b00:	10007804 	.word	0x10007804
10000b04:	10007844 	.word	0x10007844
10000b08:	10007a64 	.word	0x10007a64
10000b0c:	10007850 	.word	0x10007850
10000b10:	1000785c 	.word	0x1000785c

10000b14 <ph_merge_nodes>:
10000b14:	b570      	push	{r4, r5, r6, lr}
10000b16:	0006      	movs	r6, r0
10000b18:	000d      	movs	r5, r1
10000b1a:	0014      	movs	r4, r2
10000b1c:	2900      	cmp	r1, #0
10000b1e:	d014      	beq.n	10000b4a <ph_merge_nodes+0x36>
10000b20:	2a00      	cmp	r2, #0
10000b22:	d014      	beq.n	10000b4e <ph_merge_nodes+0x3a>
10000b24:	6880      	ldr	r0, [r0, #8]
10000b26:	6873      	ldr	r3, [r6, #4]
10000b28:	4798      	blx	r3
10000b2a:	2800      	cmp	r0, #0
10000b2c:	d006      	beq.n	10000b3c <ph_merge_nodes+0x28>
10000b2e:	0022      	movs	r2, r4
10000b30:	0029      	movs	r1, r5
10000b32:	0030      	movs	r0, r6
10000b34:	f7ff ff9c 	bl	10000a70 <ph_add_child_node>
10000b38:	0028      	movs	r0, r5
10000b3a:	e007      	b.n	10000b4c <ph_merge_nodes+0x38>
10000b3c:	002a      	movs	r2, r5
10000b3e:	0021      	movs	r1, r4
10000b40:	0030      	movs	r0, r6
10000b42:	f7ff ff95 	bl	10000a70 <ph_add_child_node>
10000b46:	0020      	movs	r0, r4
10000b48:	e000      	b.n	10000b4c <ph_merge_nodes+0x38>
10000b4a:	0010      	movs	r0, r2
10000b4c:	bd70      	pop	{r4, r5, r6, pc}
10000b4e:	0008      	movs	r0, r1
10000b50:	e7fc      	b.n	10000b4c <ph_merge_nodes+0x38>
	...

10000b54 <add_alarm_under_lock>:
10000b54:	b5f0      	push	{r4, r5, r6, r7, lr}
10000b56:	b083      	sub	sp, #12
10000b58:	0005      	movs	r5, r0
10000b5a:	9200      	str	r2, [sp, #0]
10000b5c:	9301      	str	r3, [sp, #4]
10000b5e:	ab0a      	add	r3, sp, #40	; 0x28
10000b60:	781c      	ldrb	r4, [r3, #0]
10000b62:	ab0b      	add	r3, sp, #44	; 0x2c
10000b64:	781f      	ldrb	r7, [r3, #0]
10000b66:	2c00      	cmp	r4, #0
10000b68:	d026      	beq.n	10000bb8 <add_alarm_under_lock+0x64>
10000b6a:	6803      	ldr	r3, [r0, #0]
10000b6c:	7b5a      	ldrb	r2, [r3, #13]
10000b6e:	4294      	cmp	r4, r2
10000b70:	d107      	bne.n	10000b82 <add_alarm_under_lock+0x2e>
10000b72:	2301      	movs	r3, #1
10000b74:	2b00      	cmp	r3, #0
10000b76:	d119      	bne.n	10000bac <add_alarm_under_lock+0x58>
10000b78:	2c00      	cmp	r4, #0
10000b7a:	d13b      	bne.n	10000bf4 <add_alarm_under_lock+0xa0>
10000b7c:	0020      	movs	r0, r4
10000b7e:	b003      	add	sp, #12
10000b80:	bdf0      	pop	{r4, r5, r6, r7, pc}
10000b82:	2c00      	cmp	r4, #0
10000b84:	d00c      	beq.n	10000ba0 <add_alarm_under_lock+0x4c>
10000b86:	7b1a      	ldrb	r2, [r3, #12]
10000b88:	4294      	cmp	r4, r2
10000b8a:	d809      	bhi.n	10000ba0 <add_alarm_under_lock+0x4c>
10000b8c:	681a      	ldr	r2, [r3, #0]
10000b8e:	0063      	lsls	r3, r4, #1
10000b90:	191b      	adds	r3, r3, r4
10000b92:	3b03      	subs	r3, #3
10000b94:	18d3      	adds	r3, r2, r3
10000b96:	789b      	ldrb	r3, [r3, #2]
10000b98:	2b00      	cmp	r3, #0
10000b9a:	d0eb      	beq.n	10000b74 <add_alarm_under_lock+0x20>
10000b9c:	2301      	movs	r3, #1
10000b9e:	e7e9      	b.n	10000b74 <add_alarm_under_lock+0x20>
10000ba0:	4b3e      	ldr	r3, [pc, #248]	; (10000c9c <add_alarm_under_lock+0x148>)
10000ba2:	4a3f      	ldr	r2, [pc, #252]	; (10000ca0 <add_alarm_under_lock+0x14c>)
10000ba4:	2168      	movs	r1, #104	; 0x68
10000ba6:	483f      	ldr	r0, [pc, #252]	; (10000ca4 <add_alarm_under_lock+0x150>)
10000ba8:	f001 fa66 	bl	10002078 <__assert_func>
10000bac:	4b3e      	ldr	r3, [pc, #248]	; (10000ca8 <add_alarm_under_lock+0x154>)
10000bae:	4a3f      	ldr	r2, [pc, #252]	; (10000cac <add_alarm_under_lock+0x158>)
10000bb0:	2167      	movs	r1, #103	; 0x67
10000bb2:	483f      	ldr	r0, [pc, #252]	; (10000cb0 <add_alarm_under_lock+0x15c>)
10000bb4:	f001 fa60 	bl	10002078 <__assert_func>
10000bb8:	6803      	ldr	r3, [r0, #0]
10000bba:	7b9c      	ldrb	r4, [r3, #14]
10000bbc:	2c00      	cmp	r4, #0
10000bbe:	d0db      	beq.n	10000b78 <add_alarm_under_lock+0x24>
10000bc0:	d012      	beq.n	10000be8 <add_alarm_under_lock+0x94>
10000bc2:	7b1a      	ldrb	r2, [r3, #12]
10000bc4:	4294      	cmp	r4, r2
10000bc6:	d80f      	bhi.n	10000be8 <add_alarm_under_lock+0x94>
10000bc8:	0062      	lsls	r2, r4, #1
10000bca:	1912      	adds	r2, r2, r4
10000bcc:	3a03      	subs	r2, #3
10000bce:	6819      	ldr	r1, [r3, #0]
10000bd0:	468c      	mov	ip, r1
10000bd2:	4462      	add	r2, ip
10000bd4:	7851      	ldrb	r1, [r2, #1]
10000bd6:	7399      	strb	r1, [r3, #14]
10000bd8:	2900      	cmp	r1, #0
10000bda:	d100      	bne.n	10000bde <add_alarm_under_lock+0x8a>
10000bdc:	73d9      	strb	r1, [r3, #15]
10000bde:	2300      	movs	r3, #0
10000be0:	7093      	strb	r3, [r2, #2]
10000be2:	7053      	strb	r3, [r2, #1]
10000be4:	7013      	strb	r3, [r2, #0]
10000be6:	e7c7      	b.n	10000b78 <add_alarm_under_lock+0x24>
10000be8:	4b2c      	ldr	r3, [pc, #176]	; (10000c9c <add_alarm_under_lock+0x148>)
10000bea:	4a2d      	ldr	r2, [pc, #180]	; (10000ca0 <add_alarm_under_lock+0x14c>)
10000bec:	2168      	movs	r1, #104	; 0x68
10000bee:	482d      	ldr	r0, [pc, #180]	; (10000ca4 <add_alarm_under_lock+0x150>)
10000bf0:	f001 fa42 	bl	10002078 <__assert_func>
10000bf4:	2c00      	cmp	r4, #0
10000bf6:	d03a      	beq.n	10000c6e <add_alarm_under_lock+0x11a>
10000bf8:	682b      	ldr	r3, [r5, #0]
10000bfa:	7b1b      	ldrb	r3, [r3, #12]
10000bfc:	429c      	cmp	r4, r3
10000bfe:	d836      	bhi.n	10000c6e <add_alarm_under_lock+0x11a>
10000c00:	4b2c      	ldr	r3, [pc, #176]	; (10000cb4 <add_alarm_under_lock+0x160>)
10000c02:	18e3      	adds	r3, r4, r3
10000c04:	011b      	lsls	r3, r3, #4
10000c06:	68aa      	ldr	r2, [r5, #8]
10000c08:	4694      	mov	ip, r2
10000c0a:	4463      	add	r3, ip
10000c0c:	9a00      	ldr	r2, [sp, #0]
10000c0e:	601a      	str	r2, [r3, #0]
10000c10:	9a01      	ldr	r2, [sp, #4]
10000c12:	605a      	str	r2, [r3, #4]
10000c14:	9a08      	ldr	r2, [sp, #32]
10000c16:	609a      	str	r2, [r3, #8]
10000c18:	9a09      	ldr	r2, [sp, #36]	; 0x24
10000c1a:	60da      	str	r2, [r3, #12]
10000c1c:	682e      	ldr	r6, [r5, #0]
10000c1e:	2c00      	cmp	r4, #0
10000c20:	d02b      	beq.n	10000c7a <add_alarm_under_lock+0x126>
10000c22:	d030      	beq.n	10000c86 <add_alarm_under_lock+0x132>
10000c24:	7b33      	ldrb	r3, [r6, #12]
10000c26:	429c      	cmp	r4, r3
10000c28:	d82d      	bhi.n	10000c86 <add_alarm_under_lock+0x132>
10000c2a:	0063      	lsls	r3, r4, #1
10000c2c:	191b      	adds	r3, r3, r4
10000c2e:	3b03      	subs	r3, #3
10000c30:	6832      	ldr	r2, [r6, #0]
10000c32:	4694      	mov	ip, r2
10000c34:	4463      	add	r3, ip
10000c36:	2200      	movs	r2, #0
10000c38:	709a      	strb	r2, [r3, #2]
10000c3a:	705a      	strb	r2, [r3, #1]
10000c3c:	701a      	strb	r2, [r3, #0]
10000c3e:	7b71      	ldrb	r1, [r6, #13]
10000c40:	0022      	movs	r2, r4
10000c42:	0030      	movs	r0, r6
10000c44:	f7ff ff66 	bl	10000b14 <ph_merge_nodes>
10000c48:	7370      	strb	r0, [r6, #13]
10000c4a:	4284      	cmp	r4, r0
10000c4c:	d000      	beq.n	10000c50 <add_alarm_under_lock+0xfc>
10000c4e:	e795      	b.n	10000b7c <add_alarm_under_lock+0x28>
10000c50:	7d28      	ldrb	r0, [r5, #20]
10000c52:	9a00      	ldr	r2, [sp, #0]
10000c54:	9b01      	ldr	r3, [sp, #4]
10000c56:	f000 fcfd 	bl	10001654 <hardware_alarm_set_target>
10000c5a:	1e06      	subs	r6, r0, #0
10000c5c:	d001      	beq.n	10000c62 <add_alarm_under_lock+0x10e>
10000c5e:	2f00      	cmp	r7, #0
10000c60:	d017      	beq.n	10000c92 <add_alarm_under_lock+0x13e>
10000c62:	9b0c      	ldr	r3, [sp, #48]	; 0x30
10000c64:	2b00      	cmp	r3, #0
10000c66:	d100      	bne.n	10000c6a <add_alarm_under_lock+0x116>
10000c68:	e788      	b.n	10000b7c <add_alarm_under_lock+0x28>
10000c6a:	701e      	strb	r6, [r3, #0]
10000c6c:	e786      	b.n	10000b7c <add_alarm_under_lock+0x28>
10000c6e:	4b12      	ldr	r3, [pc, #72]	; (10000cb8 <add_alarm_under_lock+0x164>)
10000c70:	4a12      	ldr	r2, [pc, #72]	; (10000cbc <add_alarm_under_lock+0x168>)
10000c72:	213c      	movs	r1, #60	; 0x3c
10000c74:	480e      	ldr	r0, [pc, #56]	; (10000cb0 <add_alarm_under_lock+0x15c>)
10000c76:	f001 f9ff 	bl	10002078 <__assert_func>
10000c7a:	4b11      	ldr	r3, [pc, #68]	; (10000cc0 <add_alarm_under_lock+0x16c>)
10000c7c:	4a11      	ldr	r2, [pc, #68]	; (10000cc4 <add_alarm_under_lock+0x170>)
10000c7e:	21a5      	movs	r1, #165	; 0xa5
10000c80:	4808      	ldr	r0, [pc, #32]	; (10000ca4 <add_alarm_under_lock+0x150>)
10000c82:	f001 f9f9 	bl	10002078 <__assert_func>
10000c86:	4b05      	ldr	r3, [pc, #20]	; (10000c9c <add_alarm_under_lock+0x148>)
10000c88:	4a05      	ldr	r2, [pc, #20]	; (10000ca0 <add_alarm_under_lock+0x14c>)
10000c8a:	2168      	movs	r1, #104	; 0x68
10000c8c:	4805      	ldr	r0, [pc, #20]	; (10000ca4 <add_alarm_under_lock+0x150>)
10000c8e:	f001 f9f3 	bl	10002078 <__assert_func>
10000c92:	6828      	ldr	r0, [r5, #0]
10000c94:	0021      	movs	r1, r4
10000c96:	f000 ff15 	bl	10001ac4 <ph_remove_and_free_node>
10000c9a:	e7e2      	b.n	10000c62 <add_alarm_under_lock+0x10e>
10000c9c:	100077e8 	.word	0x100077e8
10000ca0:	10007a88 	.word	0x10007a88
10000ca4:	10007804 	.word	0x10007804
10000ca8:	10007874 	.word	0x10007874
10000cac:	10007a94 	.word	0x10007a94
10000cb0:	10007794 	.word	0x10007794
10000cb4:	0fffffff 	.word	0x0fffffff
10000cb8:	100077c4 	.word	0x100077c4
10000cbc:	10007a1c 	.word	0x10007a1c
10000cc0:	10007790 	.word	0x10007790
10000cc4:	10007a78 	.word	0x10007a78

10000cc8 <alarm_pool_alarm_callback>:
10000cc8:	b5f0      	push	{r4, r5, r6, r7, lr}
10000cca:	46de      	mov	lr, fp
10000ccc:	4657      	mov	r7, sl
10000cce:	464e      	mov	r6, r9
10000cd0:	4645      	mov	r5, r8
10000cd2:	b5e0      	push	{r5, r6, r7, lr}
10000cd4:	b08b      	sub	sp, #44	; 0x2c
10000cd6:	9009      	str	r0, [sp, #36]	; 0x24
10000cd8:	2300      	movs	r3, #0
10000cda:	9308      	str	r3, [sp, #32]
10000cdc:	0082      	lsls	r2, r0, #2
10000cde:	4bb5      	ldr	r3, [pc, #724]	; (10000fb4 <alarm_pool_alarm_callback+0x2ec>)
10000ce0:	58d6      	ldr	r6, [r2, r3]
10000ce2:	0037      	movs	r7, r6
10000ce4:	e052      	b.n	10000d8c <alarm_pool_alarm_callback+0xc4>
10000ce6:	4bb4      	ldr	r3, [pc, #720]	; (10000fb8 <alarm_pool_alarm_callback+0x2f0>)
10000ce8:	4ab4      	ldr	r2, [pc, #720]	; (10000fbc <alarm_pool_alarm_callback+0x2f4>)
10000cea:	213f      	movs	r1, #63	; 0x3f
10000cec:	48b4      	ldr	r0, [pc, #720]	; (10000fc0 <alarm_pool_alarm_callback+0x2f8>)
10000cee:	f001 f9c3 	bl	10002078 <__assert_func>
10000cf2:	4bb4      	ldr	r3, [pc, #720]	; (10000fc4 <alarm_pool_alarm_callback+0x2fc>)
10000cf4:	4ab4      	ldr	r2, [pc, #720]	; (10000fc8 <alarm_pool_alarm_callback+0x300>)
10000cf6:	213c      	movs	r1, #60	; 0x3c
10000cf8:	48b4      	ldr	r0, [pc, #720]	; (10000fcc <alarm_pool_alarm_callback+0x304>)
10000cfa:	f001 f9bd 	bl	10002078 <__assert_func>
10000cfe:	2900      	cmp	r1, #0
10000d00:	d101      	bne.n	10000d06 <alarm_pool_alarm_callback+0x3e>
10000d02:	2800      	cmp	r0, #0
10000d04:	d169      	bne.n	10000dda <alarm_pool_alarm_callback+0x112>
10000d06:	2100      	movs	r1, #0
10000d08:	4640      	mov	r0, r8
10000d0a:	f000 fed1 	bl	10001ab0 <ph_remove_head>
10000d0e:	42a0      	cmp	r0, r4
10000d10:	d119      	bne.n	10000d46 <alarm_pool_alarm_callback+0x7e>
10000d12:	682a      	ldr	r2, [r5, #0]
10000d14:	686b      	ldr	r3, [r5, #4]
10000d16:	9206      	str	r2, [sp, #24]
10000d18:	9307      	str	r3, [sp, #28]
10000d1a:	68ab      	ldr	r3, [r5, #8]
10000d1c:	4698      	mov	r8, r3
10000d1e:	68eb      	ldr	r3, [r5, #12]
10000d20:	469a      	mov	sl, r3
10000d22:	4643      	mov	r3, r8
10000d24:	2b00      	cmp	r3, #0
10000d26:	d014      	beq.n	10000d52 <alarm_pool_alarm_callback+0x8a>
10000d28:	2c00      	cmp	r4, #0
10000d2a:	d018      	beq.n	10000d5e <alarm_pool_alarm_callback+0x96>
10000d2c:	683b      	ldr	r3, [r7, #0]
10000d2e:	7b1b      	ldrb	r3, [r3, #12]
10000d30:	429c      	cmp	r4, r3
10000d32:	d814      	bhi.n	10000d5e <alarm_pool_alarm_callback+0x96>
10000d34:	1e63      	subs	r3, r4, #1
10000d36:	68fa      	ldr	r2, [r7, #12]
10000d38:	5cd3      	ldrb	r3, [r2, r3]
10000d3a:	9308      	str	r3, [sp, #32]
10000d3c:	021b      	lsls	r3, r3, #8
10000d3e:	4318      	orrs	r0, r3
10000d40:	6138      	str	r0, [r7, #16]
10000d42:	2000      	movs	r0, #0
10000d44:	e015      	b.n	10000d72 <alarm_pool_alarm_callback+0xaa>
10000d46:	4ba2      	ldr	r3, [pc, #648]	; (10000fd0 <alarm_pool_alarm_callback+0x308>)
10000d48:	4aa2      	ldr	r2, [pc, #648]	; (10000fd4 <alarm_pool_alarm_callback+0x30c>)
10000d4a:	218e      	movs	r1, #142	; 0x8e
10000d4c:	489f      	ldr	r0, [pc, #636]	; (10000fcc <alarm_pool_alarm_callback+0x304>)
10000d4e:	f001 f993 	bl	10002078 <__assert_func>
10000d52:	4ba1      	ldr	r3, [pc, #644]	; (10000fd8 <alarm_pool_alarm_callback+0x310>)
10000d54:	4a9f      	ldr	r2, [pc, #636]	; (10000fd4 <alarm_pool_alarm_callback+0x30c>)
10000d56:	2192      	movs	r1, #146	; 0x92
10000d58:	489c      	ldr	r0, [pc, #624]	; (10000fcc <alarm_pool_alarm_callback+0x304>)
10000d5a:	f001 f98d 	bl	10002078 <__assert_func>
10000d5e:	4b99      	ldr	r3, [pc, #612]	; (10000fc4 <alarm_pool_alarm_callback+0x2fc>)
10000d60:	4a9e      	ldr	r2, [pc, #632]	; (10000fdc <alarm_pool_alarm_callback+0x314>)
10000d62:	2141      	movs	r1, #65	; 0x41
10000d64:	4899      	ldr	r0, [pc, #612]	; (10000fcc <alarm_pool_alarm_callback+0x304>)
10000d66:	f001 f987 	bl	10002078 <__assert_func>
10000d6a:	2300      	movs	r3, #0
10000d6c:	469a      	mov	sl, r3
10000d6e:	4698      	mov	r8, r3
10000d70:	2000      	movs	r0, #0
10000d72:	687b      	ldr	r3, [r7, #4]
10000d74:	f3bf 8f5f 	dmb	sy
10000d78:	2200      	movs	r2, #0
10000d7a:	601a      	str	r2, [r3, #0]
10000d7c:	f386 8810 	msr	PRIMASK, r6
10000d80:	4643      	mov	r3, r8
10000d82:	2b00      	cmp	r3, #0
10000d84:	d132      	bne.n	10000dec <alarm_pool_alarm_callback+0x124>
10000d86:	2800      	cmp	r0, #0
10000d88:	d100      	bne.n	10000d8c <alarm_pool_alarm_callback+0xc4>
10000d8a:	e10c      	b.n	10000fa6 <alarm_pool_alarm_callback+0x2de>
10000d8c:	f000 fbfa 	bl	10001584 <time_us_64>
10000d90:	0002      	movs	r2, r0
10000d92:	1e0b      	subs	r3, r1, #0
10000d94:	dba7      	blt.n	10000ce6 <alarm_pool_alarm_callback+0x1e>
10000d96:	2000      	movs	r0, #0
10000d98:	2100      	movs	r1, #0
10000d9a:	9006      	str	r0, [sp, #24]
10000d9c:	9107      	str	r1, [sp, #28]
10000d9e:	6878      	ldr	r0, [r7, #4]
10000da0:	f3ef 8610 	mrs	r6, PRIMASK
10000da4:	b672      	cpsid	i
10000da6:	6801      	ldr	r1, [r0, #0]
10000da8:	2900      	cmp	r1, #0
10000daa:	d0fc      	beq.n	10000da6 <alarm_pool_alarm_callback+0xde>
10000dac:	f3bf 8f5f 	dmb	sy
10000db0:	6839      	ldr	r1, [r7, #0]
10000db2:	4688      	mov	r8, r1
10000db4:	7b4c      	ldrb	r4, [r1, #13]
10000db6:	2c00      	cmp	r4, #0
10000db8:	d0d7      	beq.n	10000d6a <alarm_pool_alarm_callback+0xa2>
10000dba:	d09a      	beq.n	10000cf2 <alarm_pool_alarm_callback+0x2a>
10000dbc:	7b09      	ldrb	r1, [r1, #12]
10000dbe:	428c      	cmp	r4, r1
10000dc0:	d897      	bhi.n	10000cf2 <alarm_pool_alarm_callback+0x2a>
10000dc2:	4987      	ldr	r1, [pc, #540]	; (10000fe0 <alarm_pool_alarm_callback+0x318>)
10000dc4:	1865      	adds	r5, r4, r1
10000dc6:	012d      	lsls	r5, r5, #4
10000dc8:	68b9      	ldr	r1, [r7, #8]
10000dca:	468c      	mov	ip, r1
10000dcc:	4465      	add	r5, ip
10000dce:	6828      	ldr	r0, [r5, #0]
10000dd0:	6869      	ldr	r1, [r5, #4]
10000dd2:	1a80      	subs	r0, r0, r2
10000dd4:	4199      	sbcs	r1, r3
10000dd6:	2900      	cmp	r1, #0
10000dd8:	dd91      	ble.n	10000cfe <alarm_pool_alarm_callback+0x36>
10000dda:	682a      	ldr	r2, [r5, #0]
10000ddc:	686b      	ldr	r3, [r5, #4]
10000dde:	9809      	ldr	r0, [sp, #36]	; 0x24
10000de0:	f000 fc38 	bl	10001654 <hardware_alarm_set_target>
10000de4:	2300      	movs	r3, #0
10000de6:	469a      	mov	sl, r3
10000de8:	4698      	mov	r8, r3
10000dea:	e7c2      	b.n	10000d72 <alarm_pool_alarm_callback+0xaa>
10000dec:	9b08      	ldr	r3, [sp, #32]
10000dee:	021b      	lsls	r3, r3, #8
10000df0:	4323      	orrs	r3, r4
10000df2:	4699      	mov	r9, r3
10000df4:	4651      	mov	r1, sl
10000df6:	0018      	movs	r0, r3
10000df8:	47c0      	blx	r8
10000dfa:	0005      	movs	r5, r0
10000dfc:	000e      	movs	r6, r1
10000dfe:	687a      	ldr	r2, [r7, #4]
10000e00:	f3ef 8b10 	mrs	fp, PRIMASK
10000e04:	b672      	cpsid	i
10000e06:	6813      	ldr	r3, [r2, #0]
10000e08:	4259      	negs	r1, r3
10000e0a:	414b      	adcs	r3, r1
10000e0c:	b2d9      	uxtb	r1, r3
10000e0e:	2b00      	cmp	r3, #0
10000e10:	d1f9      	bne.n	10000e06 <alarm_pool_alarm_callback+0x13e>
10000e12:	f3bf 8f5f 	dmb	sy
10000e16:	2e00      	cmp	r6, #0
10000e18:	db1e      	blt.n	10000e58 <alarm_pool_alarm_callback+0x190>
10000e1a:	2e00      	cmp	r6, #0
10000e1c:	dd46      	ble.n	10000eac <alarm_pool_alarm_callback+0x1e4>
10000e1e:	693b      	ldr	r3, [r7, #16]
10000e20:	2b00      	cmp	r3, #0
10000e22:	d047      	beq.n	10000eb4 <alarm_pool_alarm_callback+0x1ec>
10000e24:	454b      	cmp	r3, r9
10000e26:	d16d      	bne.n	10000f04 <alarm_pool_alarm_callback+0x23c>
10000e28:	f000 fbac 	bl	10001584 <time_us_64>
10000e2c:	0002      	movs	r2, r0
10000e2e:	1e0b      	subs	r3, r1, #0
10000e30:	db6e      	blt.n	10000f10 <alarm_pool_alarm_callback+0x248>
10000e32:	1952      	adds	r2, r2, r5
10000e34:	4173      	adcs	r3, r6
10000e36:	2b00      	cmp	r3, #0
10000e38:	db70      	blt.n	10000f1c <alarm_pool_alarm_callback+0x254>
10000e3a:	2b00      	cmp	r3, #0
10000e3c:	db72      	blt.n	10000f24 <alarm_pool_alarm_callback+0x25c>
10000e3e:	2100      	movs	r1, #0
10000e40:	9104      	str	r1, [sp, #16]
10000e42:	3101      	adds	r1, #1
10000e44:	9103      	str	r1, [sp, #12]
10000e46:	9402      	str	r4, [sp, #8]
10000e48:	4651      	mov	r1, sl
10000e4a:	9101      	str	r1, [sp, #4]
10000e4c:	4641      	mov	r1, r8
10000e4e:	9100      	str	r1, [sp, #0]
10000e50:	0038      	movs	r0, r7
10000e52:	f7ff fe7f 	bl	10000b54 <add_alarm_under_lock>
10000e56:	e04c      	b.n	10000ef2 <alarm_pool_alarm_callback+0x22a>
10000e58:	693b      	ldr	r3, [r7, #16]
10000e5a:	2b00      	cmp	r3, #0
10000e5c:	d0dd      	beq.n	10000e1a <alarm_pool_alarm_callback+0x152>
10000e5e:	454b      	cmp	r3, r9
10000e60:	d114      	bne.n	10000e8c <alarm_pool_alarm_callback+0x1c4>
10000e62:	9a06      	ldr	r2, [sp, #24]
10000e64:	9b07      	ldr	r3, [sp, #28]
10000e66:	1b52      	subs	r2, r2, r5
10000e68:	41b3      	sbcs	r3, r6
10000e6a:	2b00      	cmp	r3, #0
10000e6c:	db14      	blt.n	10000e98 <alarm_pool_alarm_callback+0x1d0>
10000e6e:	2b00      	cmp	r3, #0
10000e70:	db16      	blt.n	10000ea0 <alarm_pool_alarm_callback+0x1d8>
10000e72:	2100      	movs	r1, #0
10000e74:	9104      	str	r1, [sp, #16]
10000e76:	3101      	adds	r1, #1
10000e78:	9103      	str	r1, [sp, #12]
10000e7a:	9402      	str	r4, [sp, #8]
10000e7c:	4651      	mov	r1, sl
10000e7e:	9101      	str	r1, [sp, #4]
10000e80:	4641      	mov	r1, r8
10000e82:	9100      	str	r1, [sp, #0]
10000e84:	0038      	movs	r0, r7
10000e86:	f7ff fe65 	bl	10000b54 <add_alarm_under_lock>
10000e8a:	e032      	b.n	10000ef2 <alarm_pool_alarm_callback+0x22a>
10000e8c:	4b55      	ldr	r3, [pc, #340]	; (10000fe4 <alarm_pool_alarm_callback+0x31c>)
10000e8e:	4a51      	ldr	r2, [pc, #324]	; (10000fd4 <alarm_pool_alarm_callback+0x30c>)
10000e90:	21a1      	movs	r1, #161	; 0xa1
10000e92:	484e      	ldr	r0, [pc, #312]	; (10000fcc <alarm_pool_alarm_callback+0x304>)
10000e94:	f001 f8f0 	bl	10002078 <__assert_func>
10000e98:	2201      	movs	r2, #1
10000e9a:	4252      	negs	r2, r2
10000e9c:	4b52      	ldr	r3, [pc, #328]	; (10000fe8 <alarm_pool_alarm_callback+0x320>)
10000e9e:	e7e6      	b.n	10000e6e <alarm_pool_alarm_callback+0x1a6>
10000ea0:	4b45      	ldr	r3, [pc, #276]	; (10000fb8 <alarm_pool_alarm_callback+0x2f0>)
10000ea2:	4a46      	ldr	r2, [pc, #280]	; (10000fbc <alarm_pool_alarm_callback+0x2f4>)
10000ea4:	213f      	movs	r1, #63	; 0x3f
10000ea6:	4846      	ldr	r0, [pc, #280]	; (10000fc0 <alarm_pool_alarm_callback+0x2f8>)
10000ea8:	f001 f8e6 	bl	10002078 <__assert_func>
10000eac:	2e00      	cmp	r6, #0
10000eae:	d101      	bne.n	10000eb4 <alarm_pool_alarm_callback+0x1ec>
10000eb0:	2d00      	cmp	r5, #0
10000eb2:	d1b4      	bne.n	10000e1e <alarm_pool_alarm_callback+0x156>
10000eb4:	683b      	ldr	r3, [r7, #0]
10000eb6:	2c00      	cmp	r4, #0
10000eb8:	d050      	beq.n	10000f5c <alarm_pool_alarm_callback+0x294>
10000eba:	7b5a      	ldrb	r2, [r3, #13]
10000ebc:	4294      	cmp	r4, r2
10000ebe:	d137      	bne.n	10000f30 <alarm_pool_alarm_callback+0x268>
10000ec0:	2101      	movs	r1, #1
10000ec2:	2900      	cmp	r1, #0
10000ec4:	d14a      	bne.n	10000f5c <alarm_pool_alarm_callback+0x294>
10000ec6:	7bda      	ldrb	r2, [r3, #15]
10000ec8:	2a00      	cmp	r2, #0
10000eca:	d14d      	bne.n	10000f68 <alarm_pool_alarm_callback+0x2a0>
10000ecc:	7b9a      	ldrb	r2, [r3, #14]
10000ece:	2a00      	cmp	r2, #0
10000ed0:	d103      	bne.n	10000eda <alarm_pool_alarm_callback+0x212>
10000ed2:	7bda      	ldrb	r2, [r3, #15]
10000ed4:	2a00      	cmp	r2, #0
10000ed6:	d15a      	bne.n	10000f8e <alarm_pool_alarm_callback+0x2c6>
10000ed8:	739c      	strb	r4, [r3, #14]
10000eda:	73dc      	strb	r4, [r3, #15]
10000edc:	2c00      	cmp	r4, #0
10000ede:	d05c      	beq.n	10000f9a <alarm_pool_alarm_callback+0x2d2>
10000ee0:	683b      	ldr	r3, [r7, #0]
10000ee2:	7b1b      	ldrb	r3, [r3, #12]
10000ee4:	429c      	cmp	r4, r3
10000ee6:	d858      	bhi.n	10000f9a <alarm_pool_alarm_callback+0x2d2>
10000ee8:	68fa      	ldr	r2, [r7, #12]
10000eea:	3c01      	subs	r4, #1
10000eec:	5d13      	ldrb	r3, [r2, r4]
10000eee:	3301      	adds	r3, #1
10000ef0:	5513      	strb	r3, [r2, r4]
10000ef2:	2300      	movs	r3, #0
10000ef4:	613b      	str	r3, [r7, #16]
10000ef6:	687a      	ldr	r2, [r7, #4]
10000ef8:	f3bf 8f5f 	dmb	sy
10000efc:	6013      	str	r3, [r2, #0]
10000efe:	f38b 8810 	msr	PRIMASK, fp
10000f02:	e743      	b.n	10000d8c <alarm_pool_alarm_callback+0xc4>
10000f04:	4b37      	ldr	r3, [pc, #220]	; (10000fe4 <alarm_pool_alarm_callback+0x31c>)
10000f06:	4a33      	ldr	r2, [pc, #204]	; (10000fd4 <alarm_pool_alarm_callback+0x30c>)
10000f08:	21a4      	movs	r1, #164	; 0xa4
10000f0a:	4830      	ldr	r0, [pc, #192]	; (10000fcc <alarm_pool_alarm_callback+0x304>)
10000f0c:	f001 f8b4 	bl	10002078 <__assert_func>
10000f10:	4b29      	ldr	r3, [pc, #164]	; (10000fb8 <alarm_pool_alarm_callback+0x2f0>)
10000f12:	4a2a      	ldr	r2, [pc, #168]	; (10000fbc <alarm_pool_alarm_callback+0x2f4>)
10000f14:	213f      	movs	r1, #63	; 0x3f
10000f16:	482a      	ldr	r0, [pc, #168]	; (10000fc0 <alarm_pool_alarm_callback+0x2f8>)
10000f18:	f001 f8ae 	bl	10002078 <__assert_func>
10000f1c:	2201      	movs	r2, #1
10000f1e:	4252      	negs	r2, r2
10000f20:	4b31      	ldr	r3, [pc, #196]	; (10000fe8 <alarm_pool_alarm_callback+0x320>)
10000f22:	e78a      	b.n	10000e3a <alarm_pool_alarm_callback+0x172>
10000f24:	4b24      	ldr	r3, [pc, #144]	; (10000fb8 <alarm_pool_alarm_callback+0x2f0>)
10000f26:	4a25      	ldr	r2, [pc, #148]	; (10000fbc <alarm_pool_alarm_callback+0x2f4>)
10000f28:	213f      	movs	r1, #63	; 0x3f
10000f2a:	4825      	ldr	r0, [pc, #148]	; (10000fc0 <alarm_pool_alarm_callback+0x2f8>)
10000f2c:	f001 f8a4 	bl	10002078 <__assert_func>
10000f30:	2c00      	cmp	r4, #0
10000f32:	d00d      	beq.n	10000f50 <alarm_pool_alarm_callback+0x288>
10000f34:	7b1a      	ldrb	r2, [r3, #12]
10000f36:	4294      	cmp	r4, r2
10000f38:	d80a      	bhi.n	10000f50 <alarm_pool_alarm_callback+0x288>
10000f3a:	0062      	lsls	r2, r4, #1
10000f3c:	1912      	adds	r2, r2, r4
10000f3e:	3a03      	subs	r2, #3
10000f40:	6818      	ldr	r0, [r3, #0]
10000f42:	4684      	mov	ip, r0
10000f44:	4462      	add	r2, ip
10000f46:	7892      	ldrb	r2, [r2, #2]
10000f48:	2a00      	cmp	r2, #0
10000f4a:	d0ba      	beq.n	10000ec2 <alarm_pool_alarm_callback+0x1fa>
10000f4c:	2101      	movs	r1, #1
10000f4e:	e7b8      	b.n	10000ec2 <alarm_pool_alarm_callback+0x1fa>
10000f50:	4b26      	ldr	r3, [pc, #152]	; (10000fec <alarm_pool_alarm_callback+0x324>)
10000f52:	4a27      	ldr	r2, [pc, #156]	; (10000ff0 <alarm_pool_alarm_callback+0x328>)
10000f54:	2168      	movs	r1, #104	; 0x68
10000f56:	4827      	ldr	r0, [pc, #156]	; (10000ff4 <alarm_pool_alarm_callback+0x32c>)
10000f58:	f001 f88e 	bl	10002078 <__assert_func>
10000f5c:	4b26      	ldr	r3, [pc, #152]	; (10000ff8 <alarm_pool_alarm_callback+0x330>)
10000f5e:	4a27      	ldr	r2, [pc, #156]	; (10000ffc <alarm_pool_alarm_callback+0x334>)
10000f60:	21f6      	movs	r1, #246	; 0xf6
10000f62:	4824      	ldr	r0, [pc, #144]	; (10000ff4 <alarm_pool_alarm_callback+0x32c>)
10000f64:	f001 f888 	bl	10002078 <__assert_func>
10000f68:	2a00      	cmp	r2, #0
10000f6a:	d00a      	beq.n	10000f82 <alarm_pool_alarm_callback+0x2ba>
10000f6c:	7b19      	ldrb	r1, [r3, #12]
10000f6e:	428a      	cmp	r2, r1
10000f70:	d807      	bhi.n	10000f82 <alarm_pool_alarm_callback+0x2ba>
10000f72:	0051      	lsls	r1, r2, #1
10000f74:	188a      	adds	r2, r1, r2
10000f76:	3a03      	subs	r2, #3
10000f78:	6819      	ldr	r1, [r3, #0]
10000f7a:	468c      	mov	ip, r1
10000f7c:	4462      	add	r2, ip
10000f7e:	7054      	strb	r4, [r2, #1]
10000f80:	e7a4      	b.n	10000ecc <alarm_pool_alarm_callback+0x204>
10000f82:	4b1a      	ldr	r3, [pc, #104]	; (10000fec <alarm_pool_alarm_callback+0x324>)
10000f84:	4a1a      	ldr	r2, [pc, #104]	; (10000ff0 <alarm_pool_alarm_callback+0x328>)
10000f86:	2168      	movs	r1, #104	; 0x68
10000f88:	481a      	ldr	r0, [pc, #104]	; (10000ff4 <alarm_pool_alarm_callback+0x32c>)
10000f8a:	f001 f875 	bl	10002078 <__assert_func>
10000f8e:	4b1c      	ldr	r3, [pc, #112]	; (10001000 <alarm_pool_alarm_callback+0x338>)
10000f90:	4a1a      	ldr	r2, [pc, #104]	; (10000ffc <alarm_pool_alarm_callback+0x334>)
10000f92:	21fb      	movs	r1, #251	; 0xfb
10000f94:	4817      	ldr	r0, [pc, #92]	; (10000ff4 <alarm_pool_alarm_callback+0x32c>)
10000f96:	f001 f86f 	bl	10002078 <__assert_func>
10000f9a:	4b0a      	ldr	r3, [pc, #40]	; (10000fc4 <alarm_pool_alarm_callback+0x2fc>)
10000f9c:	4a0f      	ldr	r2, [pc, #60]	; (10000fdc <alarm_pool_alarm_callback+0x314>)
10000f9e:	2141      	movs	r1, #65	; 0x41
10000fa0:	480a      	ldr	r0, [pc, #40]	; (10000fcc <alarm_pool_alarm_callback+0x304>)
10000fa2:	f001 f869 	bl	10002078 <__assert_func>
10000fa6:	b00b      	add	sp, #44	; 0x2c
10000fa8:	bcf0      	pop	{r4, r5, r6, r7}
10000faa:	46bb      	mov	fp, r7
10000fac:	46b2      	mov	sl, r6
10000fae:	46a9      	mov	r9, r5
10000fb0:	46a0      	mov	r8, r4
10000fb2:	bdf0      	pop	{r4, r5, r6, r7, pc}
10000fb4:	20000ec4 	.word	0x20000ec4
10000fb8:	100076cc 	.word	0x100076cc
10000fbc:	100079e8 	.word	0x100079e8
10000fc0:	100076e8 	.word	0x100076e8
10000fc4:	100077c4 	.word	0x100077c4
10000fc8:	10007a1c 	.word	0x10007a1c
10000fcc:	10007794 	.word	0x10007794
10000fd0:	1000789c 	.word	0x1000789c
10000fd4:	10007a00 	.word	0x10007a00
10000fd8:	100078b4 	.word	0x100078b4
10000fdc:	10007a40 	.word	0x10007a40
10000fe0:	0fffffff 	.word	0x0fffffff
10000fe4:	100078c0 	.word	0x100078c0
10000fe8:	7fffffff 	.word	0x7fffffff
10000fec:	100077e8 	.word	0x100077e8
10000ff0:	10007a88 	.word	0x10007a88
10000ff4:	10007804 	.word	0x10007804
10000ff8:	100078fc 	.word	0x100078fc
10000ffc:	10007a54 	.word	0x10007a54
10001000:	10007920 	.word	0x10007920

10001004 <alarm_pool_init_default>:
10001004:	b510      	push	{r4, lr}
10001006:	4b0c      	ldr	r3, [pc, #48]	; (10001038 <alarm_pool_init_default+0x34>)
10001008:	685b      	ldr	r3, [r3, #4]
1000100a:	2b00      	cmp	r3, #0
1000100c:	d004      	beq.n	10001018 <alarm_pool_init_default+0x14>
1000100e:	210a      	movs	r1, #10
10001010:	480a      	ldr	r0, [pc, #40]	; (1000103c <alarm_pool_init_default+0x38>)
10001012:	f7ff fc93 	bl	1000093c <lock_init>
10001016:	bd10      	pop	{r4, pc}
10001018:	4c07      	ldr	r4, [pc, #28]	; (10001038 <alarm_pool_init_default+0x34>)
1000101a:	0023      	movs	r3, r4
1000101c:	4a08      	ldr	r2, [pc, #32]	; (10001040 <alarm_pool_init_default+0x3c>)
1000101e:	2110      	movs	r1, #16
10001020:	6820      	ldr	r0, [r4, #0]
10001022:	f000 fc55 	bl	100018d0 <ph_post_alloc_init>
10001026:	2003      	movs	r0, #3
10001028:	f000 faa0 	bl	1000156c <hardware_alarm_claim>
1000102c:	2103      	movs	r1, #3
1000102e:	0020      	movs	r0, r4
10001030:	f7ff fca8 	bl	10000984 <alarm_pool_post_alloc_init>
10001034:	e7eb      	b.n	1000100e <alarm_pool_init_default+0xa>
10001036:	46c0      	nop			; (mov r8, r8)
10001038:	20000284 	.word	0x20000284
1000103c:	200010d8 	.word	0x200010d8
10001040:	100009f5 	.word	0x100009f5

10001044 <alarm_pool_get_default>:
10001044:	b510      	push	{r4, lr}
10001046:	4b06      	ldr	r3, [pc, #24]	; (10001060 <alarm_pool_get_default+0x1c>)
10001048:	685b      	ldr	r3, [r3, #4]
1000104a:	2b00      	cmp	r3, #0
1000104c:	d001      	beq.n	10001052 <alarm_pool_get_default+0xe>
1000104e:	4804      	ldr	r0, [pc, #16]	; (10001060 <alarm_pool_get_default+0x1c>)
10001050:	bd10      	pop	{r4, pc}
10001052:	4b04      	ldr	r3, [pc, #16]	; (10001064 <alarm_pool_get_default+0x20>)
10001054:	4a04      	ldr	r2, [pc, #16]	; (10001068 <alarm_pool_get_default+0x24>)
10001056:	215e      	movs	r1, #94	; 0x5e
10001058:	4804      	ldr	r0, [pc, #16]	; (1000106c <alarm_pool_get_default+0x28>)
1000105a:	f001 f80d 	bl	10002078 <__assert_func>
1000105e:	46c0      	nop			; (mov r8, r8)
10001060:	20000284 	.word	0x20000284
10001064:	10007934 	.word	0x10007934
10001068:	10007a28 	.word	0x10007a28
1000106c:	10007794 	.word	0x10007794

10001070 <alarm_pool_add_alarm_at>:
10001070:	b5f0      	push	{r4, r5, r6, r7, lr}
10001072:	46de      	mov	lr, fp
10001074:	4657      	mov	r7, sl
10001076:	464e      	mov	r6, r9
10001078:	4645      	mov	r5, r8
1000107a:	b5e0      	push	{r5, r6, r7, lr}
1000107c:	b08b      	sub	sp, #44	; 0x2c
1000107e:	4680      	mov	r8, r0
10001080:	0016      	movs	r6, r2
10001082:	001f      	movs	r7, r3
10001084:	9b14      	ldr	r3, [sp, #80]	; 0x50
10001086:	469a      	mov	sl, r3
10001088:	9b15      	ldr	r3, [sp, #84]	; 0x54
1000108a:	4699      	mov	r9, r3
1000108c:	ab16      	add	r3, sp, #88	; 0x58
1000108e:	781b      	ldrb	r3, [r3, #0]
10001090:	469b      	mov	fp, r3
10001092:	231f      	movs	r3, #31
10001094:	aa02      	add	r2, sp, #8
10001096:	4694      	mov	ip, r2
10001098:	4463      	add	r3, ip
1000109a:	2200      	movs	r2, #0
1000109c:	701a      	strb	r2, [r3, #0]
1000109e:	e02b      	b.n	100010f8 <alarm_pool_add_alarm_at+0x88>
100010a0:	2800      	cmp	r0, #0
100010a2:	d009      	beq.n	100010b8 <alarm_pool_add_alarm_at+0x48>
100010a4:	4642      	mov	r2, r8
100010a6:	6812      	ldr	r2, [r2, #0]
100010a8:	7b12      	ldrb	r2, [r2, #12]
100010aa:	4290      	cmp	r0, r2
100010ac:	d804      	bhi.n	100010b8 <alarm_pool_add_alarm_at+0x48>
100010ae:	1e42      	subs	r2, r0, #1
100010b0:	4641      	mov	r1, r8
100010b2:	68c9      	ldr	r1, [r1, #12]
100010b4:	5c8a      	ldrb	r2, [r1, r2]
100010b6:	e041      	b.n	1000113c <alarm_pool_add_alarm_at+0xcc>
100010b8:	4b40      	ldr	r3, [pc, #256]	; (100011bc <alarm_pool_add_alarm_at+0x14c>)
100010ba:	4a41      	ldr	r2, [pc, #260]	; (100011c0 <alarm_pool_add_alarm_at+0x150>)
100010bc:	2141      	movs	r1, #65	; 0x41
100010be:	4841      	ldr	r0, [pc, #260]	; (100011c4 <alarm_pool_add_alarm_at+0x154>)
100010c0:	f000 ffda 	bl	10002078 <__assert_func>
100010c4:	9807      	ldr	r0, [sp, #28]
100010c6:	e04c      	b.n	10001162 <alarm_pool_add_alarm_at+0xf2>
100010c8:	1b36      	subs	r6, r6, r4
100010ca:	41af      	sbcs	r7, r5
100010cc:	2f00      	cmp	r7, #0
100010ce:	db07      	blt.n	100010e0 <alarm_pool_add_alarm_at+0x70>
100010d0:	2f00      	cmp	r7, #0
100010d2:	da11      	bge.n	100010f8 <alarm_pool_add_alarm_at+0x88>
100010d4:	4b3c      	ldr	r3, [pc, #240]	; (100011c8 <alarm_pool_add_alarm_at+0x158>)
100010d6:	4a3d      	ldr	r2, [pc, #244]	; (100011cc <alarm_pool_add_alarm_at+0x15c>)
100010d8:	213f      	movs	r1, #63	; 0x3f
100010da:	483d      	ldr	r0, [pc, #244]	; (100011d0 <alarm_pool_add_alarm_at+0x160>)
100010dc:	f000 ffcc 	bl	10002078 <__assert_func>
100010e0:	2601      	movs	r6, #1
100010e2:	4276      	negs	r6, r6
100010e4:	4f3b      	ldr	r7, [pc, #236]	; (100011d4 <alarm_pool_add_alarm_at+0x164>)
100010e6:	e7f3      	b.n	100010d0 <alarm_pool_add_alarm_at+0x60>
100010e8:	4b37      	ldr	r3, [pc, #220]	; (100011c8 <alarm_pool_add_alarm_at+0x158>)
100010ea:	4a38      	ldr	r2, [pc, #224]	; (100011cc <alarm_pool_add_alarm_at+0x15c>)
100010ec:	213f      	movs	r1, #63	; 0x3f
100010ee:	4838      	ldr	r0, [pc, #224]	; (100011d0 <alarm_pool_add_alarm_at+0x160>)
100010f0:	f000 ffc2 	bl	10002078 <__assert_func>
100010f4:	2f00      	cmp	r7, #0
100010f6:	db4f      	blt.n	10001198 <alarm_pool_add_alarm_at+0x128>
100010f8:	4643      	mov	r3, r8
100010fa:	685a      	ldr	r2, [r3, #4]
100010fc:	f3ef 8410 	mrs	r4, PRIMASK
10001100:	b672      	cpsid	i
10001102:	6813      	ldr	r3, [r2, #0]
10001104:	4259      	negs	r1, r3
10001106:	414b      	adcs	r3, r1
10001108:	b2d9      	uxtb	r1, r3
1000110a:	9107      	str	r1, [sp, #28]
1000110c:	2b00      	cmp	r3, #0
1000110e:	d1f8      	bne.n	10001102 <alarm_pool_add_alarm_at+0x92>
10001110:	f3bf 8f5f 	dmb	sy
10001114:	331f      	adds	r3, #31
10001116:	aa02      	add	r2, sp, #8
10001118:	4694      	mov	ip, r2
1000111a:	4463      	add	r3, ip
1000111c:	9304      	str	r3, [sp, #16]
1000111e:	2300      	movs	r3, #0
10001120:	9303      	str	r3, [sp, #12]
10001122:	9302      	str	r3, [sp, #8]
10001124:	464b      	mov	r3, r9
10001126:	9301      	str	r3, [sp, #4]
10001128:	4653      	mov	r3, sl
1000112a:	9300      	str	r3, [sp, #0]
1000112c:	0032      	movs	r2, r6
1000112e:	003b      	movs	r3, r7
10001130:	4640      	mov	r0, r8
10001132:	f7ff fd0f 	bl	10000b54 <add_alarm_under_lock>
10001136:	1e03      	subs	r3, r0, #0
10001138:	d1b2      	bne.n	100010a0 <alarm_pool_add_alarm_at+0x30>
1000113a:	0002      	movs	r2, r0
1000113c:	4641      	mov	r1, r8
1000113e:	6849      	ldr	r1, [r1, #4]
10001140:	f3bf 8f5f 	dmb	sy
10001144:	2500      	movs	r5, #0
10001146:	600d      	str	r5, [r1, #0]
10001148:	f384 8810 	msr	PRIMASK, r4
1000114c:	2b00      	cmp	r3, #0
1000114e:	d029      	beq.n	100011a4 <alarm_pool_add_alarm_at+0x134>
10001150:	231f      	movs	r3, #31
10001152:	a902      	add	r1, sp, #8
10001154:	468c      	mov	ip, r1
10001156:	4463      	add	r3, ip
10001158:	781b      	ldrb	r3, [r3, #0]
1000115a:	2b00      	cmp	r3, #0
1000115c:	d1b2      	bne.n	100010c4 <alarm_pool_add_alarm_at+0x54>
1000115e:	0212      	lsls	r2, r2, #8
10001160:	4310      	orrs	r0, r2
10001162:	2b00      	cmp	r3, #0
10001164:	d020      	beq.n	100011a8 <alarm_pool_add_alarm_at+0x138>
10001166:	465b      	mov	r3, fp
10001168:	2b00      	cmp	r3, #0
1000116a:	d01d      	beq.n	100011a8 <alarm_pool_add_alarm_at+0x138>
1000116c:	4649      	mov	r1, r9
1000116e:	47d0      	blx	sl
10001170:	0004      	movs	r4, r0
10001172:	000d      	movs	r5, r1
10001174:	0003      	movs	r3, r0
10001176:	430b      	orrs	r3, r1
10001178:	d01d      	beq.n	100011b6 <alarm_pool_add_alarm_at+0x146>
1000117a:	2900      	cmp	r1, #0
1000117c:	dba4      	blt.n	100010c8 <alarm_pool_add_alarm_at+0x58>
1000117e:	f000 fa01 	bl	10001584 <time_us_64>
10001182:	0006      	movs	r6, r0
10001184:	1e0f      	subs	r7, r1, #0
10001186:	dbaf      	blt.n	100010e8 <alarm_pool_add_alarm_at+0x78>
10001188:	1936      	adds	r6, r6, r4
1000118a:	416f      	adcs	r7, r5
1000118c:	2f00      	cmp	r7, #0
1000118e:	dab1      	bge.n	100010f4 <alarm_pool_add_alarm_at+0x84>
10001190:	2601      	movs	r6, #1
10001192:	4276      	negs	r6, r6
10001194:	4f0f      	ldr	r7, [pc, #60]	; (100011d4 <alarm_pool_add_alarm_at+0x164>)
10001196:	e7ad      	b.n	100010f4 <alarm_pool_add_alarm_at+0x84>
10001198:	4b0b      	ldr	r3, [pc, #44]	; (100011c8 <alarm_pool_add_alarm_at+0x158>)
1000119a:	4a0c      	ldr	r2, [pc, #48]	; (100011cc <alarm_pool_add_alarm_at+0x15c>)
1000119c:	213f      	movs	r1, #63	; 0x3f
1000119e:	480c      	ldr	r0, [pc, #48]	; (100011d0 <alarm_pool_add_alarm_at+0x160>)
100011a0:	f000 ff6a 	bl	10002078 <__assert_func>
100011a4:	2001      	movs	r0, #1
100011a6:	4240      	negs	r0, r0
100011a8:	b00b      	add	sp, #44	; 0x2c
100011aa:	bcf0      	pop	{r4, r5, r6, r7}
100011ac:	46bb      	mov	fp, r7
100011ae:	46b2      	mov	sl, r6
100011b0:	46a9      	mov	r9, r5
100011b2:	46a0      	mov	r8, r4
100011b4:	bdf0      	pop	{r4, r5, r6, r7, pc}
100011b6:	9807      	ldr	r0, [sp, #28]
100011b8:	e7f6      	b.n	100011a8 <alarm_pool_add_alarm_at+0x138>
100011ba:	46c0      	nop			; (mov r8, r8)
100011bc:	100077c4 	.word	0x100077c4
100011c0:	10007a40 	.word	0x10007a40
100011c4:	10007794 	.word	0x10007794
100011c8:	100076cc 	.word	0x100076cc
100011cc:	100079e8 	.word	0x100079e8
100011d0:	100076e8 	.word	0x100076e8
100011d4:	7fffffff 	.word	0x7fffffff

100011d8 <alarm_pool_cancel_alarm>:
100011d8:	b5f8      	push	{r3, r4, r5, r6, r7, lr}
100011da:	0004      	movs	r4, r0
100011dc:	6842      	ldr	r2, [r0, #4]
100011de:	f3ef 8510 	mrs	r5, PRIMASK
100011e2:	b672      	cpsid	i
100011e4:	6813      	ldr	r3, [r2, #0]
100011e6:	4258      	negs	r0, r3
100011e8:	4143      	adcs	r3, r0
100011ea:	b2d8      	uxtb	r0, r3
100011ec:	2b00      	cmp	r3, #0
100011ee:	d1f9      	bne.n	100011e4 <alarm_pool_cancel_alarm+0xc>
100011f0:	f3bf 8f5f 	dmb	sy
100011f4:	b2cb      	uxtb	r3, r1
100011f6:	6822      	ldr	r2, [r4, #0]
100011f8:	7b56      	ldrb	r6, [r2, #13]
100011fa:	42b3      	cmp	r3, r6
100011fc:	d11b      	bne.n	10001236 <alarm_pool_cancel_alarm+0x5e>
100011fe:	2001      	movs	r0, #1
10001200:	2800      	cmp	r0, #0
10001202:	d048      	beq.n	10001296 <alarm_pool_cancel_alarm+0xbe>
10001204:	6920      	ldr	r0, [r4, #16]
10001206:	4288      	cmp	r0, r1
10001208:	d02b      	beq.n	10001262 <alarm_pool_cancel_alarm+0x8a>
1000120a:	0a09      	lsrs	r1, r1, #8
1000120c:	b2c9      	uxtb	r1, r1
1000120e:	2b00      	cmp	r3, #0
10001210:	d02e      	beq.n	10001270 <alarm_pool_cancel_alarm+0x98>
10001212:	6820      	ldr	r0, [r4, #0]
10001214:	7b00      	ldrb	r0, [r0, #12]
10001216:	4283      	cmp	r3, r0
10001218:	d82a      	bhi.n	10001270 <alarm_pool_cancel_alarm+0x98>
1000121a:	1e58      	subs	r0, r3, #1
1000121c:	68e6      	ldr	r6, [r4, #12]
1000121e:	5c30      	ldrb	r0, [r6, r0]
10001220:	4288      	cmp	r0, r1
10001222:	d02b      	beq.n	1000127c <alarm_pool_cancel_alarm+0xa4>
10001224:	2000      	movs	r0, #0
10001226:	6863      	ldr	r3, [r4, #4]
10001228:	f3bf 8f5f 	dmb	sy
1000122c:	2200      	movs	r2, #0
1000122e:	601a      	str	r2, [r3, #0]
10001230:	f385 8810 	msr	PRIMASK, r5
10001234:	bdf8      	pop	{r3, r4, r5, r6, r7, pc}
10001236:	2b00      	cmp	r3, #0
10001238:	d00d      	beq.n	10001256 <alarm_pool_cancel_alarm+0x7e>
1000123a:	7b16      	ldrb	r6, [r2, #12]
1000123c:	42b3      	cmp	r3, r6
1000123e:	d80a      	bhi.n	10001256 <alarm_pool_cancel_alarm+0x7e>
10001240:	005e      	lsls	r6, r3, #1
10001242:	18f6      	adds	r6, r6, r3
10001244:	3e03      	subs	r6, #3
10001246:	6817      	ldr	r7, [r2, #0]
10001248:	46bc      	mov	ip, r7
1000124a:	4466      	add	r6, ip
1000124c:	78b6      	ldrb	r6, [r6, #2]
1000124e:	2e00      	cmp	r6, #0
10001250:	d0d6      	beq.n	10001200 <alarm_pool_cancel_alarm+0x28>
10001252:	2001      	movs	r0, #1
10001254:	e7d4      	b.n	10001200 <alarm_pool_cancel_alarm+0x28>
10001256:	4b13      	ldr	r3, [pc, #76]	; (100012a4 <alarm_pool_cancel_alarm+0xcc>)
10001258:	4a13      	ldr	r2, [pc, #76]	; (100012a8 <alarm_pool_cancel_alarm+0xd0>)
1000125a:	2168      	movs	r1, #104	; 0x68
1000125c:	4813      	ldr	r0, [pc, #76]	; (100012ac <alarm_pool_cancel_alarm+0xd4>)
1000125e:	f000 ff0b 	bl	10002078 <__assert_func>
10001262:	2195      	movs	r1, #149	; 0x95
10001264:	4b12      	ldr	r3, [pc, #72]	; (100012b0 <alarm_pool_cancel_alarm+0xd8>)
10001266:	4a13      	ldr	r2, [pc, #76]	; (100012b4 <alarm_pool_cancel_alarm+0xdc>)
10001268:	0049      	lsls	r1, r1, #1
1000126a:	4813      	ldr	r0, [pc, #76]	; (100012b8 <alarm_pool_cancel_alarm+0xe0>)
1000126c:	f000 ff04 	bl	10002078 <__assert_func>
10001270:	4b12      	ldr	r3, [pc, #72]	; (100012bc <alarm_pool_cancel_alarm+0xe4>)
10001272:	4a13      	ldr	r2, [pc, #76]	; (100012c0 <alarm_pool_cancel_alarm+0xe8>)
10001274:	2141      	movs	r1, #65	; 0x41
10001276:	4810      	ldr	r0, [pc, #64]	; (100012b8 <alarm_pool_cancel_alarm+0xe0>)
10001278:	f000 fefe 	bl	10002078 <__assert_func>
1000127c:	0019      	movs	r1, r3
1000127e:	0010      	movs	r0, r2
10001280:	f000 fc20 	bl	10001ac4 <ph_remove_and_free_node>
10001284:	2800      	cmp	r0, #0
10001286:	d1ce      	bne.n	10001226 <alarm_pool_cancel_alarm+0x4e>
10001288:	2132      	movs	r1, #50	; 0x32
1000128a:	4b0e      	ldr	r3, [pc, #56]	; (100012c4 <alarm_pool_cancel_alarm+0xec>)
1000128c:	4a09      	ldr	r2, [pc, #36]	; (100012b4 <alarm_pool_cancel_alarm+0xdc>)
1000128e:	31ff      	adds	r1, #255	; 0xff
10001290:	4809      	ldr	r0, [pc, #36]	; (100012b8 <alarm_pool_cancel_alarm+0xe0>)
10001292:	f000 fef1 	bl	10002078 <__assert_func>
10001296:	6923      	ldr	r3, [r4, #16]
10001298:	428b      	cmp	r3, r1
1000129a:	d1c4      	bne.n	10001226 <alarm_pool_cancel_alarm+0x4e>
1000129c:	2300      	movs	r3, #0
1000129e:	6123      	str	r3, [r4, #16]
100012a0:	e7c1      	b.n	10001226 <alarm_pool_cancel_alarm+0x4e>
100012a2:	46c0      	nop			; (mov r8, r8)
100012a4:	100077e8 	.word	0x100077e8
100012a8:	10007a88 	.word	0x10007a88
100012ac:	10007804 	.word	0x10007804
100012b0:	10007958 	.word	0x10007958
100012b4:	100079d0 	.word	0x100079d0
100012b8:	10007794 	.word	0x10007794
100012bc:	100077c4 	.word	0x100077c4
100012c0:	10007a40 	.word	0x10007a40
100012c4:	1000797c 	.word	0x1000797c

100012c8 <sleep_until>:
100012c8:	b5f0      	push	{r4, r5, r6, r7, lr}
100012ca:	b087      	sub	sp, #28
100012cc:	0006      	movs	r6, r0
100012ce:	000f      	movs	r7, r1
100012d0:	f3ef 8305 	mrs	r3, IPSR
100012d4:	2b00      	cmp	r3, #0
100012d6:	d11f      	bne.n	10001318 <sleep_until+0x50>
100012d8:	2406      	movs	r4, #6
100012da:	4264      	negs	r4, r4
100012dc:	17e5      	asrs	r5, r4, #31
100012de:	19a4      	adds	r4, r4, r6
100012e0:	417d      	adcs	r5, r7
100012e2:	428d      	cmp	r5, r1
100012e4:	d802      	bhi.n	100012ec <sleep_until+0x24>
100012e6:	d103      	bne.n	100012f0 <sleep_until+0x28>
100012e8:	4284      	cmp	r4, r0
100012ea:	d901      	bls.n	100012f0 <sleep_until+0x28>
100012ec:	2400      	movs	r4, #0
100012ee:	2500      	movs	r5, #0
100012f0:	2d00      	cmp	r5, #0
100012f2:	db14      	blt.n	1000131e <sleep_until+0x56>
100012f4:	9404      	str	r4, [sp, #16]
100012f6:	9505      	str	r5, [sp, #20]
100012f8:	f000 f944 	bl	10001584 <time_us_64>
100012fc:	0002      	movs	r2, r0
100012fe:	1e0b      	subs	r3, r1, #0
10001300:	db13      	blt.n	1000132a <sleep_until+0x62>
10001302:	1aa4      	subs	r4, r4, r2
10001304:	419d      	sbcs	r5, r3
10001306:	2d00      	cmp	r5, #0
10001308:	dc17      	bgt.n	1000133a <sleep_until+0x72>
1000130a:	d014      	beq.n	10001336 <sleep_until+0x6e>
1000130c:	0030      	movs	r0, r6
1000130e:	0039      	movs	r1, r7
10001310:	f000 f944 	bl	1000159c <busy_wait_until>
10001314:	b007      	add	sp, #28
10001316:	bdf0      	pop	{r4, r5, r6, r7, pc}
10001318:	4823      	ldr	r0, [pc, #140]	; (100013a8 <sleep_until+0xe0>)
1000131a:	f000 ff47 	bl	100021ac <panic>
1000131e:	4b23      	ldr	r3, [pc, #140]	; (100013ac <sleep_until+0xe4>)
10001320:	4a23      	ldr	r2, [pc, #140]	; (100013b0 <sleep_until+0xe8>)
10001322:	213f      	movs	r1, #63	; 0x3f
10001324:	4823      	ldr	r0, [pc, #140]	; (100013b4 <sleep_until+0xec>)
10001326:	f000 fea7 	bl	10002078 <__assert_func>
1000132a:	4b20      	ldr	r3, [pc, #128]	; (100013ac <sleep_until+0xe4>)
1000132c:	4a20      	ldr	r2, [pc, #128]	; (100013b0 <sleep_until+0xe8>)
1000132e:	213f      	movs	r1, #63	; 0x3f
10001330:	4820      	ldr	r0, [pc, #128]	; (100013b4 <sleep_until+0xec>)
10001332:	f000 fea1 	bl	10002078 <__assert_func>
10001336:	2c00      	cmp	r4, #0
10001338:	d0e8      	beq.n	1000130c <sleep_until+0x44>
1000133a:	f7ff fe83 	bl	10001044 <alarm_pool_get_default>
1000133e:	2300      	movs	r3, #0
10001340:	9302      	str	r3, [sp, #8]
10001342:	9301      	str	r3, [sp, #4]
10001344:	4b1c      	ldr	r3, [pc, #112]	; (100013b8 <sleep_until+0xf0>)
10001346:	9300      	str	r3, [sp, #0]
10001348:	9a04      	ldr	r2, [sp, #16]
1000134a:	9b05      	ldr	r3, [sp, #20]
1000134c:	f7ff fe90 	bl	10001070 <alarm_pool_add_alarm_at>
10001350:	2800      	cmp	r0, #0
10001352:	da18      	bge.n	10001386 <sleep_until+0xbe>
10001354:	e7da      	b.n	1000130c <sleep_until+0x44>
10001356:	2300      	movs	r3, #0
10001358:	e000      	b.n	1000135c <sleep_until+0x94>
1000135a:	2300      	movs	r3, #0
1000135c:	2b00      	cmp	r3, #0
1000135e:	d1d5      	bne.n	1000130c <sleep_until+0x44>
10001360:	4b16      	ldr	r3, [pc, #88]	; (100013bc <sleep_until+0xf4>)
10001362:	681a      	ldr	r2, [r3, #0]
10001364:	f3ef 8110 	mrs	r1, PRIMASK
10001368:	b672      	cpsid	i
1000136a:	6813      	ldr	r3, [r2, #0]
1000136c:	2b00      	cmp	r3, #0
1000136e:	d0fc      	beq.n	1000136a <sleep_until+0xa2>
10001370:	f3bf 8f5f 	dmb	sy
10001374:	4b11      	ldr	r3, [pc, #68]	; (100013bc <sleep_until+0xf4>)
10001376:	681b      	ldr	r3, [r3, #0]
10001378:	f3bf 8f5f 	dmb	sy
1000137c:	2200      	movs	r2, #0
1000137e:	601a      	str	r2, [r3, #0]
10001380:	f381 8810 	msr	PRIMASK, r1
10001384:	bf20      	wfe
10001386:	9904      	ldr	r1, [sp, #16]
10001388:	9a05      	ldr	r2, [sp, #20]
1000138a:	4b0d      	ldr	r3, [pc, #52]	; (100013c0 <sleep_until+0xf8>)
1000138c:	6a5b      	ldr	r3, [r3, #36]	; 0x24
1000138e:	429a      	cmp	r2, r3
10001390:	d8e3      	bhi.n	1000135a <sleep_until+0x92>
10001392:	480b      	ldr	r0, [pc, #44]	; (100013c0 <sleep_until+0xf8>)
10001394:	6a80      	ldr	r0, [r0, #40]	; 0x28
10001396:	4288      	cmp	r0, r1
10001398:	d203      	bcs.n	100013a2 <sleep_until+0xda>
1000139a:	429a      	cmp	r2, r3
1000139c:	d0db      	beq.n	10001356 <sleep_until+0x8e>
1000139e:	2301      	movs	r3, #1
100013a0:	e7dc      	b.n	1000135c <sleep_until+0x94>
100013a2:	2301      	movs	r3, #1
100013a4:	e7da      	b.n	1000135c <sleep_until+0x94>
100013a6:	46c0      	nop			; (mov r8, r8)
100013a8:	10007980 	.word	0x10007980
100013ac:	100076cc 	.word	0x100076cc
100013b0:	100079e8 	.word	0x100079e8
100013b4:	100076e8 	.word	0x100076e8
100013b8:	100009c5 	.word	0x100009c5
100013bc:	200010d8 	.word	0x200010d8
100013c0:	40054000 	.word	0x40054000

100013c4 <sleep_us>:
100013c4:	b570      	push	{r4, r5, r6, lr}
100013c6:	0004      	movs	r4, r0
100013c8:	000d      	movs	r5, r1
100013ca:	f000 f8db 	bl	10001584 <time_us_64>
100013ce:	0002      	movs	r2, r0
100013d0:	1e0b      	subs	r3, r1, #0
100013d2:	db0a      	blt.n	100013ea <sleep_us+0x26>
100013d4:	0020      	movs	r0, r4
100013d6:	0029      	movs	r1, r5
100013d8:	1880      	adds	r0, r0, r2
100013da:	4159      	adcs	r1, r3
100013dc:	2900      	cmp	r1, #0
100013de:	db0a      	blt.n	100013f6 <sleep_us+0x32>
100013e0:	2900      	cmp	r1, #0
100013e2:	db0c      	blt.n	100013fe <sleep_us+0x3a>
100013e4:	f7ff ff70 	bl	100012c8 <sleep_until>
100013e8:	bd70      	pop	{r4, r5, r6, pc}
100013ea:	4b08      	ldr	r3, [pc, #32]	; (1000140c <sleep_us+0x48>)
100013ec:	4a08      	ldr	r2, [pc, #32]	; (10001410 <sleep_us+0x4c>)
100013ee:	213f      	movs	r1, #63	; 0x3f
100013f0:	4808      	ldr	r0, [pc, #32]	; (10001414 <sleep_us+0x50>)
100013f2:	f000 fe41 	bl	10002078 <__assert_func>
100013f6:	2001      	movs	r0, #1
100013f8:	4240      	negs	r0, r0
100013fa:	4907      	ldr	r1, [pc, #28]	; (10001418 <sleep_us+0x54>)
100013fc:	e7f0      	b.n	100013e0 <sleep_us+0x1c>
100013fe:	4b03      	ldr	r3, [pc, #12]	; (1000140c <sleep_us+0x48>)
10001400:	4a03      	ldr	r2, [pc, #12]	; (10001410 <sleep_us+0x4c>)
10001402:	213f      	movs	r1, #63	; 0x3f
10001404:	4803      	ldr	r0, [pc, #12]	; (10001414 <sleep_us+0x50>)
10001406:	f000 fe37 	bl	10002078 <__assert_func>
1000140a:	46c0      	nop			; (mov r8, r8)
1000140c:	100076cc 	.word	0x100076cc
10001410:	100079e8 	.word	0x100079e8
10001414:	100076e8 	.word	0x100076e8
10001418:	7fffffff 	.word	0x7fffffff

1000141c <sleep_ms>:
1000141c:	b510      	push	{r4, lr}
1000141e:	22fa      	movs	r2, #250	; 0xfa
10001420:	0092      	lsls	r2, r2, #2
10001422:	2300      	movs	r3, #0
10001424:	2100      	movs	r1, #0
10001426:	f002 fe4b 	bl	100040c0 <__wrap___aeabi_lmul>
1000142a:	f7ff ffcb 	bl	100013c4 <sleep_us>
1000142e:	bd10      	pop	{r4, pc}

10001430 <best_effort_wfe_or_timeout>:
10001430:	b570      	push	{r4, r5, r6, lr}
10001432:	b084      	sub	sp, #16
10001434:	0005      	movs	r5, r0
10001436:	000c      	movs	r4, r1
10001438:	f3ef 8305 	mrs	r3, IPSR
1000143c:	2b00      	cmp	r3, #0
1000143e:	d11e      	bne.n	1000147e <best_effort_wfe_or_timeout+0x4e>
10001440:	f7ff fe00 	bl	10001044 <alarm_pool_get_default>
10001444:	2300      	movs	r3, #0
10001446:	9302      	str	r3, [sp, #8]
10001448:	9301      	str	r3, [sp, #4]
1000144a:	4b22      	ldr	r3, [pc, #136]	; (100014d4 <best_effort_wfe_or_timeout+0xa4>)
1000144c:	9300      	str	r3, [sp, #0]
1000144e:	002a      	movs	r2, r5
10001450:	0023      	movs	r3, r4
10001452:	f7ff fe0d 	bl	10001070 <alarm_pool_add_alarm_at>
10001456:	1e06      	subs	r6, r0, #0
10001458:	dd23      	ble.n	100014a2 <best_effort_wfe_or_timeout+0x72>
1000145a:	bf20      	wfe
1000145c:	f7ff fdf2 	bl	10001044 <alarm_pool_get_default>
10001460:	0031      	movs	r1, r6
10001462:	f7ff feb9 	bl	100011d8 <alarm_pool_cancel_alarm>
10001466:	4b1c      	ldr	r3, [pc, #112]	; (100014d8 <best_effort_wfe_or_timeout+0xa8>)
10001468:	6a5b      	ldr	r3, [r3, #36]	; 0x24
1000146a:	429c      	cmp	r4, r3
1000146c:	d82d      	bhi.n	100014ca <best_effort_wfe_or_timeout+0x9a>
1000146e:	4a1a      	ldr	r2, [pc, #104]	; (100014d8 <best_effort_wfe_or_timeout+0xa8>)
10001470:	6a92      	ldr	r2, [r2, #40]	; 0x28
10001472:	42aa      	cmp	r2, r5
10001474:	d22c      	bcs.n	100014d0 <best_effort_wfe_or_timeout+0xa0>
10001476:	429c      	cmp	r4, r3
10001478:	d025      	beq.n	100014c6 <best_effort_wfe_or_timeout+0x96>
1000147a:	2001      	movs	r0, #1
1000147c:	e026      	b.n	100014cc <best_effort_wfe_or_timeout+0x9c>
1000147e:	4b16      	ldr	r3, [pc, #88]	; (100014d8 <best_effort_wfe_or_timeout+0xa8>)
10001480:	6a5b      	ldr	r3, [r3, #36]	; 0x24
10001482:	4299      	cmp	r1, r3
10001484:	d809      	bhi.n	1000149a <best_effort_wfe_or_timeout+0x6a>
10001486:	4a14      	ldr	r2, [pc, #80]	; (100014d8 <best_effort_wfe_or_timeout+0xa8>)
10001488:	6a92      	ldr	r2, [r2, #40]	; 0x28
1000148a:	4282      	cmp	r2, r0
1000148c:	d207      	bcs.n	1000149e <best_effort_wfe_or_timeout+0x6e>
1000148e:	4299      	cmp	r1, r3
10001490:	d001      	beq.n	10001496 <best_effort_wfe_or_timeout+0x66>
10001492:	2001      	movs	r0, #1
10001494:	e01a      	b.n	100014cc <best_effort_wfe_or_timeout+0x9c>
10001496:	2000      	movs	r0, #0
10001498:	e018      	b.n	100014cc <best_effort_wfe_or_timeout+0x9c>
1000149a:	2000      	movs	r0, #0
1000149c:	e016      	b.n	100014cc <best_effort_wfe_or_timeout+0x9c>
1000149e:	2001      	movs	r0, #1
100014a0:	e014      	b.n	100014cc <best_effort_wfe_or_timeout+0x9c>
100014a2:	4b0d      	ldr	r3, [pc, #52]	; (100014d8 <best_effort_wfe_or_timeout+0xa8>)
100014a4:	6a5b      	ldr	r3, [r3, #36]	; 0x24
100014a6:	429c      	cmp	r4, r3
100014a8:	d809      	bhi.n	100014be <best_effort_wfe_or_timeout+0x8e>
100014aa:	4a0b      	ldr	r2, [pc, #44]	; (100014d8 <best_effort_wfe_or_timeout+0xa8>)
100014ac:	6a92      	ldr	r2, [r2, #40]	; 0x28
100014ae:	42aa      	cmp	r2, r5
100014b0:	d207      	bcs.n	100014c2 <best_effort_wfe_or_timeout+0x92>
100014b2:	429c      	cmp	r4, r3
100014b4:	d001      	beq.n	100014ba <best_effort_wfe_or_timeout+0x8a>
100014b6:	2001      	movs	r0, #1
100014b8:	e008      	b.n	100014cc <best_effort_wfe_or_timeout+0x9c>
100014ba:	2000      	movs	r0, #0
100014bc:	e006      	b.n	100014cc <best_effort_wfe_or_timeout+0x9c>
100014be:	2000      	movs	r0, #0
100014c0:	e004      	b.n	100014cc <best_effort_wfe_or_timeout+0x9c>
100014c2:	2001      	movs	r0, #1
100014c4:	e002      	b.n	100014cc <best_effort_wfe_or_timeout+0x9c>
100014c6:	2000      	movs	r0, #0
100014c8:	e000      	b.n	100014cc <best_effort_wfe_or_timeout+0x9c>
100014ca:	2000      	movs	r0, #0
100014cc:	b004      	add	sp, #16
100014ce:	bd70      	pop	{r4, r5, r6, pc}
100014d0:	2001      	movs	r0, #1
100014d2:	e7fb      	b.n	100014cc <best_effort_wfe_or_timeout+0x9c>
100014d4:	100009c5 	.word	0x100009c5
100014d8:	40054000 	.word	0x40054000

100014dc <hardware_alarm_irq_handler>:
100014dc:	b570      	push	{r4, r5, r6, lr}
100014de:	f3ef 8005 	mrs	r0, IPSR
100014e2:	3810      	subs	r0, #16
100014e4:	f3ef 8c10 	mrs	ip, PRIMASK
100014e8:	b672      	cpsid	i
100014ea:	4b1a      	ldr	r3, [pc, #104]	; (10001554 <hardware_alarm_irq_handler+0x78>)
100014ec:	681b      	ldr	r3, [r3, #0]
100014ee:	2b00      	cmp	r3, #0
100014f0:	d0fb      	beq.n	100014ea <hardware_alarm_irq_handler+0xe>
100014f2:	f3bf 8f5f 	dmb	sy
100014f6:	2201      	movs	r2, #1
100014f8:	0013      	movs	r3, r2
100014fa:	4083      	lsls	r3, r0
100014fc:	4916      	ldr	r1, [pc, #88]	; (10001558 <hardware_alarm_irq_handler+0x7c>)
100014fe:	634b      	str	r3, [r1, #52]	; 0x34
10001500:	4916      	ldr	r1, [pc, #88]	; (1000155c <hardware_alarm_irq_handler+0x80>)
10001502:	600b      	str	r3, [r1, #0]
10001504:	4916      	ldr	r1, [pc, #88]	; (10001560 <hardware_alarm_irq_handler+0x84>)
10001506:	7809      	ldrb	r1, [r1, #0]
10001508:	000c      	movs	r4, r1
1000150a:	40c4      	lsrs	r4, r0
1000150c:	4222      	tst	r2, r4
1000150e:	d014      	beq.n	1000153a <hardware_alarm_irq_handler+0x5e>
10001510:	4a11      	ldr	r2, [pc, #68]	; (10001558 <hardware_alarm_irq_handler+0x7c>)
10001512:	6a54      	ldr	r4, [r2, #36]	; 0x24
10001514:	0082      	lsls	r2, r0, #2
10001516:	4d13      	ldr	r5, [pc, #76]	; (10001564 <hardware_alarm_irq_handler+0x88>)
10001518:	5952      	ldr	r2, [r2, r5]
1000151a:	4294      	cmp	r4, r2
1000151c:	d306      	bcc.n	1000152c <hardware_alarm_irq_handler+0x50>
1000151e:	0082      	lsls	r2, r0, #2
10001520:	4c11      	ldr	r4, [pc, #68]	; (10001568 <hardware_alarm_irq_handler+0x8c>)
10001522:	5912      	ldr	r2, [r2, r4]
10001524:	4399      	bics	r1, r3
10001526:	4b0e      	ldr	r3, [pc, #56]	; (10001560 <hardware_alarm_irq_handler+0x84>)
10001528:	7019      	strb	r1, [r3, #0]
1000152a:	e007      	b.n	1000153c <hardware_alarm_irq_handler+0x60>
1000152c:	4a0a      	ldr	r2, [pc, #40]	; (10001558 <hardware_alarm_irq_handler+0x7c>)
1000152e:	1d03      	adds	r3, r0, #4
10001530:	009b      	lsls	r3, r3, #2
10001532:	5899      	ldr	r1, [r3, r2]
10001534:	5099      	str	r1, [r3, r2]
10001536:	2200      	movs	r2, #0
10001538:	e000      	b.n	1000153c <hardware_alarm_irq_handler+0x60>
1000153a:	2200      	movs	r2, #0
1000153c:	f3bf 8f5f 	dmb	sy
10001540:	4b04      	ldr	r3, [pc, #16]	; (10001554 <hardware_alarm_irq_handler+0x78>)
10001542:	2100      	movs	r1, #0
10001544:	6019      	str	r1, [r3, #0]
10001546:	f38c 8810 	msr	PRIMASK, ip
1000154a:	2a00      	cmp	r2, #0
1000154c:	d000      	beq.n	10001550 <hardware_alarm_irq_handler+0x74>
1000154e:	4790      	blx	r2
10001550:	bd70      	pop	{r4, r5, r6, pc}
10001552:	46c0      	nop			; (mov r8, r8)
10001554:	d0000128 	.word	0xd0000128
10001558:	40054000 	.word	0x40054000
1000155c:	4005703c 	.word	0x4005703c
10001560:	200010f6 	.word	0x200010f6
10001564:	200010dc 	.word	0x200010dc
10001568:	20000e34 	.word	0x20000e34

1000156c <hardware_alarm_claim>:
1000156c:	b510      	push	{r4, lr}
1000156e:	0001      	movs	r1, r0
10001570:	4a02      	ldr	r2, [pc, #8]	; (1000157c <hardware_alarm_claim+0x10>)
10001572:	4803      	ldr	r0, [pc, #12]	; (10001580 <hardware_alarm_claim+0x14>)
10001574:	f7fe ffa0 	bl	100004b8 <hw_claim_or_assert>
10001578:	bd10      	pop	{r4, pc}
1000157a:	46c0      	nop			; (mov r8, r8)
1000157c:	10007aac 	.word	0x10007aac
10001580:	200010f4 	.word	0x200010f4

10001584 <time_us_64>:
10001584:	4b04      	ldr	r3, [pc, #16]	; (10001598 <time_us_64+0x14>)
10001586:	6a5b      	ldr	r3, [r3, #36]	; 0x24
10001588:	4a03      	ldr	r2, [pc, #12]	; (10001598 <time_us_64+0x14>)
1000158a:	6a90      	ldr	r0, [r2, #40]	; 0x28
1000158c:	0019      	movs	r1, r3
1000158e:	6a53      	ldr	r3, [r2, #36]	; 0x24
10001590:	4299      	cmp	r1, r3
10001592:	d1f9      	bne.n	10001588 <time_us_64+0x4>
10001594:	4770      	bx	lr
10001596:	46c0      	nop			; (mov r8, r8)
10001598:	40054000 	.word	0x40054000

1000159c <busy_wait_until>:
1000159c:	4b08      	ldr	r3, [pc, #32]	; (100015c0 <busy_wait_until+0x24>)
1000159e:	6a5b      	ldr	r3, [r3, #36]	; 0x24
100015a0:	e001      	b.n	100015a6 <busy_wait_until+0xa>
100015a2:	4b07      	ldr	r3, [pc, #28]	; (100015c0 <busy_wait_until+0x24>)
100015a4:	6a5b      	ldr	r3, [r3, #36]	; 0x24
100015a6:	428b      	cmp	r3, r1
100015a8:	d3fb      	bcc.n	100015a2 <busy_wait_until+0x6>
100015aa:	e001      	b.n	100015b0 <busy_wait_until+0x14>
100015ac:	4b04      	ldr	r3, [pc, #16]	; (100015c0 <busy_wait_until+0x24>)
100015ae:	6a5b      	ldr	r3, [r3, #36]	; 0x24
100015b0:	428b      	cmp	r3, r1
100015b2:	d103      	bne.n	100015bc <busy_wait_until+0x20>
100015b4:	4b02      	ldr	r3, [pc, #8]	; (100015c0 <busy_wait_until+0x24>)
100015b6:	6a9b      	ldr	r3, [r3, #40]	; 0x28
100015b8:	4283      	cmp	r3, r0
100015ba:	d3f7      	bcc.n	100015ac <busy_wait_until+0x10>
100015bc:	4770      	bx	lr
100015be:	46c0      	nop			; (mov r8, r8)
100015c0:	40054000 	.word	0x40054000

100015c4 <hardware_alarm_set_callback>:
100015c4:	b570      	push	{r4, r5, r6, lr}
100015c6:	0004      	movs	r4, r0
100015c8:	000d      	movs	r5, r1
100015ca:	f3ef 8610 	mrs	r6, PRIMASK
100015ce:	b672      	cpsid	i
100015d0:	4b1b      	ldr	r3, [pc, #108]	; (10001640 <hardware_alarm_set_callback+0x7c>)
100015d2:	681b      	ldr	r3, [r3, #0]
100015d4:	2b00      	cmp	r3, #0
100015d6:	d0fb      	beq.n	100015d0 <hardware_alarm_set_callback+0xc>
100015d8:	f3bf 8f5f 	dmb	sy
100015dc:	2d00      	cmp	r5, #0
100015de:	d01c      	beq.n	1000161a <hardware_alarm_set_callback+0x56>
100015e0:	0020      	movs	r0, r4
100015e2:	f7ff f81d 	bl	10000620 <irq_get_vtable_handler>
100015e6:	4b17      	ldr	r3, [pc, #92]	; (10001644 <hardware_alarm_set_callback+0x80>)
100015e8:	4283      	cmp	r3, r0
100015ea:	d00b      	beq.n	10001604 <hardware_alarm_set_callback+0x40>
100015ec:	0019      	movs	r1, r3
100015ee:	0020      	movs	r0, r4
100015f0:	f7ff f81e 	bl	10000630 <irq_set_exclusive_handler>
100015f4:	2101      	movs	r1, #1
100015f6:	0020      	movs	r0, r4
100015f8:	f7ff f80a 	bl	10000610 <irq_set_enabled>
100015fc:	2301      	movs	r3, #1
100015fe:	40a3      	lsls	r3, r4
10001600:	4a11      	ldr	r2, [pc, #68]	; (10001648 <hardware_alarm_set_callback+0x84>)
10001602:	6013      	str	r3, [r2, #0]
10001604:	00a4      	lsls	r4, r4, #2
10001606:	4b11      	ldr	r3, [pc, #68]	; (1000164c <hardware_alarm_set_callback+0x88>)
10001608:	50e5      	str	r5, [r4, r3]
1000160a:	f3bf 8f5f 	dmb	sy
1000160e:	4b0c      	ldr	r3, [pc, #48]	; (10001640 <hardware_alarm_set_callback+0x7c>)
10001610:	2200      	movs	r2, #0
10001612:	601a      	str	r2, [r3, #0]
10001614:	f386 8810 	msr	PRIMASK, r6
10001618:	bd70      	pop	{r4, r5, r6, pc}
1000161a:	00a2      	lsls	r2, r4, #2
1000161c:	4b0b      	ldr	r3, [pc, #44]	; (1000164c <hardware_alarm_set_callback+0x88>)
1000161e:	2100      	movs	r1, #0
10001620:	50d1      	str	r1, [r2, r3]
10001622:	2201      	movs	r2, #1
10001624:	40a2      	lsls	r2, r4
10001626:	490a      	ldr	r1, [pc, #40]	; (10001650 <hardware_alarm_set_callback+0x8c>)
10001628:	780b      	ldrb	r3, [r1, #0]
1000162a:	4393      	bics	r3, r2
1000162c:	700b      	strb	r3, [r1, #0]
1000162e:	4905      	ldr	r1, [pc, #20]	; (10001644 <hardware_alarm_set_callback+0x80>)
10001630:	0020      	movs	r0, r4
10001632:	f7ff f827 	bl	10000684 <irq_remove_handler>
10001636:	2100      	movs	r1, #0
10001638:	0020      	movs	r0, r4
1000163a:	f7fe ffe9 	bl	10000610 <irq_set_enabled>
1000163e:	e7e4      	b.n	1000160a <hardware_alarm_set_callback+0x46>
10001640:	d0000128 	.word	0xd0000128
10001644:	100014dd 	.word	0x100014dd
10001648:	40056038 	.word	0x40056038
1000164c:	20000e34 	.word	0x20000e34
10001650:	200010f6 	.word	0x200010f6

10001654 <hardware_alarm_set_target>:
10001654:	b5f0      	push	{r4, r5, r6, r7, lr}
10001656:	46de      	mov	lr, fp
10001658:	b500      	push	{lr}
1000165a:	b084      	sub	sp, #16
1000165c:	0004      	movs	r4, r0
1000165e:	0015      	movs	r5, r2
10001660:	9201      	str	r2, [sp, #4]
10001662:	001e      	movs	r6, r3
10001664:	9302      	str	r3, [sp, #8]
10001666:	f7ff ff8d 	bl	10001584 <time_us_64>
1000166a:	9503      	str	r5, [sp, #12]
1000166c:	428e      	cmp	r6, r1
1000166e:	d802      	bhi.n	10001676 <hardware_alarm_set_target+0x22>
10001670:	d14e      	bne.n	10001710 <hardware_alarm_set_target+0xbc>
10001672:	4285      	cmp	r5, r0
10001674:	d94c      	bls.n	10001710 <hardware_alarm_set_target+0xbc>
10001676:	f3ef 8b10 	mrs	fp, PRIMASK
1000167a:	b672      	cpsid	i
1000167c:	4b27      	ldr	r3, [pc, #156]	; (1000171c <hardware_alarm_set_target+0xc8>)
1000167e:	681b      	ldr	r3, [r3, #0]
10001680:	2b00      	cmp	r3, #0
10001682:	d0fb      	beq.n	1000167c <hardware_alarm_set_target+0x28>
10001684:	f3bf 8f5f 	dmb	sy
10001688:	4a25      	ldr	r2, [pc, #148]	; (10001720 <hardware_alarm_set_target+0xcc>)
1000168a:	7817      	ldrb	r7, [r2, #0]
1000168c:	2501      	movs	r5, #1
1000168e:	40a5      	lsls	r5, r4
10001690:	b2eb      	uxtb	r3, r5
10001692:	433b      	orrs	r3, r7
10001694:	7013      	strb	r3, [r2, #0]
10001696:	4b23      	ldr	r3, [pc, #140]	; (10001724 <hardware_alarm_set_target+0xd0>)
10001698:	635d      	str	r5, [r3, #52]	; 0x34
1000169a:	1d22      	adds	r2, r4, #4
1000169c:	0092      	lsls	r2, r2, #2
1000169e:	9901      	ldr	r1, [sp, #4]
100016a0:	50d1      	str	r1, [r2, r3]
100016a2:	00a2      	lsls	r2, r4, #2
100016a4:	4920      	ldr	r1, [pc, #128]	; (10001728 <hardware_alarm_set_target+0xd4>)
100016a6:	9802      	ldr	r0, [sp, #8]
100016a8:	5050      	str	r0, [r2, r1]
100016aa:	6a1b      	ldr	r3, [r3, #32]
100016ac:	422b      	tst	r3, r5
100016ae:	d112      	bne.n	100016d6 <hardware_alarm_set_target+0x82>
100016b0:	4b1c      	ldr	r3, [pc, #112]	; (10001724 <hardware_alarm_set_target+0xd0>)
100016b2:	6c1b      	ldr	r3, [r3, #64]	; 0x40
100016b4:	422b      	tst	r3, r5
100016b6:	d008      	beq.n	100016ca <hardware_alarm_set_target+0x76>
100016b8:	2000      	movs	r0, #0
100016ba:	f3bf 8f5f 	dmb	sy
100016be:	4b17      	ldr	r3, [pc, #92]	; (1000171c <hardware_alarm_set_target+0xc8>)
100016c0:	2200      	movs	r2, #0
100016c2:	601a      	str	r2, [r3, #0]
100016c4:	f38b 8810 	msr	PRIMASK, fp
100016c8:	e023      	b.n	10001712 <hardware_alarm_set_target+0xbe>
100016ca:	4b18      	ldr	r3, [pc, #96]	; (1000172c <hardware_alarm_set_target+0xd8>)
100016cc:	4a18      	ldr	r2, [pc, #96]	; (10001730 <hardware_alarm_set_target+0xdc>)
100016ce:	21c5      	movs	r1, #197	; 0xc5
100016d0:	4818      	ldr	r0, [pc, #96]	; (10001734 <hardware_alarm_set_target+0xe0>)
100016d2:	f000 fcd1 	bl	10002078 <__assert_func>
100016d6:	f7ff ff55 	bl	10001584 <time_us_64>
100016da:	428e      	cmp	r6, r1
100016dc:	d814      	bhi.n	10001708 <hardware_alarm_set_target+0xb4>
100016de:	d102      	bne.n	100016e6 <hardware_alarm_set_target+0x92>
100016e0:	9b03      	ldr	r3, [sp, #12]
100016e2:	4283      	cmp	r3, r0
100016e4:	d810      	bhi.n	10001708 <hardware_alarm_set_target+0xb4>
100016e6:	4b0e      	ldr	r3, [pc, #56]	; (10001720 <hardware_alarm_set_target+0xcc>)
100016e8:	781b      	ldrb	r3, [r3, #0]
100016ea:	42bb      	cmp	r3, r7
100016ec:	d00e      	beq.n	1000170c <hardware_alarm_set_target+0xb8>
100016ee:	4b0d      	ldr	r3, [pc, #52]	; (10001724 <hardware_alarm_set_target+0xd0>)
100016f0:	621d      	str	r5, [r3, #32]
100016f2:	635d      	str	r5, [r3, #52]	; 0x34
100016f4:	201f      	movs	r0, #31
100016f6:	4004      	ands	r4, r0
100016f8:	2301      	movs	r3, #1
100016fa:	40a3      	lsls	r3, r4
100016fc:	4a0e      	ldr	r2, [pc, #56]	; (10001738 <hardware_alarm_set_target+0xe4>)
100016fe:	6013      	str	r3, [r2, #0]
10001700:	4b07      	ldr	r3, [pc, #28]	; (10001720 <hardware_alarm_set_target+0xcc>)
10001702:	701f      	strb	r7, [r3, #0]
10001704:	381e      	subs	r0, #30
10001706:	e7d8      	b.n	100016ba <hardware_alarm_set_target+0x66>
10001708:	2000      	movs	r0, #0
1000170a:	e7d6      	b.n	100016ba <hardware_alarm_set_target+0x66>
1000170c:	2001      	movs	r0, #1
1000170e:	e7d4      	b.n	100016ba <hardware_alarm_set_target+0x66>
10001710:	2001      	movs	r0, #1
10001712:	b004      	add	sp, #16
10001714:	bc80      	pop	{r7}
10001716:	46bb      	mov	fp, r7
10001718:	bdf0      	pop	{r4, r5, r6, r7, pc}
1000171a:	46c0      	nop			; (mov r8, r8)
1000171c:	d0000128 	.word	0xd0000128
10001720:	200010f6 	.word	0x200010f6
10001724:	40054000 	.word	0x40054000
10001728:	200010dc 	.word	0x200010dc
1000172c:	10007ad0 	.word	0x10007ad0
10001730:	10007b2c 	.word	0x10007b2c
10001734:	10007af4 	.word	0x10007af4
10001738:	e000e280 	.word	0xe000e280

1000173c <hardware_alarm_cancel>:
1000173c:	f3ef 8c10 	mrs	ip, PRIMASK
10001740:	b672      	cpsid	i
10001742:	4b0b      	ldr	r3, [pc, #44]	; (10001770 <hardware_alarm_cancel+0x34>)
10001744:	681b      	ldr	r3, [r3, #0]
10001746:	2b00      	cmp	r3, #0
10001748:	d0fb      	beq.n	10001742 <hardware_alarm_cancel+0x6>
1000174a:	f3bf 8f5f 	dmb	sy
1000174e:	2301      	movs	r3, #1
10001750:	4083      	lsls	r3, r0
10001752:	4a08      	ldr	r2, [pc, #32]	; (10001774 <hardware_alarm_cancel+0x38>)
10001754:	6213      	str	r3, [r2, #32]
10001756:	4908      	ldr	r1, [pc, #32]	; (10001778 <hardware_alarm_cancel+0x3c>)
10001758:	780a      	ldrb	r2, [r1, #0]
1000175a:	439a      	bics	r2, r3
1000175c:	700a      	strb	r2, [r1, #0]
1000175e:	f3bf 8f5f 	dmb	sy
10001762:	4b03      	ldr	r3, [pc, #12]	; (10001770 <hardware_alarm_cancel+0x34>)
10001764:	2200      	movs	r2, #0
10001766:	601a      	str	r2, [r3, #0]
10001768:	f38c 8810 	msr	PRIMASK, ip
1000176c:	4770      	bx	lr
1000176e:	46c0      	nop			; (mov r8, r8)
10001770:	d0000128 	.word	0xd0000128
10001774:	40054000 	.word	0x40054000
10001778:	200010f6 	.word	0x200010f6

1000177c <ph_add_child_node>:
1000177c:	b510      	push	{r4, lr}
1000177e:	2900      	cmp	r1, #0
10001780:	d01e      	beq.n	100017c0 <ph_add_child_node+0x44>
10001782:	7b03      	ldrb	r3, [r0, #12]
10001784:	4299      	cmp	r1, r3
10001786:	d81b      	bhi.n	100017c0 <ph_add_child_node+0x44>
10001788:	004b      	lsls	r3, r1, #1
1000178a:	185b      	adds	r3, r3, r1
1000178c:	3b03      	subs	r3, #3
1000178e:	6804      	ldr	r4, [r0, #0]
10001790:	46a4      	mov	ip, r4
10001792:	4463      	add	r3, ip
10001794:	2900      	cmp	r1, #0
10001796:	d019      	beq.n	100017cc <ph_add_child_node+0x50>
10001798:	2a00      	cmp	r2, #0
1000179a:	d01d      	beq.n	100017d8 <ph_add_child_node+0x5c>
1000179c:	4291      	cmp	r1, r2
1000179e:	d021      	beq.n	100017e4 <ph_add_child_node+0x68>
100017a0:	2a00      	cmp	r2, #0
100017a2:	d025      	beq.n	100017f0 <ph_add_child_node+0x74>
100017a4:	7b04      	ldrb	r4, [r0, #12]
100017a6:	42a2      	cmp	r2, r4
100017a8:	d822      	bhi.n	100017f0 <ph_add_child_node+0x74>
100017aa:	6804      	ldr	r4, [r0, #0]
100017ac:	0050      	lsls	r0, r2, #1
100017ae:	1880      	adds	r0, r0, r2
100017b0:	3803      	subs	r0, #3
100017b2:	1820      	adds	r0, r4, r0
100017b4:	7081      	strb	r1, [r0, #2]
100017b6:	7819      	ldrb	r1, [r3, #0]
100017b8:	2900      	cmp	r1, #0
100017ba:	d11f      	bne.n	100017fc <ph_add_child_node+0x80>
100017bc:	701a      	strb	r2, [r3, #0]
100017be:	bd10      	pop	{r4, pc}
100017c0:	4b10      	ldr	r3, [pc, #64]	; (10001804 <ph_add_child_node+0x88>)
100017c2:	4a11      	ldr	r2, [pc, #68]	; (10001808 <ph_add_child_node+0x8c>)
100017c4:	2168      	movs	r1, #104	; 0x68
100017c6:	4811      	ldr	r0, [pc, #68]	; (1000180c <ph_add_child_node+0x90>)
100017c8:	f000 fc56 	bl	10002078 <__assert_func>
100017cc:	4b10      	ldr	r3, [pc, #64]	; (10001810 <ph_add_child_node+0x94>)
100017ce:	4a11      	ldr	r2, [pc, #68]	; (10001814 <ph_add_child_node+0x98>)
100017d0:	316f      	adds	r1, #111	; 0x6f
100017d2:	480e      	ldr	r0, [pc, #56]	; (1000180c <ph_add_child_node+0x90>)
100017d4:	f000 fc50 	bl	10002078 <__assert_func>
100017d8:	4b0f      	ldr	r3, [pc, #60]	; (10001818 <ph_add_child_node+0x9c>)
100017da:	4a0e      	ldr	r2, [pc, #56]	; (10001814 <ph_add_child_node+0x98>)
100017dc:	2170      	movs	r1, #112	; 0x70
100017de:	480b      	ldr	r0, [pc, #44]	; (1000180c <ph_add_child_node+0x90>)
100017e0:	f000 fc4a 	bl	10002078 <__assert_func>
100017e4:	4b0d      	ldr	r3, [pc, #52]	; (1000181c <ph_add_child_node+0xa0>)
100017e6:	4a0b      	ldr	r2, [pc, #44]	; (10001814 <ph_add_child_node+0x98>)
100017e8:	2171      	movs	r1, #113	; 0x71
100017ea:	4808      	ldr	r0, [pc, #32]	; (1000180c <ph_add_child_node+0x90>)
100017ec:	f000 fc44 	bl	10002078 <__assert_func>
100017f0:	4b04      	ldr	r3, [pc, #16]	; (10001804 <ph_add_child_node+0x88>)
100017f2:	4a05      	ldr	r2, [pc, #20]	; (10001808 <ph_add_child_node+0x8c>)
100017f4:	2168      	movs	r1, #104	; 0x68
100017f6:	4805      	ldr	r0, [pc, #20]	; (1000180c <ph_add_child_node+0x90>)
100017f8:	f000 fc3e 	bl	10002078 <__assert_func>
100017fc:	7041      	strb	r1, [r0, #1]
100017fe:	701a      	strb	r2, [r3, #0]
10001800:	e7dd      	b.n	100017be <ph_add_child_node+0x42>
10001802:	46c0      	nop			; (mov r8, r8)
10001804:	100077e8 	.word	0x100077e8
10001808:	10007c2c 	.word	0x10007c2c
1000180c:	10007804 	.word	0x10007804
10001810:	10007844 	.word	0x10007844
10001814:	10007c18 	.word	0x10007c18
10001818:	10007850 	.word	0x10007850
1000181c:	1000785c 	.word	0x1000785c

10001820 <ph_merge_nodes>:
10001820:	b570      	push	{r4, r5, r6, lr}
10001822:	0006      	movs	r6, r0
10001824:	000d      	movs	r5, r1
10001826:	0014      	movs	r4, r2
10001828:	2900      	cmp	r1, #0
1000182a:	d014      	beq.n	10001856 <ph_merge_nodes+0x36>
1000182c:	2a00      	cmp	r2, #0
1000182e:	d014      	beq.n	1000185a <ph_merge_nodes+0x3a>
10001830:	6880      	ldr	r0, [r0, #8]
10001832:	6873      	ldr	r3, [r6, #4]
10001834:	4798      	blx	r3
10001836:	2800      	cmp	r0, #0
10001838:	d006      	beq.n	10001848 <ph_merge_nodes+0x28>
1000183a:	0022      	movs	r2, r4
1000183c:	0029      	movs	r1, r5
1000183e:	0030      	movs	r0, r6
10001840:	f7ff ff9c 	bl	1000177c <ph_add_child_node>
10001844:	0028      	movs	r0, r5
10001846:	e007      	b.n	10001858 <ph_merge_nodes+0x38>
10001848:	002a      	movs	r2, r5
1000184a:	0021      	movs	r1, r4
1000184c:	0030      	movs	r0, r6
1000184e:	f7ff ff95 	bl	1000177c <ph_add_child_node>
10001852:	0020      	movs	r0, r4
10001854:	e000      	b.n	10001858 <ph_merge_nodes+0x38>
10001856:	0010      	movs	r0, r2
10001858:	bd70      	pop	{r4, r5, r6, pc}
1000185a:	0008      	movs	r0, r1
1000185c:	e7fc      	b.n	10001858 <ph_merge_nodes+0x38>
	...

10001860 <ph_clear>:
10001860:	b510      	push	{r4, lr}
10001862:	2300      	movs	r3, #0
10001864:	7343      	strb	r3, [r0, #13]
10001866:	3301      	adds	r3, #1
10001868:	7383      	strb	r3, [r0, #14]
1000186a:	7b03      	ldrb	r3, [r0, #12]
1000186c:	73c3      	strb	r3, [r0, #15]
1000186e:	2301      	movs	r3, #1
10001870:	7b02      	ldrb	r2, [r0, #12]
10001872:	429a      	cmp	r2, r3
10001874:	d914      	bls.n	100018a0 <ph_clear+0x40>
10001876:	2b00      	cmp	r3, #0
10001878:	d00c      	beq.n	10001894 <ph_clear+0x34>
1000187a:	7b02      	ldrb	r2, [r0, #12]
1000187c:	4293      	cmp	r3, r2
1000187e:	d809      	bhi.n	10001894 <ph_clear+0x34>
10001880:	005a      	lsls	r2, r3, #1
10001882:	18d2      	adds	r2, r2, r3
10001884:	3a03      	subs	r2, #3
10001886:	6801      	ldr	r1, [r0, #0]
10001888:	468c      	mov	ip, r1
1000188a:	4462      	add	r2, ip
1000188c:	3301      	adds	r3, #1
1000188e:	b2db      	uxtb	r3, r3
10001890:	7053      	strb	r3, [r2, #1]
10001892:	e7ed      	b.n	10001870 <ph_clear+0x10>
10001894:	4b0b      	ldr	r3, [pc, #44]	; (100018c4 <ph_clear+0x64>)
10001896:	4a0c      	ldr	r2, [pc, #48]	; (100018c8 <ph_clear+0x68>)
10001898:	2168      	movs	r1, #104	; 0x68
1000189a:	480c      	ldr	r0, [pc, #48]	; (100018cc <ph_clear+0x6c>)
1000189c:	f000 fbec 	bl	10002078 <__assert_func>
100018a0:	2a00      	cmp	r2, #0
100018a2:	d009      	beq.n	100018b8 <ph_clear+0x58>
100018a4:	4292      	cmp	r2, r2
100018a6:	d807      	bhi.n	100018b8 <ph_clear+0x58>
100018a8:	6801      	ldr	r1, [r0, #0]
100018aa:	0053      	lsls	r3, r2, #1
100018ac:	189a      	adds	r2, r3, r2
100018ae:	3a03      	subs	r2, #3
100018b0:	188a      	adds	r2, r1, r2
100018b2:	2300      	movs	r3, #0
100018b4:	7053      	strb	r3, [r2, #1]
100018b6:	bd10      	pop	{r4, pc}
100018b8:	4b02      	ldr	r3, [pc, #8]	; (100018c4 <ph_clear+0x64>)
100018ba:	4a03      	ldr	r2, [pc, #12]	; (100018c8 <ph_clear+0x68>)
100018bc:	2168      	movs	r1, #104	; 0x68
100018be:	4803      	ldr	r0, [pc, #12]	; (100018cc <ph_clear+0x6c>)
100018c0:	f000 fbda 	bl	10002078 <__assert_func>
100018c4:	100077e8 	.word	0x100077e8
100018c8:	10007c2c 	.word	0x10007c2c
100018cc:	10007804 	.word	0x10007804

100018d0 <ph_post_alloc_init>:
100018d0:	b510      	push	{r4, lr}
100018d2:	7301      	strb	r1, [r0, #12]
100018d4:	6042      	str	r2, [r0, #4]
100018d6:	6083      	str	r3, [r0, #8]
100018d8:	f7ff ffc2 	bl	10001860 <ph_clear>
100018dc:	bd10      	pop	{r4, pc}
	...

100018e0 <ph_merge_two_pass>:
100018e0:	b570      	push	{r4, r5, r6, lr}
100018e2:	0004      	movs	r4, r0
100018e4:	1e08      	subs	r0, r1, #0
100018e6:	d100      	bne.n	100018ea <ph_merge_two_pass+0xa>
100018e8:	bd70      	pop	{r4, r5, r6, pc}
100018ea:	2900      	cmp	r1, #0
100018ec:	d034      	beq.n	10001958 <ph_merge_two_pass+0x78>
100018ee:	7b23      	ldrb	r3, [r4, #12]
100018f0:	4299      	cmp	r1, r3
100018f2:	d831      	bhi.n	10001958 <ph_merge_two_pass+0x78>
100018f4:	004b      	lsls	r3, r1, #1
100018f6:	185b      	adds	r3, r3, r1
100018f8:	3b03      	subs	r3, #3
100018fa:	6822      	ldr	r2, [r4, #0]
100018fc:	4694      	mov	ip, r2
100018fe:	4463      	add	r3, ip
10001900:	785a      	ldrb	r2, [r3, #1]
10001902:	2a00      	cmp	r2, #0
10001904:	d0f0      	beq.n	100018e8 <ph_merge_two_pass+0x8>
10001906:	d02d      	beq.n	10001964 <ph_merge_two_pass+0x84>
10001908:	7b23      	ldrb	r3, [r4, #12]
1000190a:	429a      	cmp	r2, r3
1000190c:	d82a      	bhi.n	10001964 <ph_merge_two_pass+0x84>
1000190e:	0053      	lsls	r3, r2, #1
10001910:	189b      	adds	r3, r3, r2
10001912:	3b03      	subs	r3, #3
10001914:	6821      	ldr	r1, [r4, #0]
10001916:	468c      	mov	ip, r1
10001918:	4463      	add	r3, ip
1000191a:	785d      	ldrb	r5, [r3, #1]
1000191c:	2100      	movs	r1, #0
1000191e:	7059      	strb	r1, [r3, #1]
10001920:	2800      	cmp	r0, #0
10001922:	d025      	beq.n	10001970 <ph_merge_two_pass+0x90>
10001924:	7b23      	ldrb	r3, [r4, #12]
10001926:	4298      	cmp	r0, r3
10001928:	d822      	bhi.n	10001970 <ph_merge_two_pass+0x90>
1000192a:	0043      	lsls	r3, r0, #1
1000192c:	181b      	adds	r3, r3, r0
1000192e:	3b03      	subs	r3, #3
10001930:	6821      	ldr	r1, [r4, #0]
10001932:	468c      	mov	ip, r1
10001934:	4463      	add	r3, ip
10001936:	2100      	movs	r1, #0
10001938:	7059      	strb	r1, [r3, #1]
1000193a:	0001      	movs	r1, r0
1000193c:	0020      	movs	r0, r4
1000193e:	f7ff ff6f 	bl	10001820 <ph_merge_nodes>
10001942:	0006      	movs	r6, r0
10001944:	0029      	movs	r1, r5
10001946:	0020      	movs	r0, r4
10001948:	f7ff ffca 	bl	100018e0 <ph_merge_two_pass>
1000194c:	0002      	movs	r2, r0
1000194e:	0031      	movs	r1, r6
10001950:	0020      	movs	r0, r4
10001952:	f7ff ff65 	bl	10001820 <ph_merge_nodes>
10001956:	e7c7      	b.n	100018e8 <ph_merge_two_pass+0x8>
10001958:	4b08      	ldr	r3, [pc, #32]	; (1000197c <ph_merge_two_pass+0x9c>)
1000195a:	4a09      	ldr	r2, [pc, #36]	; (10001980 <ph_merge_two_pass+0xa0>)
1000195c:	2168      	movs	r1, #104	; 0x68
1000195e:	4809      	ldr	r0, [pc, #36]	; (10001984 <ph_merge_two_pass+0xa4>)
10001960:	f000 fb8a 	bl	10002078 <__assert_func>
10001964:	4b05      	ldr	r3, [pc, #20]	; (1000197c <ph_merge_two_pass+0x9c>)
10001966:	4a06      	ldr	r2, [pc, #24]	; (10001980 <ph_merge_two_pass+0xa0>)
10001968:	2168      	movs	r1, #104	; 0x68
1000196a:	4806      	ldr	r0, [pc, #24]	; (10001984 <ph_merge_two_pass+0xa4>)
1000196c:	f000 fb84 	bl	10002078 <__assert_func>
10001970:	4b02      	ldr	r3, [pc, #8]	; (1000197c <ph_merge_two_pass+0x9c>)
10001972:	4a03      	ldr	r2, [pc, #12]	; (10001980 <ph_merge_two_pass+0xa0>)
10001974:	2168      	movs	r1, #104	; 0x68
10001976:	4803      	ldr	r0, [pc, #12]	; (10001984 <ph_merge_two_pass+0xa4>)
10001978:	f000 fb7e 	bl	10002078 <__assert_func>
1000197c:	100077e8 	.word	0x100077e8
10001980:	10007c2c 	.word	0x10007c2c
10001984:	10007804 	.word	0x10007804

10001988 <ph_remove_any_head>:
10001988:	b570      	push	{r4, r5, r6, lr}
1000198a:	0005      	movs	r5, r0
1000198c:	000c      	movs	r4, r1
1000198e:	0016      	movs	r6, r2
10001990:	2900      	cmp	r1, #0
10001992:	d02f      	beq.n	100019f4 <ph_remove_any_head+0x6c>
10001994:	d034      	beq.n	10001a00 <ph_remove_any_head+0x78>
10001996:	7b03      	ldrb	r3, [r0, #12]
10001998:	4299      	cmp	r1, r3
1000199a:	d831      	bhi.n	10001a00 <ph_remove_any_head+0x78>
1000199c:	004b      	lsls	r3, r1, #1
1000199e:	185b      	adds	r3, r3, r1
100019a0:	3b03      	subs	r3, #3
100019a2:	6802      	ldr	r2, [r0, #0]
100019a4:	4694      	mov	ip, r2
100019a6:	4463      	add	r3, ip
100019a8:	785a      	ldrb	r2, [r3, #1]
100019aa:	2a00      	cmp	r2, #0
100019ac:	d12e      	bne.n	10001a0c <ph_remove_any_head+0x84>
100019ae:	789a      	ldrb	r2, [r3, #2]
100019b0:	2a00      	cmp	r2, #0
100019b2:	d131      	bne.n	10001a18 <ph_remove_any_head+0x90>
100019b4:	7819      	ldrb	r1, [r3, #0]
100019b6:	f7ff ff93 	bl	100018e0 <ph_merge_two_pass>
100019ba:	0003      	movs	r3, r0
100019bc:	2e00      	cmp	r6, #0
100019be:	d00a      	beq.n	100019d6 <ph_remove_any_head+0x4e>
100019c0:	7bea      	ldrb	r2, [r5, #15]
100019c2:	2a00      	cmp	r2, #0
100019c4:	d12e      	bne.n	10001a24 <ph_remove_any_head+0x9c>
100019c6:	7baa      	ldrb	r2, [r5, #14]
100019c8:	2a00      	cmp	r2, #0
100019ca:	d103      	bne.n	100019d4 <ph_remove_any_head+0x4c>
100019cc:	7bea      	ldrb	r2, [r5, #15]
100019ce:	2a00      	cmp	r2, #0
100019d0:	d13b      	bne.n	10001a4a <ph_remove_any_head+0xc2>
100019d2:	73ac      	strb	r4, [r5, #14]
100019d4:	73ec      	strb	r4, [r5, #15]
100019d6:	2b00      	cmp	r3, #0
100019d8:	d13d      	bne.n	10001a56 <ph_remove_any_head+0xce>
100019da:	2c00      	cmp	r4, #0
100019dc:	d04f      	beq.n	10001a7e <ph_remove_any_head+0xf6>
100019de:	7b2b      	ldrb	r3, [r5, #12]
100019e0:	429c      	cmp	r4, r3
100019e2:	d84c      	bhi.n	10001a7e <ph_remove_any_head+0xf6>
100019e4:	682b      	ldr	r3, [r5, #0]
100019e6:	0061      	lsls	r1, r4, #1
100019e8:	190c      	adds	r4, r1, r4
100019ea:	3c03      	subs	r4, #3
100019ec:	191c      	adds	r4, r3, r4
100019ee:	2300      	movs	r3, #0
100019f0:	7063      	strb	r3, [r4, #1]
100019f2:	bd70      	pop	{r4, r5, r6, pc}
100019f4:	4b25      	ldr	r3, [pc, #148]	; (10001a8c <ph_remove_any_head+0x104>)
100019f6:	4a26      	ldr	r2, [pc, #152]	; (10001a90 <ph_remove_any_head+0x108>)
100019f8:	2138      	movs	r1, #56	; 0x38
100019fa:	4826      	ldr	r0, [pc, #152]	; (10001a94 <ph_remove_any_head+0x10c>)
100019fc:	f000 fb3c 	bl	10002078 <__assert_func>
10001a00:	4b25      	ldr	r3, [pc, #148]	; (10001a98 <ph_remove_any_head+0x110>)
10001a02:	4a26      	ldr	r2, [pc, #152]	; (10001a9c <ph_remove_any_head+0x114>)
10001a04:	2168      	movs	r1, #104	; 0x68
10001a06:	4826      	ldr	r0, [pc, #152]	; (10001aa0 <ph_remove_any_head+0x118>)
10001a08:	f000 fb36 	bl	10002078 <__assert_func>
10001a0c:	4b25      	ldr	r3, [pc, #148]	; (10001aa4 <ph_remove_any_head+0x11c>)
10001a0e:	4a20      	ldr	r2, [pc, #128]	; (10001a90 <ph_remove_any_head+0x108>)
10001a10:	213a      	movs	r1, #58	; 0x3a
10001a12:	4820      	ldr	r0, [pc, #128]	; (10001a94 <ph_remove_any_head+0x10c>)
10001a14:	f000 fb30 	bl	10002078 <__assert_func>
10001a18:	4b23      	ldr	r3, [pc, #140]	; (10001aa8 <ph_remove_any_head+0x120>)
10001a1a:	4a1d      	ldr	r2, [pc, #116]	; (10001a90 <ph_remove_any_head+0x108>)
10001a1c:	213b      	movs	r1, #59	; 0x3b
10001a1e:	481d      	ldr	r0, [pc, #116]	; (10001a94 <ph_remove_any_head+0x10c>)
10001a20:	f000 fb2a 	bl	10002078 <__assert_func>
10001a24:	2a00      	cmp	r2, #0
10001a26:	d00a      	beq.n	10001a3e <ph_remove_any_head+0xb6>
10001a28:	7b29      	ldrb	r1, [r5, #12]
10001a2a:	428a      	cmp	r2, r1
10001a2c:	d807      	bhi.n	10001a3e <ph_remove_any_head+0xb6>
10001a2e:	0051      	lsls	r1, r2, #1
10001a30:	188a      	adds	r2, r1, r2
10001a32:	3a03      	subs	r2, #3
10001a34:	6829      	ldr	r1, [r5, #0]
10001a36:	468c      	mov	ip, r1
10001a38:	4462      	add	r2, ip
10001a3a:	7054      	strb	r4, [r2, #1]
10001a3c:	e7c3      	b.n	100019c6 <ph_remove_any_head+0x3e>
10001a3e:	4b16      	ldr	r3, [pc, #88]	; (10001a98 <ph_remove_any_head+0x110>)
10001a40:	4a16      	ldr	r2, [pc, #88]	; (10001a9c <ph_remove_any_head+0x114>)
10001a42:	2168      	movs	r1, #104	; 0x68
10001a44:	4816      	ldr	r0, [pc, #88]	; (10001aa0 <ph_remove_any_head+0x118>)
10001a46:	f000 fb17 	bl	10002078 <__assert_func>
10001a4a:	4b18      	ldr	r3, [pc, #96]	; (10001aac <ph_remove_any_head+0x124>)
10001a4c:	4a10      	ldr	r2, [pc, #64]	; (10001a90 <ph_remove_any_head+0x108>)
10001a4e:	2142      	movs	r1, #66	; 0x42
10001a50:	4810      	ldr	r0, [pc, #64]	; (10001a94 <ph_remove_any_head+0x10c>)
10001a52:	f000 fb11 	bl	10002078 <__assert_func>
10001a56:	2b00      	cmp	r3, #0
10001a58:	d00b      	beq.n	10001a72 <ph_remove_any_head+0xea>
10001a5a:	7b2a      	ldrb	r2, [r5, #12]
10001a5c:	4293      	cmp	r3, r2
10001a5e:	d808      	bhi.n	10001a72 <ph_remove_any_head+0xea>
10001a60:	0043      	lsls	r3, r0, #1
10001a62:	181b      	adds	r3, r3, r0
10001a64:	3b03      	subs	r3, #3
10001a66:	682a      	ldr	r2, [r5, #0]
10001a68:	4694      	mov	ip, r2
10001a6a:	4463      	add	r3, ip
10001a6c:	2200      	movs	r2, #0
10001a6e:	709a      	strb	r2, [r3, #2]
10001a70:	e7b3      	b.n	100019da <ph_remove_any_head+0x52>
10001a72:	4b09      	ldr	r3, [pc, #36]	; (10001a98 <ph_remove_any_head+0x110>)
10001a74:	4a09      	ldr	r2, [pc, #36]	; (10001a9c <ph_remove_any_head+0x114>)
10001a76:	2168      	movs	r1, #104	; 0x68
10001a78:	4809      	ldr	r0, [pc, #36]	; (10001aa0 <ph_remove_any_head+0x118>)
10001a7a:	f000 fafd 	bl	10002078 <__assert_func>
10001a7e:	4b06      	ldr	r3, [pc, #24]	; (10001a98 <ph_remove_any_head+0x110>)
10001a80:	4a06      	ldr	r2, [pc, #24]	; (10001a9c <ph_remove_any_head+0x114>)
10001a82:	2168      	movs	r1, #104	; 0x68
10001a84:	4806      	ldr	r0, [pc, #24]	; (10001aa0 <ph_remove_any_head+0x118>)
10001a86:	f000 faf7 	bl	10002078 <__assert_func>
10001a8a:	46c0      	nop			; (mov r8, r8)
10001a8c:	10007b48 	.word	0x10007b48
10001a90:	10007c04 	.word	0x10007c04
10001a94:	10007b50 	.word	0x10007b50
10001a98:	100077e8 	.word	0x100077e8
10001a9c:	10007c2c 	.word	0x10007c2c
10001aa0:	10007804 	.word	0x10007804
10001aa4:	10007b80 	.word	0x10007b80
10001aa8:	10007ba8 	.word	0x10007ba8
10001aac:	10007920 	.word	0x10007920

10001ab0 <ph_remove_head>:
10001ab0:	b570      	push	{r4, r5, r6, lr}
10001ab2:	0004      	movs	r4, r0
10001ab4:	000a      	movs	r2, r1
10001ab6:	7b45      	ldrb	r5, [r0, #13]
10001ab8:	0029      	movs	r1, r5
10001aba:	f7ff ff65 	bl	10001988 <ph_remove_any_head>
10001abe:	7360      	strb	r0, [r4, #13]
10001ac0:	0028      	movs	r0, r5
10001ac2:	bd70      	pop	{r4, r5, r6, pc}

10001ac4 <ph_remove_and_free_node>:
10001ac4:	b570      	push	{r4, r5, r6, lr}
10001ac6:	0004      	movs	r4, r0
10001ac8:	2900      	cmp	r1, #0
10001aca:	d067      	beq.n	10001b9c <ph_remove_and_free_node+0xd8>
10001acc:	7b43      	ldrb	r3, [r0, #13]
10001ace:	428b      	cmp	r3, r1
10001ad0:	d00e      	beq.n	10001af0 <ph_remove_and_free_node+0x2c>
10001ad2:	2900      	cmp	r1, #0
10001ad4:	d011      	beq.n	10001afa <ph_remove_and_free_node+0x36>
10001ad6:	7b03      	ldrb	r3, [r0, #12]
10001ad8:	4299      	cmp	r1, r3
10001ada:	d80e      	bhi.n	10001afa <ph_remove_and_free_node+0x36>
10001adc:	004b      	lsls	r3, r1, #1
10001ade:	185b      	adds	r3, r3, r1
10001ae0:	3b03      	subs	r3, #3
10001ae2:	6802      	ldr	r2, [r0, #0]
10001ae4:	18d0      	adds	r0, r2, r3
10001ae6:	7883      	ldrb	r3, [r0, #2]
10001ae8:	2b00      	cmp	r3, #0
10001aea:	d10c      	bne.n	10001b06 <ph_remove_and_free_node+0x42>
10001aec:	2000      	movs	r0, #0
10001aee:	e056      	b.n	10001b9e <ph_remove_and_free_node+0xda>
10001af0:	2101      	movs	r1, #1
10001af2:	f7ff ffdd 	bl	10001ab0 <ph_remove_head>
10001af6:	2001      	movs	r0, #1
10001af8:	e051      	b.n	10001b9e <ph_remove_and_free_node+0xda>
10001afa:	4b29      	ldr	r3, [pc, #164]	; (10001ba0 <ph_remove_and_free_node+0xdc>)
10001afc:	4a29      	ldr	r2, [pc, #164]	; (10001ba4 <ph_remove_and_free_node+0xe0>)
10001afe:	2168      	movs	r1, #104	; 0x68
10001b00:	4829      	ldr	r0, [pc, #164]	; (10001ba8 <ph_remove_and_free_node+0xe4>)
10001b02:	f000 fab9 	bl	10002078 <__assert_func>
10001b06:	2b00      	cmp	r3, #0
10001b08:	d020      	beq.n	10001b4c <ph_remove_and_free_node+0x88>
10001b0a:	7b22      	ldrb	r2, [r4, #12]
10001b0c:	4293      	cmp	r3, r2
10001b0e:	d81d      	bhi.n	10001b4c <ph_remove_and_free_node+0x88>
10001b10:	005a      	lsls	r2, r3, #1
10001b12:	18d3      	adds	r3, r2, r3
10001b14:	3b03      	subs	r3, #3
10001b16:	6822      	ldr	r2, [r4, #0]
10001b18:	18d2      	adds	r2, r2, r3
10001b1a:	6825      	ldr	r5, [r4, #0]
10001b1c:	5ceb      	ldrb	r3, [r5, r3]
10001b1e:	428b      	cmp	r3, r1
10001b20:	d01a      	beq.n	10001b58 <ph_remove_and_free_node+0x94>
10001b22:	2b00      	cmp	r3, #0
10001b24:	d01b      	beq.n	10001b5e <ph_remove_and_free_node+0x9a>
10001b26:	7b22      	ldrb	r2, [r4, #12]
10001b28:	4293      	cmp	r3, r2
10001b2a:	d818      	bhi.n	10001b5e <ph_remove_and_free_node+0x9a>
10001b2c:	005a      	lsls	r2, r3, #1
10001b2e:	18d3      	adds	r3, r2, r3
10001b30:	3b03      	subs	r3, #3
10001b32:	6822      	ldr	r2, [r4, #0]
10001b34:	18d2      	adds	r2, r2, r3
10001b36:	7853      	ldrb	r3, [r2, #1]
10001b38:	428b      	cmp	r3, r1
10001b3a:	d016      	beq.n	10001b6a <ph_remove_and_free_node+0xa6>
10001b3c:	2b00      	cmp	r3, #0
10001b3e:	d1f0      	bne.n	10001b22 <ph_remove_and_free_node+0x5e>
10001b40:	4b1a      	ldr	r3, [pc, #104]	; (10001bac <ph_remove_and_free_node+0xe8>)
10001b42:	4a1b      	ldr	r2, [pc, #108]	; (10001bb0 <ph_remove_and_free_node+0xec>)
10001b44:	216b      	movs	r1, #107	; 0x6b
10001b46:	481b      	ldr	r0, [pc, #108]	; (10001bb4 <ph_remove_and_free_node+0xf0>)
10001b48:	f000 fa96 	bl	10002078 <__assert_func>
10001b4c:	4b14      	ldr	r3, [pc, #80]	; (10001ba0 <ph_remove_and_free_node+0xdc>)
10001b4e:	4a15      	ldr	r2, [pc, #84]	; (10001ba4 <ph_remove_and_free_node+0xe0>)
10001b50:	2168      	movs	r1, #104	; 0x68
10001b52:	4815      	ldr	r0, [pc, #84]	; (10001ba8 <ph_remove_and_free_node+0xe4>)
10001b54:	f000 fa90 	bl	10002078 <__assert_func>
10001b58:	7843      	ldrb	r3, [r0, #1]
10001b5a:	7013      	strb	r3, [r2, #0]
10001b5c:	e007      	b.n	10001b6e <ph_remove_and_free_node+0xaa>
10001b5e:	4b10      	ldr	r3, [pc, #64]	; (10001ba0 <ph_remove_and_free_node+0xdc>)
10001b60:	4a10      	ldr	r2, [pc, #64]	; (10001ba4 <ph_remove_and_free_node+0xe0>)
10001b62:	2168      	movs	r1, #104	; 0x68
10001b64:	4810      	ldr	r0, [pc, #64]	; (10001ba8 <ph_remove_and_free_node+0xe4>)
10001b66:	f000 fa87 	bl	10002078 <__assert_func>
10001b6a:	7843      	ldrb	r3, [r0, #1]
10001b6c:	7053      	strb	r3, [r2, #1]
10001b6e:	2300      	movs	r3, #0
10001b70:	7083      	strb	r3, [r0, #2]
10001b72:	7043      	strb	r3, [r0, #1]
10001b74:	2201      	movs	r2, #1
10001b76:	0020      	movs	r0, r4
10001b78:	f7ff ff06 	bl	10001988 <ph_remove_any_head>
10001b7c:	0002      	movs	r2, r0
10001b7e:	7b61      	ldrb	r1, [r4, #13]
10001b80:	4281      	cmp	r1, r0
10001b82:	d005      	beq.n	10001b90 <ph_remove_and_free_node+0xcc>
10001b84:	0020      	movs	r0, r4
10001b86:	f7ff fe4b 	bl	10001820 <ph_merge_nodes>
10001b8a:	7360      	strb	r0, [r4, #13]
10001b8c:	2001      	movs	r0, #1
10001b8e:	e006      	b.n	10001b9e <ph_remove_and_free_node+0xda>
10001b90:	4b09      	ldr	r3, [pc, #36]	; (10001bb8 <ph_remove_and_free_node+0xf4>)
10001b92:	4a07      	ldr	r2, [pc, #28]	; (10001bb0 <ph_remove_and_free_node+0xec>)
10001b94:	2171      	movs	r1, #113	; 0x71
10001b96:	4807      	ldr	r0, [pc, #28]	; (10001bb4 <ph_remove_and_free_node+0xf0>)
10001b98:	f000 fa6e 	bl	10002078 <__assert_func>
10001b9c:	2000      	movs	r0, #0
10001b9e:	bd70      	pop	{r4, r5, r6, pc}
10001ba0:	100077e8 	.word	0x100077e8
10001ba4:	10007c2c 	.word	0x10007c2c
10001ba8:	10007804 	.word	0x10007804
10001bac:	100075f8 	.word	0x100075f8
10001bb0:	10007bec 	.word	0x10007bec
10001bb4:	10007b50 	.word	0x10007b50
10001bb8:	10007bcc 	.word	0x10007bcc

10001bbc <uart_set_baudrate>:
10001bbc:	b570      	push	{r4, r5, r6, lr}
10001bbe:	0004      	movs	r4, r0
10001bc0:	000d      	movs	r5, r1
10001bc2:	2006      	movs	r0, #6
10001bc4:	f000 f97e 	bl	10001ec4 <clock_get_hz>
10001bc8:	00c0      	lsls	r0, r0, #3
10001bca:	0029      	movs	r1, r5
10001bcc:	f001 fc02 	bl	100033d4 <__wrap___aeabi_uidiv>
10001bd0:	09c6      	lsrs	r6, r0, #7
10001bd2:	d008      	beq.n	10001be6 <uart_set_baudrate+0x2a>
10001bd4:	4b0e      	ldr	r3, [pc, #56]	; (10001c10 <uart_set_baudrate+0x54>)
10001bd6:	429e      	cmp	r6, r3
10001bd8:	d817      	bhi.n	10001c0a <uart_set_baudrate+0x4e>
10001bda:	237f      	movs	r3, #127	; 0x7f
10001bdc:	4018      	ands	r0, r3
10001bde:	3001      	adds	r0, #1
10001be0:	0035      	movs	r5, r6
10001be2:	0846      	lsrs	r6, r0, #1
10001be4:	e000      	b.n	10001be8 <uart_set_baudrate+0x2c>
10001be6:	2501      	movs	r5, #1
10001be8:	6265      	str	r5, [r4, #36]	; 0x24
10001bea:	62a6      	str	r6, [r4, #40]	; 0x28
10001bec:	342c      	adds	r4, #44	; 0x2c
10001bee:	2080      	movs	r0, #128	; 0x80
10001bf0:	0180      	lsls	r0, r0, #6
10001bf2:	4304      	orrs	r4, r0
10001bf4:	2300      	movs	r3, #0
10001bf6:	6023      	str	r3, [r4, #0]
10001bf8:	2006      	movs	r0, #6
10001bfa:	f000 f963 	bl	10001ec4 <clock_get_hz>
10001bfe:	0080      	lsls	r0, r0, #2
10001c00:	01a9      	lsls	r1, r5, #6
10001c02:	1989      	adds	r1, r1, r6
10001c04:	f001 fbe6 	bl	100033d4 <__wrap___aeabi_uidiv>
10001c08:	bd70      	pop	{r4, r5, r6, pc}
10001c0a:	2600      	movs	r6, #0
10001c0c:	4d01      	ldr	r5, [pc, #4]	; (10001c14 <uart_set_baudrate+0x58>)
10001c0e:	e7eb      	b.n	10001be8 <uart_set_baudrate+0x2c>
10001c10:	0000fffe 	.word	0x0000fffe
10001c14:	0000ffff 	.word	0x0000ffff

10001c18 <uart_set_translate_crlf>:
10001c18:	2900      	cmp	r1, #0
10001c1a:	d009      	beq.n	10001c30 <uart_set_translate_crlf+0x18>
10001c1c:	220a      	movs	r2, #10
10001c1e:	4b06      	ldr	r3, [pc, #24]	; (10001c38 <uart_set_translate_crlf+0x20>)
10001c20:	469c      	mov	ip, r3
10001c22:	4460      	add	r0, ip
10001c24:	4243      	negs	r3, r0
10001c26:	4158      	adcs	r0, r3
10001c28:	0040      	lsls	r0, r0, #1
10001c2a:	4b04      	ldr	r3, [pc, #16]	; (10001c3c <uart_set_translate_crlf+0x24>)
10001c2c:	52c2      	strh	r2, [r0, r3]
10001c2e:	4770      	bx	lr
10001c30:	2280      	movs	r2, #128	; 0x80
10001c32:	0052      	lsls	r2, r2, #1
10001c34:	e7f3      	b.n	10001c1e <uart_set_translate_crlf+0x6>
10001c36:	46c0      	nop			; (mov r8, r8)
10001c38:	bffc8000 	.word	0xbffc8000
10001c3c:	200010ec 	.word	0x200010ec

10001c40 <uart_init>:
10001c40:	b570      	push	{r4, r5, r6, lr}
10001c42:	0005      	movs	r5, r0
10001c44:	000c      	movs	r4, r1
10001c46:	2006      	movs	r0, #6
10001c48:	f000 f93c 	bl	10001ec4 <clock_get_hz>
10001c4c:	2800      	cmp	r0, #0
10001c4e:	d029      	beq.n	10001ca4 <uart_init+0x64>
10001c50:	4b16      	ldr	r3, [pc, #88]	; (10001cac <uart_init+0x6c>)
10001c52:	429d      	cmp	r5, r3
10001c54:	d027      	beq.n	10001ca6 <uart_init+0x66>
10001c56:	2280      	movs	r2, #128	; 0x80
10001c58:	03d2      	lsls	r2, r2, #15
10001c5a:	4b15      	ldr	r3, [pc, #84]	; (10001cb0 <uart_init+0x70>)
10001c5c:	601a      	str	r2, [r3, #0]
10001c5e:	4b15      	ldr	r3, [pc, #84]	; (10001cb4 <uart_init+0x74>)
10001c60:	601a      	str	r2, [r3, #0]
10001c62:	4b15      	ldr	r3, [pc, #84]	; (10001cb8 <uart_init+0x78>)
10001c64:	689b      	ldr	r3, [r3, #8]
10001c66:	0011      	movs	r1, r2
10001c68:	4399      	bics	r1, r3
10001c6a:	d1fa      	bne.n	10001c62 <uart_init+0x22>
10001c6c:	2100      	movs	r1, #0
10001c6e:	0028      	movs	r0, r5
10001c70:	f7ff ffd2 	bl	10001c18 <uart_set_translate_crlf>
10001c74:	0021      	movs	r1, r4
10001c76:	0028      	movs	r0, r5
10001c78:	f7ff ffa0 	bl	10001bbc <uart_set_baudrate>
10001c7c:	002c      	movs	r4, r5
10001c7e:	342c      	adds	r4, #44	; 0x2c
10001c80:	6ae9      	ldr	r1, [r5, #44]	; 0x2c
10001c82:	2260      	movs	r2, #96	; 0x60
10001c84:	404a      	eors	r2, r1
10001c86:	216e      	movs	r1, #110	; 0x6e
10001c88:	4011      	ands	r1, r2
10001c8a:	2280      	movs	r2, #128	; 0x80
10001c8c:	0152      	lsls	r2, r2, #5
10001c8e:	4322      	orrs	r2, r4
10001c90:	6011      	str	r1, [r2, #0]
10001c92:	4b0a      	ldr	r3, [pc, #40]	; (10001cbc <uart_init+0x7c>)
10001c94:	632b      	str	r3, [r5, #48]	; 0x30
10001c96:	2380      	movs	r3, #128	; 0x80
10001c98:	019b      	lsls	r3, r3, #6
10001c9a:	4323      	orrs	r3, r4
10001c9c:	2210      	movs	r2, #16
10001c9e:	601a      	str	r2, [r3, #0]
10001ca0:	2303      	movs	r3, #3
10001ca2:	64ab      	str	r3, [r5, #72]	; 0x48
10001ca4:	bd70      	pop	{r4, r5, r6, pc}
10001ca6:	2280      	movs	r2, #128	; 0x80
10001ca8:	0412      	lsls	r2, r2, #16
10001caa:	e7d6      	b.n	10001c5a <uart_init+0x1a>
10001cac:	40038000 	.word	0x40038000
10001cb0:	4000e000 	.word	0x4000e000
10001cb4:	4000f000 	.word	0x4000f000
10001cb8:	4000c000 	.word	0x4000c000
10001cbc:	00000301 	.word	0x00000301

10001cc0 <clock_configure>:
10001cc0:	b5f8      	push	{r3, r4, r5, r6, r7, lr}
10001cc2:	46de      	mov	lr, fp
10001cc4:	4657      	mov	r7, sl
10001cc6:	464e      	mov	r6, r9
10001cc8:	4645      	mov	r5, r8
10001cca:	b5e0      	push	{r5, r6, r7, lr}
10001ccc:	0005      	movs	r5, r0
10001cce:	000f      	movs	r7, r1
10001cd0:	4692      	mov	sl, r2
10001cd2:	9a0a      	ldr	r2, [sp, #40]	; 0x28
10001cd4:	4293      	cmp	r3, r2
10001cd6:	d34e      	bcc.n	10001d76 <clock_configure+0xb6>
10001cd8:	0e1a      	lsrs	r2, r3, #24
10001cda:	4691      	mov	r9, r2
10001cdc:	021e      	lsls	r6, r3, #8
10001cde:	9a0a      	ldr	r2, [sp, #40]	; 0x28
10001ce0:	2300      	movs	r3, #0
10001ce2:	0030      	movs	r0, r6
10001ce4:	4649      	mov	r1, r9
10001ce6:	f001 fbb3 	bl	10003450 <__wrap___aeabi_uldivmod>
10001cea:	4680      	mov	r8, r0
10001cec:	006c      	lsls	r4, r5, #1
10001cee:	1964      	adds	r4, r4, r5
10001cf0:	00a4      	lsls	r4, r4, #2
10001cf2:	4b2f      	ldr	r3, [pc, #188]	; (10001db0 <clock_configure+0xf0>)
10001cf4:	469c      	mov	ip, r3
10001cf6:	4464      	add	r4, ip
10001cf8:	6863      	ldr	r3, [r4, #4]
10001cfa:	4283      	cmp	r3, r0
10001cfc:	d200      	bcs.n	10001d00 <clock_configure+0x40>
10001cfe:	6060      	str	r0, [r4, #4]
10001d00:	1f2b      	subs	r3, r5, #4
10001d02:	b2db      	uxtb	r3, r3
10001d04:	469b      	mov	fp, r3
10001d06:	2b01      	cmp	r3, #1
10001d08:	d93b      	bls.n	10001d82 <clock_configure+0xc2>
10001d0a:	23c0      	movs	r3, #192	; 0xc0
10001d0c:	019b      	lsls	r3, r3, #6
10001d0e:	4323      	orrs	r3, r4
10001d10:	2280      	movs	r2, #128	; 0x80
10001d12:	0112      	lsls	r2, r2, #4
10001d14:	601a      	str	r2, [r3, #0]
10001d16:	00ab      	lsls	r3, r5, #2
10001d18:	4a26      	ldr	r2, [pc, #152]	; (10001db4 <clock_configure+0xf4>)
10001d1a:	5899      	ldr	r1, [r3, r2]
10001d1c:	2900      	cmp	r1, #0
10001d1e:	d005      	beq.n	10001d2c <clock_configure+0x6c>
10001d20:	6950      	ldr	r0, [r2, #20]
10001d22:	f001 fb57 	bl	100033d4 <__wrap___aeabi_uidiv>
10001d26:	3001      	adds	r0, #1
10001d28:	3801      	subs	r0, #1
10001d2a:	d1fd      	bne.n	10001d28 <clock_configure+0x68>
10001d2c:	4653      	mov	r3, sl
10001d2e:	015a      	lsls	r2, r3, #5
10001d30:	6823      	ldr	r3, [r4, #0]
10001d32:	405a      	eors	r2, r3
10001d34:	23e0      	movs	r3, #224	; 0xe0
10001d36:	401a      	ands	r2, r3
10001d38:	2380      	movs	r3, #128	; 0x80
10001d3a:	015b      	lsls	r3, r3, #5
10001d3c:	4323      	orrs	r3, r4
10001d3e:	601a      	str	r2, [r3, #0]
10001d40:	465a      	mov	r2, fp
10001d42:	2a01      	cmp	r2, #1
10001d44:	d928      	bls.n	10001d98 <clock_configure+0xd8>
10001d46:	2380      	movs	r3, #128	; 0x80
10001d48:	019b      	lsls	r3, r3, #6
10001d4a:	4323      	orrs	r3, r4
10001d4c:	2280      	movs	r2, #128	; 0x80
10001d4e:	0112      	lsls	r2, r2, #4
10001d50:	601a      	str	r2, [r3, #0]
10001d52:	4643      	mov	r3, r8
10001d54:	6063      	str	r3, [r4, #4]
10001d56:	4642      	mov	r2, r8
10001d58:	2300      	movs	r3, #0
10001d5a:	0030      	movs	r0, r6
10001d5c:	4649      	mov	r1, r9
10001d5e:	f001 fb77 	bl	10003450 <__wrap___aeabi_uldivmod>
10001d62:	00ad      	lsls	r5, r5, #2
10001d64:	4b13      	ldr	r3, [pc, #76]	; (10001db4 <clock_configure+0xf4>)
10001d66:	5158      	str	r0, [r3, r5]
10001d68:	2001      	movs	r0, #1
10001d6a:	bcf0      	pop	{r4, r5, r6, r7}
10001d6c:	46bb      	mov	fp, r7
10001d6e:	46b2      	mov	sl, r6
10001d70:	46a9      	mov	r9, r5
10001d72:	46a0      	mov	r8, r4
10001d74:	bdf8      	pop	{r3, r4, r5, r6, r7, pc}
10001d76:	4b10      	ldr	r3, [pc, #64]	; (10001db8 <clock_configure+0xf8>)
10001d78:	4a10      	ldr	r2, [pc, #64]	; (10001dbc <clock_configure+0xfc>)
10001d7a:	212d      	movs	r1, #45	; 0x2d
10001d7c:	4810      	ldr	r0, [pc, #64]	; (10001dc0 <clock_configure+0x100>)
10001d7e:	f000 f97b 	bl	10002078 <__assert_func>
10001d82:	2f01      	cmp	r7, #1
10001d84:	d1c1      	bne.n	10001d0a <clock_configure+0x4a>
10001d86:	23c0      	movs	r3, #192	; 0xc0
10001d88:	019b      	lsls	r3, r3, #6
10001d8a:	4323      	orrs	r3, r4
10001d8c:	2203      	movs	r2, #3
10001d8e:	601a      	str	r2, [r3, #0]
10001d90:	68a3      	ldr	r3, [r4, #8]
10001d92:	07db      	lsls	r3, r3, #31
10001d94:	d5fc      	bpl.n	10001d90 <clock_configure+0xd0>
10001d96:	e7c9      	b.n	10001d2c <clock_configure+0x6c>
10001d98:	6821      	ldr	r1, [r4, #0]
10001d9a:	4079      	eors	r1, r7
10001d9c:	2203      	movs	r2, #3
10001d9e:	400a      	ands	r2, r1
10001da0:	601a      	str	r2, [r3, #0]
10001da2:	68a2      	ldr	r2, [r4, #8]
10001da4:	2301      	movs	r3, #1
10001da6:	40bb      	lsls	r3, r7
10001da8:	4213      	tst	r3, r2
10001daa:	d0fa      	beq.n	10001da2 <clock_configure+0xe2>
10001dac:	e7cb      	b.n	10001d46 <clock_configure+0x86>
10001dae:	46c0      	nop			; (mov r8, r8)
10001db0:	40008000 	.word	0x40008000
10001db4:	20000e4c 	.word	0x20000e4c
10001db8:	10007c38 	.word	0x10007c38
10001dbc:	10007c88 	.word	0x10007c88
10001dc0:	10007c4c 	.word	0x10007c4c

10001dc4 <clocks_init>:
10001dc4:	b530      	push	{r4, r5, lr}
10001dc6:	b083      	sub	sp, #12
10001dc8:	200c      	movs	r0, #12
10001dca:	f000 f917 	bl	10001ffc <watchdog_start_tick>
10001dce:	f7fe fb53 	bl	10000478 <running_on_fpga>
10001dd2:	2800      	cmp	r0, #0
10001dd4:	d00d      	beq.n	10001df2 <clocks_init+0x2e>
10001dd6:	2300      	movs	r3, #0
10001dd8:	e004      	b.n	10001de4 <clocks_init+0x20>
10001dda:	0099      	lsls	r1, r3, #2
10001ddc:	4a2d      	ldr	r2, [pc, #180]	; (10001e94 <clocks_init+0xd0>)
10001dde:	482e      	ldr	r0, [pc, #184]	; (10001e98 <clocks_init+0xd4>)
10001de0:	5088      	str	r0, [r1, r2]
10001de2:	3301      	adds	r3, #1
10001de4:	2b09      	cmp	r3, #9
10001de6:	d9f8      	bls.n	10001dda <clocks_init+0x16>
10001de8:	4b2a      	ldr	r3, [pc, #168]	; (10001e94 <clocks_init+0xd0>)
10001dea:	4a2c      	ldr	r2, [pc, #176]	; (10001e9c <clocks_init+0xd8>)
10001dec:	625a      	str	r2, [r3, #36]	; 0x24
10001dee:	b003      	add	sp, #12
10001df0:	bd30      	pop	{r4, r5, pc}
10001df2:	4b2b      	ldr	r3, [pc, #172]	; (10001ea0 <clocks_init+0xdc>)
10001df4:	2200      	movs	r2, #0
10001df6:	679a      	str	r2, [r3, #120]	; 0x78
10001df8:	f000 f908 	bl	1000200c <xosc_init>
10001dfc:	4b29      	ldr	r3, [pc, #164]	; (10001ea4 <clocks_init+0xe0>)
10001dfe:	2201      	movs	r2, #1
10001e00:	601a      	str	r2, [r3, #0]
10001e02:	4b27      	ldr	r3, [pc, #156]	; (10001ea0 <clocks_init+0xdc>)
10001e04:	6c5b      	ldr	r3, [r3, #68]	; 0x44
10001e06:	2b01      	cmp	r3, #1
10001e08:	d1fb      	bne.n	10001e02 <clocks_init+0x3e>
10001e0a:	4b27      	ldr	r3, [pc, #156]	; (10001ea8 <clocks_init+0xe4>)
10001e0c:	2203      	movs	r2, #3
10001e0e:	601a      	str	r2, [r3, #0]
10001e10:	4b23      	ldr	r3, [pc, #140]	; (10001ea0 <clocks_init+0xdc>)
10001e12:	6b9b      	ldr	r3, [r3, #56]	; 0x38
10001e14:	2b01      	cmp	r3, #1
10001e16:	d1fb      	bne.n	10001e10 <clocks_init+0x4c>
10001e18:	3301      	adds	r3, #1
10001e1a:	9300      	str	r3, [sp, #0]
10001e1c:	3304      	adds	r3, #4
10001e1e:	4a23      	ldr	r2, [pc, #140]	; (10001eac <clocks_init+0xe8>)
10001e20:	2101      	movs	r1, #1
10001e22:	4823      	ldr	r0, [pc, #140]	; (10001eb0 <clocks_init+0xec>)
10001e24:	f000 f854 	bl	10001ed0 <pll_init>
10001e28:	2305      	movs	r3, #5
10001e2a:	9300      	str	r3, [sp, #0]
10001e2c:	4a21      	ldr	r2, [pc, #132]	; (10001eb4 <clocks_init+0xf0>)
10001e2e:	2101      	movs	r1, #1
10001e30:	4821      	ldr	r0, [pc, #132]	; (10001eb8 <clocks_init+0xf4>)
10001e32:	f000 f84d 	bl	10001ed0 <pll_init>
10001e36:	4b21      	ldr	r3, [pc, #132]	; (10001ebc <clocks_init+0xf8>)
10001e38:	9300      	str	r3, [sp, #0]
10001e3a:	2200      	movs	r2, #0
10001e3c:	2102      	movs	r1, #2
10001e3e:	2004      	movs	r0, #4
10001e40:	f7ff ff3e 	bl	10001cc0 <clock_configure>
10001e44:	4d1e      	ldr	r5, [pc, #120]	; (10001ec0 <clocks_init+0xfc>)
10001e46:	9500      	str	r5, [sp, #0]
10001e48:	002b      	movs	r3, r5
10001e4a:	2200      	movs	r2, #0
10001e4c:	2101      	movs	r1, #1
10001e4e:	2005      	movs	r0, #5
10001e50:	f7ff ff36 	bl	10001cc0 <clock_configure>
10001e54:	4c10      	ldr	r4, [pc, #64]	; (10001e98 <clocks_init+0xd4>)
10001e56:	9400      	str	r4, [sp, #0]
10001e58:	0023      	movs	r3, r4
10001e5a:	2200      	movs	r2, #0
10001e5c:	2100      	movs	r1, #0
10001e5e:	2007      	movs	r0, #7
10001e60:	f7ff ff2e 	bl	10001cc0 <clock_configure>
10001e64:	9400      	str	r4, [sp, #0]
10001e66:	0023      	movs	r3, r4
10001e68:	2200      	movs	r2, #0
10001e6a:	2100      	movs	r1, #0
10001e6c:	2008      	movs	r0, #8
10001e6e:	f7ff ff27 	bl	10001cc0 <clock_configure>
10001e72:	4b0a      	ldr	r3, [pc, #40]	; (10001e9c <clocks_init+0xd8>)
10001e74:	9300      	str	r3, [sp, #0]
10001e76:	0023      	movs	r3, r4
10001e78:	2200      	movs	r2, #0
10001e7a:	2100      	movs	r1, #0
10001e7c:	2009      	movs	r0, #9
10001e7e:	f7ff ff1f 	bl	10001cc0 <clock_configure>
10001e82:	9500      	str	r5, [sp, #0]
10001e84:	002b      	movs	r3, r5
10001e86:	2200      	movs	r2, #0
10001e88:	2100      	movs	r1, #0
10001e8a:	2006      	movs	r0, #6
10001e8c:	f7ff ff18 	bl	10001cc0 <clock_configure>
10001e90:	e7ad      	b.n	10001dee <clocks_init+0x2a>
10001e92:	46c0      	nop			; (mov r8, r8)
10001e94:	20000e4c 	.word	0x20000e4c
10001e98:	02dc6c00 	.word	0x02dc6c00
10001e9c:	0000b71b 	.word	0x0000b71b
10001ea0:	40008000 	.word	0x40008000
10001ea4:	4000b03c 	.word	0x4000b03c
10001ea8:	4000b030 	.word	0x4000b030
10001eac:	59682f00 	.word	0x59682f00
10001eb0:	40028000 	.word	0x40028000
10001eb4:	47868c00 	.word	0x47868c00
10001eb8:	4002c000 	.word	0x4002c000
10001ebc:	00b71b00 	.word	0x00b71b00
10001ec0:	07735940 	.word	0x07735940

10001ec4 <clock_get_hz>:
10001ec4:	0080      	lsls	r0, r0, #2
10001ec6:	4b01      	ldr	r3, [pc, #4]	; (10001ecc <clock_get_hz+0x8>)
10001ec8:	58c0      	ldr	r0, [r0, r3]
10001eca:	4770      	bx	lr
10001ecc:	20000e4c 	.word	0x20000e4c

10001ed0 <pll_init>:
10001ed0:	b5f0      	push	{r4, r5, r6, r7, lr}
10001ed2:	46c6      	mov	lr, r8
10001ed4:	b500      	push	{lr}
10001ed6:	0004      	movs	r4, r0
10001ed8:	000d      	movs	r5, r1
10001eda:	0017      	movs	r7, r2
10001edc:	4698      	mov	r8, r3
10001ede:	200c      	movs	r0, #12
10001ee0:	f001 fa78 	bl	100033d4 <__wrap___aeabi_uidiv>
10001ee4:	0006      	movs	r6, r0
10001ee6:	4b39      	ldr	r3, [pc, #228]	; (10001fcc <pll_init+0xfc>)
10001ee8:	18fa      	adds	r2, r7, r3
10001eea:	4b39      	ldr	r3, [pc, #228]	; (10001fd0 <pll_init+0x100>)
10001eec:	429a      	cmp	r2, r3
10001eee:	d841      	bhi.n	10001f74 <pll_init+0xa4>
10001ef0:	0143      	lsls	r3, r0, #5
10001ef2:	1a1b      	subs	r3, r3, r0
10001ef4:	0199      	lsls	r1, r3, #6
10001ef6:	1ac9      	subs	r1, r1, r3
10001ef8:	00c9      	lsls	r1, r1, #3
10001efa:	1809      	adds	r1, r1, r0
10001efc:	0189      	lsls	r1, r1, #6
10001efe:	0038      	movs	r0, r7
10001f00:	f001 fa68 	bl	100033d4 <__wrap___aeabi_uidiv>
10001f04:	0002      	movs	r2, r0
10001f06:	3a10      	subs	r2, #16
10001f08:	2398      	movs	r3, #152	; 0x98
10001f0a:	005b      	lsls	r3, r3, #1
10001f0c:	429a      	cmp	r2, r3
10001f0e:	d837      	bhi.n	10001f80 <pll_init+0xb0>
10001f10:	4643      	mov	r3, r8
10001f12:	3b01      	subs	r3, #1
10001f14:	2b06      	cmp	r3, #6
10001f16:	d839      	bhi.n	10001f8c <pll_init+0xbc>
10001f18:	9b06      	ldr	r3, [sp, #24]
10001f1a:	3b01      	subs	r3, #1
10001f1c:	2b06      	cmp	r3, #6
10001f1e:	d835      	bhi.n	10001f8c <pll_init+0xbc>
10001f20:	093f      	lsrs	r7, r7, #4
10001f22:	42b7      	cmp	r7, r6
10001f24:	d338      	bcc.n	10001f98 <pll_init+0xc8>
10001f26:	4643      	mov	r3, r8
10001f28:	041e      	lsls	r6, r3, #16
10001f2a:	9b06      	ldr	r3, [sp, #24]
10001f2c:	031a      	lsls	r2, r3, #12
10001f2e:	4316      	orrs	r6, r2
10001f30:	6823      	ldr	r3, [r4, #0]
10001f32:	2b00      	cmp	r3, #0
10001f34:	db36      	blt.n	10001fa4 <pll_init+0xd4>
10001f36:	4b27      	ldr	r3, [pc, #156]	; (10001fd4 <pll_init+0x104>)
10001f38:	429c      	cmp	r4, r3
10001f3a:	d044      	beq.n	10001fc6 <pll_init+0xf6>
10001f3c:	2280      	movs	r2, #128	; 0x80
10001f3e:	0152      	lsls	r2, r2, #5
10001f40:	4b25      	ldr	r3, [pc, #148]	; (10001fd8 <pll_init+0x108>)
10001f42:	601a      	str	r2, [r3, #0]
10001f44:	4b25      	ldr	r3, [pc, #148]	; (10001fdc <pll_init+0x10c>)
10001f46:	601a      	str	r2, [r3, #0]
10001f48:	4b25      	ldr	r3, [pc, #148]	; (10001fe0 <pll_init+0x110>)
10001f4a:	689b      	ldr	r3, [r3, #8]
10001f4c:	0011      	movs	r1, r2
10001f4e:	4399      	bics	r1, r3
10001f50:	d1fa      	bne.n	10001f48 <pll_init+0x78>
10001f52:	6025      	str	r5, [r4, #0]
10001f54:	60a0      	str	r0, [r4, #8]
10001f56:	1d23      	adds	r3, r4, #4
10001f58:	22c0      	movs	r2, #192	; 0xc0
10001f5a:	0192      	lsls	r2, r2, #6
10001f5c:	431a      	orrs	r2, r3
10001f5e:	2321      	movs	r3, #33	; 0x21
10001f60:	6013      	str	r3, [r2, #0]
10001f62:	6823      	ldr	r3, [r4, #0]
10001f64:	2b00      	cmp	r3, #0
10001f66:	dafc      	bge.n	10001f62 <pll_init+0x92>
10001f68:	60e6      	str	r6, [r4, #12]
10001f6a:	2308      	movs	r3, #8
10001f6c:	6013      	str	r3, [r2, #0]
10001f6e:	bc80      	pop	{r7}
10001f70:	46b8      	mov	r8, r7
10001f72:	bdf0      	pop	{r4, r5, r6, r7, pc}
10001f74:	4b1b      	ldr	r3, [pc, #108]	; (10001fe4 <pll_init+0x114>)
10001f76:	4a1c      	ldr	r2, [pc, #112]	; (10001fe8 <pll_init+0x118>)
10001f78:	2111      	movs	r1, #17
10001f7a:	481c      	ldr	r0, [pc, #112]	; (10001fec <pll_init+0x11c>)
10001f7c:	f000 f87c 	bl	10002078 <__assert_func>
10001f80:	4b1b      	ldr	r3, [pc, #108]	; (10001ff0 <pll_init+0x120>)
10001f82:	4a19      	ldr	r2, [pc, #100]	; (10001fe8 <pll_init+0x118>)
10001f84:	2119      	movs	r1, #25
10001f86:	4819      	ldr	r0, [pc, #100]	; (10001fec <pll_init+0x11c>)
10001f88:	f000 f876 	bl	10002078 <__assert_func>
10001f8c:	4b19      	ldr	r3, [pc, #100]	; (10001ff4 <pll_init+0x124>)
10001f8e:	4a16      	ldr	r2, [pc, #88]	; (10001fe8 <pll_init+0x118>)
10001f90:	211c      	movs	r1, #28
10001f92:	4816      	ldr	r0, [pc, #88]	; (10001fec <pll_init+0x11c>)
10001f94:	f000 f870 	bl	10002078 <__assert_func>
10001f98:	4b17      	ldr	r3, [pc, #92]	; (10001ff8 <pll_init+0x128>)
10001f9a:	4a13      	ldr	r2, [pc, #76]	; (10001fe8 <pll_init+0x118>)
10001f9c:	2123      	movs	r1, #35	; 0x23
10001f9e:	4813      	ldr	r0, [pc, #76]	; (10001fec <pll_init+0x11c>)
10001fa0:	f000 f86a 	bl	10002078 <__assert_func>
10001fa4:	6822      	ldr	r2, [r4, #0]
10001fa6:	233f      	movs	r3, #63	; 0x3f
10001fa8:	4013      	ands	r3, r2
10001faa:	42ab      	cmp	r3, r5
10001fac:	d1c3      	bne.n	10001f36 <pll_init+0x66>
10001fae:	68a3      	ldr	r3, [r4, #8]
10001fb0:	051b      	lsls	r3, r3, #20
10001fb2:	0d1b      	lsrs	r3, r3, #20
10001fb4:	4283      	cmp	r3, r0
10001fb6:	d1be      	bne.n	10001f36 <pll_init+0x66>
10001fb8:	68e3      	ldr	r3, [r4, #12]
10001fba:	22ee      	movs	r2, #238	; 0xee
10001fbc:	02d2      	lsls	r2, r2, #11
10001fbe:	4013      	ands	r3, r2
10001fc0:	42b3      	cmp	r3, r6
10001fc2:	d1b8      	bne.n	10001f36 <pll_init+0x66>
10001fc4:	e7d3      	b.n	10001f6e <pll_init+0x9e>
10001fc6:	2280      	movs	r2, #128	; 0x80
10001fc8:	0192      	lsls	r2, r2, #6
10001fca:	e7b9      	b.n	10001f40 <pll_init+0x70>
10001fcc:	d34be880 	.word	0xd34be880
10001fd0:	32a9f880 	.word	0x32a9f880
10001fd4:	4002c000 	.word	0x4002c000
10001fd8:	4000e000 	.word	0x4000e000
10001fdc:	4000f000 	.word	0x4000f000
10001fe0:	4000c000 	.word	0x4000c000
10001fe4:	10007c98 	.word	0x10007c98
10001fe8:	10007db0 	.word	0x10007db0
10001fec:	10007cf8 	.word	0x10007cf8
10001ff0:	10007d2c 	.word	0x10007d2c
10001ff4:	10007d48 	.word	0x10007d48
10001ff8:	10007d94 	.word	0x10007d94

10001ffc <watchdog_start_tick>:
10001ffc:	2380      	movs	r3, #128	; 0x80
10001ffe:	009b      	lsls	r3, r3, #2
10002000:	4303      	orrs	r3, r0
10002002:	4a01      	ldr	r2, [pc, #4]	; (10002008 <watchdog_start_tick+0xc>)
10002004:	62d3      	str	r3, [r2, #44]	; 0x2c
10002006:	4770      	bx	lr
10002008:	40058000 	.word	0x40058000

1000200c <xosc_init>:
1000200c:	4b06      	ldr	r3, [pc, #24]	; (10002028 <xosc_init+0x1c>)
1000200e:	22aa      	movs	r2, #170	; 0xaa
10002010:	0112      	lsls	r2, r2, #4
10002012:	601a      	str	r2, [r3, #0]
10002014:	222f      	movs	r2, #47	; 0x2f
10002016:	60da      	str	r2, [r3, #12]
10002018:	4b04      	ldr	r3, [pc, #16]	; (1000202c <xosc_init+0x20>)
1000201a:	4a05      	ldr	r2, [pc, #20]	; (10002030 <xosc_init+0x24>)
1000201c:	601a      	str	r2, [r3, #0]
1000201e:	4b02      	ldr	r3, [pc, #8]	; (10002028 <xosc_init+0x1c>)
10002020:	685b      	ldr	r3, [r3, #4]
10002022:	2b00      	cmp	r3, #0
10002024:	dafb      	bge.n	1000201e <xosc_init+0x12>
10002026:	4770      	bx	lr
10002028:	40024000 	.word	0x40024000
1000202c:	40026000 	.word	0x40026000
10002030:	00fab000 	.word	0x00fab000

10002034 <_exit>:
10002034:	be00      	bkpt	0x0000
10002036:	e7fd      	b.n	10002034 <_exit>

10002038 <_sbrk>:
10002038:	0003      	movs	r3, r0
1000203a:	4a0a      	ldr	r2, [pc, #40]	; (10002064 <_sbrk+0x2c>)
1000203c:	6812      	ldr	r2, [r2, #0]
1000203e:	2a00      	cmp	r2, #0
10002040:	d008      	beq.n	10002054 <_sbrk+0x1c>
10002042:	4a08      	ldr	r2, [pc, #32]	; (10002064 <_sbrk+0x2c>)
10002044:	6810      	ldr	r0, [r2, #0]
10002046:	18c3      	adds	r3, r0, r3
10002048:	4a07      	ldr	r2, [pc, #28]	; (10002068 <_sbrk+0x30>)
1000204a:	429a      	cmp	r2, r3
1000204c:	d306      	bcc.n	1000205c <_sbrk+0x24>
1000204e:	4a05      	ldr	r2, [pc, #20]	; (10002064 <_sbrk+0x2c>)
10002050:	6013      	str	r3, [r2, #0]
10002052:	4770      	bx	lr
10002054:	4a03      	ldr	r2, [pc, #12]	; (10002064 <_sbrk+0x2c>)
10002056:	4905      	ldr	r1, [pc, #20]	; (1000206c <_sbrk+0x34>)
10002058:	6011      	str	r1, [r2, #0]
1000205a:	e7f2      	b.n	10002042 <_sbrk+0xa>
1000205c:	2001      	movs	r0, #1
1000205e:	4240      	negs	r0, r0
10002060:	e7f7      	b.n	10002052 <_sbrk+0x1a>
10002062:	46c0      	nop			; (mov r8, r8)
10002064:	20000ec0 	.word	0x20000ec0
10002068:	20040000 	.word	0x20040000
1000206c:	200010f8 	.word	0x200010f8

10002070 <exit>:
10002070:	b510      	push	{r4, lr}
10002072:	f7ff ffdf 	bl	10002034 <_exit>
	...

10002078 <__assert_func>:
10002078:	b510      	push	{r4, lr}
1000207a:	b082      	sub	sp, #8
1000207c:	000c      	movs	r4, r1
1000207e:	0019      	movs	r1, r3
10002080:	2a00      	cmp	r2, #0
10002082:	d00c      	beq.n	1000209e <__assert_func+0x26>
10002084:	4b08      	ldr	r3, [pc, #32]	; (100020a8 <__assert_func+0x30>)
10002086:	2a00      	cmp	r2, #0
10002088:	d00b      	beq.n	100020a2 <__assert_func+0x2a>
1000208a:	9201      	str	r2, [sp, #4]
1000208c:	9300      	str	r3, [sp, #0]
1000208e:	0023      	movs	r3, r4
10002090:	0002      	movs	r2, r0
10002092:	4806      	ldr	r0, [pc, #24]	; (100020ac <__assert_func+0x34>)
10002094:	f002 fab2 	bl	100045fc <__wrap_printf>
10002098:	2001      	movs	r0, #1
1000209a:	f7ff ffcb 	bl	10002034 <_exit>
1000209e:	4b04      	ldr	r3, [pc, #16]	; (100020b0 <__assert_func+0x38>)
100020a0:	e7f1      	b.n	10002086 <__assert_func+0xe>
100020a2:	4a03      	ldr	r2, [pc, #12]	; (100020b0 <__assert_func+0x38>)
100020a4:	e7f1      	b.n	1000208a <__assert_func+0x12>
100020a6:	46c0      	nop			; (mov r8, r8)
100020a8:	10007dbc 	.word	0x10007dbc
100020ac:	10007dcc 	.word	0x10007dcc
100020b0:	100073e4 	.word	0x100073e4

100020b4 <runtime_init>:
100020b4:	b570      	push	{r4, r5, r6, lr}
100020b6:	4b2b      	ldr	r3, [pc, #172]	; (10002164 <runtime_init+0xb0>)
100020b8:	4a2b      	ldr	r2, [pc, #172]	; (10002168 <runtime_init+0xb4>)
100020ba:	601a      	str	r2, [r3, #0]
100020bc:	4b2b      	ldr	r3, [pc, #172]	; (1000216c <runtime_init+0xb8>)
100020be:	4a2c      	ldr	r2, [pc, #176]	; (10002170 <runtime_init+0xbc>)
100020c0:	601a      	str	r2, [r3, #0]
100020c2:	4b2c      	ldr	r3, [pc, #176]	; (10002174 <runtime_init+0xc0>)
100020c4:	689a      	ldr	r2, [r3, #8]
100020c6:	4b2a      	ldr	r3, [pc, #168]	; (10002170 <runtime_init+0xbc>)
100020c8:	4393      	bics	r3, r2
100020ca:	d1fa      	bne.n	100020c2 <runtime_init+0xe>
100020cc:	4c2a      	ldr	r4, [pc, #168]	; (10002178 <runtime_init+0xc4>)
100020ce:	e001      	b.n	100020d4 <runtime_init+0x20>
100020d0:	cc08      	ldmia	r4!, {r3}
100020d2:	4798      	blx	r3
100020d4:	4b29      	ldr	r3, [pc, #164]	; (1000217c <runtime_init+0xc8>)
100020d6:	429c      	cmp	r4, r3
100020d8:	d3fa      	bcc.n	100020d0 <runtime_init+0x1c>
100020da:	f7ff fe73 	bl	10001dc4 <clocks_init>
100020de:	4b23      	ldr	r3, [pc, #140]	; (1000216c <runtime_init+0xb8>)
100020e0:	4a27      	ldr	r2, [pc, #156]	; (10002180 <runtime_init+0xcc>)
100020e2:	601a      	str	r2, [r3, #0]
100020e4:	4b23      	ldr	r3, [pc, #140]	; (10002174 <runtime_init+0xc0>)
100020e6:	689b      	ldr	r3, [r3, #8]
100020e8:	43db      	mvns	r3, r3
100020ea:	01db      	lsls	r3, r3, #7
100020ec:	d1fa      	bne.n	100020e4 <runtime_init+0x30>
100020ee:	4b25      	ldr	r3, [pc, #148]	; (10002184 <runtime_init+0xd0>)
100020f0:	2240      	movs	r2, #64	; 0x40
100020f2:	679a      	str	r2, [r3, #120]	; 0x78
100020f4:	675a      	str	r2, [r3, #116]	; 0x74
100020f6:	671a      	str	r2, [r3, #112]	; 0x70
100020f8:	66da      	str	r2, [r3, #108]	; 0x6c
100020fa:	4c23      	ldr	r4, [pc, #140]	; (10002188 <runtime_init+0xd4>)
100020fc:	e009      	b.n	10002112 <runtime_init+0x5e>
100020fe:	4b23      	ldr	r3, [pc, #140]	; (1000218c <runtime_init+0xd8>)
10002100:	4a23      	ldr	r2, [pc, #140]	; (10002190 <runtime_init+0xdc>)
10002102:	2186      	movs	r1, #134	; 0x86
10002104:	4823      	ldr	r0, [pc, #140]	; (10002194 <runtime_init+0xe0>)
10002106:	f7ff ffb7 	bl	10002078 <__assert_func>
1000210a:	0020      	movs	r0, r4
1000210c:	f7fe fc1e 	bl	1000094c <mutex_init>
10002110:	3408      	adds	r4, #8
10002112:	4b21      	ldr	r3, [pc, #132]	; (10002198 <runtime_init+0xe4>)
10002114:	429c      	cmp	r4, r3
10002116:	d209      	bcs.n	1000212c <runtime_init+0x78>
10002118:	6823      	ldr	r3, [r4, #0]
1000211a:	2b00      	cmp	r3, #0
1000211c:	d0f5      	beq.n	1000210a <runtime_init+0x56>
1000211e:	2b01      	cmp	r3, #1
10002120:	d1ed      	bne.n	100020fe <runtime_init+0x4a>
10002122:	0020      	movs	r0, r4
10002124:	f7fe fc1f 	bl	10000966 <recursive_mutex_init>
10002128:	3408      	adds	r4, #8
1000212a:	e7f2      	b.n	10002112 <runtime_init+0x5e>
1000212c:	4c1b      	ldr	r4, [pc, #108]	; (1000219c <runtime_init+0xe8>)
1000212e:	68a1      	ldr	r1, [r4, #8]
10002130:	4d1b      	ldr	r5, [pc, #108]	; (100021a0 <runtime_init+0xec>)
10002132:	22c0      	movs	r2, #192	; 0xc0
10002134:	0028      	movs	r0, r5
10002136:	f002 f909 	bl	1000434c <__wrap___aeabi_memcpy>
1000213a:	60a5      	str	r5, [r4, #8]
1000213c:	f3ef 8305 	mrs	r3, IPSR
10002140:	2b00      	cmp	r3, #0
10002142:	d000      	beq.n	10002146 <runtime_init+0x92>
10002144:	be00      	bkpt	0x0000
10002146:	f7fe f9d1 	bl	100004ec <spin_locks_reset>
1000214a:	f7fe fbe9 	bl	10000920 <irq_init_priorities>
1000214e:	f7fe ff59 	bl	10001004 <alarm_pool_init_default>
10002152:	4c14      	ldr	r4, [pc, #80]	; (100021a4 <runtime_init+0xf0>)
10002154:	e001      	b.n	1000215a <runtime_init+0xa6>
10002156:	cc08      	ldmia	r4!, {r3}
10002158:	4798      	blx	r3
1000215a:	4b13      	ldr	r3, [pc, #76]	; (100021a8 <runtime_init+0xf4>)
1000215c:	429c      	cmp	r4, r3
1000215e:	d3fa      	bcc.n	10002156 <runtime_init+0xa2>
10002160:	bd70      	pop	{r4, r5, r6, pc}
10002162:	46c0      	nop			; (mov r8, r8)
10002164:	4000e000 	.word	0x4000e000
10002168:	fefbcdbf 	.word	0xfefbcdbf
1000216c:	4000f000 	.word	0x4000f000
10002170:	003c7ffe 	.word	0x003c7ffe
10002174:	4000c000 	.word	0x4000c000
10002178:	20000b38 	.word	0x20000b38
1000217c:	20000b48 	.word	0x20000b48
10002180:	01ffffff 	.word	0x01ffffff
10002184:	4001f000 	.word	0x4001f000
10002188:	20000b30 	.word	0x20000b30
1000218c:	10007dfc 	.word	0x10007dfc
10002190:	10007e68 	.word	0x10007e68
10002194:	10007e1c 	.word	0x10007e1c
10002198:	20000b38 	.word	0x20000b38
1000219c:	e000ed00 	.word	0xe000ed00
100021a0:	20000000 	.word	0x20000000
100021a4:	20000b48 	.word	0x20000b48
100021a8:	20000b4c 	.word	0x20000b4c

100021ac <panic>:
100021ac:	b40f      	push	{r0, r1, r2, r3}
100021ae:	b500      	push	{lr}
100021b0:	b083      	sub	sp, #12
100021b2:	4808      	ldr	r0, [pc, #32]	; (100021d4 <panic+0x28>)
100021b4:	f002 f9f2 	bl	1000459c <__wrap_puts>
100021b8:	9b04      	ldr	r3, [sp, #16]
100021ba:	2b00      	cmp	r3, #0
100021bc:	d007      	beq.n	100021ce <panic+0x22>
100021be:	a905      	add	r1, sp, #20
100021c0:	9101      	str	r1, [sp, #4]
100021c2:	0018      	movs	r0, r3
100021c4:	f002 f9fa 	bl	100045bc <__wrap_vprintf>
100021c8:	4803      	ldr	r0, [pc, #12]	; (100021d8 <panic+0x2c>)
100021ca:	f002 f9e7 	bl	1000459c <__wrap_puts>
100021ce:	2001      	movs	r0, #1
100021d0:	f7ff ff30 	bl	10002034 <_exit>
100021d4:	10007e54 	.word	0x10007e54
100021d8:	10007e64 	.word	0x10007e64

100021dc <_out_null>:
100021dc:	4770      	bx	lr

100021de <_out_fct>:
100021de:	b510      	push	{r4, lr}
100021e0:	2800      	cmp	r0, #0
100021e2:	d002      	beq.n	100021ea <_out_fct+0xc>
100021e4:	680b      	ldr	r3, [r1, #0]
100021e6:	6849      	ldr	r1, [r1, #4]
100021e8:	4798      	blx	r3
100021ea:	bd10      	pop	{r4, pc}

100021ec <_atoi>:
100021ec:	0001      	movs	r1, r0
100021ee:	2000      	movs	r0, #0
100021f0:	e007      	b.n	10002202 <_atoi+0x16>
100021f2:	0083      	lsls	r3, r0, #2
100021f4:	181b      	adds	r3, r3, r0
100021f6:	005b      	lsls	r3, r3, #1
100021f8:	1c50      	adds	r0, r2, #1
100021fa:	6008      	str	r0, [r1, #0]
100021fc:	7810      	ldrb	r0, [r2, #0]
100021fe:	18c0      	adds	r0, r0, r3
10002200:	3830      	subs	r0, #48	; 0x30
10002202:	680a      	ldr	r2, [r1, #0]
10002204:	7813      	ldrb	r3, [r2, #0]
10002206:	3b30      	subs	r3, #48	; 0x30
10002208:	b2db      	uxtb	r3, r3
1000220a:	2b09      	cmp	r3, #9
1000220c:	d9f1      	bls.n	100021f2 <_atoi+0x6>
1000220e:	4770      	bx	lr

10002210 <_out_rev>:
10002210:	b5f0      	push	{r4, r5, r6, r7, lr}
10002212:	46de      	mov	lr, fp
10002214:	4657      	mov	r7, sl
10002216:	464e      	mov	r6, r9
10002218:	4645      	mov	r5, r8
1000221a:	b5e0      	push	{r5, r6, r7, lr}
1000221c:	b083      	sub	sp, #12
1000221e:	4693      	mov	fp, r2
10002220:	001f      	movs	r7, r3
10002222:	9b0c      	ldr	r3, [sp, #48]	; 0x30
10002224:	469a      	mov	sl, r3
10002226:	9c0d      	ldr	r4, [sp, #52]	; 0x34
10002228:	9b0e      	ldr	r3, [sp, #56]	; 0x38
1000222a:	4699      	mov	r9, r3
1000222c:	9b0f      	ldr	r3, [sp, #60]	; 0x3c
1000222e:	079b      	lsls	r3, r3, #30
10002230:	d003      	beq.n	1000223a <_out_rev+0x2a>
10002232:	46b8      	mov	r8, r7
10002234:	000f      	movs	r7, r1
10002236:	0006      	movs	r6, r0
10002238:	e022      	b.n	10002280 <_out_rev+0x70>
1000223a:	9201      	str	r2, [sp, #4]
1000223c:	46a3      	mov	fp, r4
1000223e:	4688      	mov	r8, r1
10002240:	464e      	mov	r6, r9
10002242:	46b9      	mov	r9, r7
10002244:	0007      	movs	r7, r0
10002246:	42b4      	cmp	r4, r6
10002248:	d207      	bcs.n	1000225a <_out_rev+0x4a>
1000224a:	1c55      	adds	r5, r2, #1
1000224c:	464b      	mov	r3, r9
1000224e:	4641      	mov	r1, r8
10002250:	2020      	movs	r0, #32
10002252:	47b8      	blx	r7
10002254:	3401      	adds	r4, #1
10002256:	002a      	movs	r2, r5
10002258:	e7f5      	b.n	10002246 <_out_rev+0x36>
1000225a:	003d      	movs	r5, r7
1000225c:	464f      	mov	r7, r9
1000225e:	465c      	mov	r4, fp
10002260:	9b01      	ldr	r3, [sp, #4]
10002262:	469b      	mov	fp, r3
10002264:	46b1      	mov	r9, r6
10002266:	4646      	mov	r6, r8
10002268:	46b8      	mov	r8, r7
1000226a:	0037      	movs	r7, r6
1000226c:	002e      	movs	r6, r5
1000226e:	e007      	b.n	10002280 <_out_rev+0x70>
10002270:	3c01      	subs	r4, #1
10002272:	1c55      	adds	r5, r2, #1
10002274:	4653      	mov	r3, sl
10002276:	5d18      	ldrb	r0, [r3, r4]
10002278:	4643      	mov	r3, r8
1000227a:	0039      	movs	r1, r7
1000227c:	47b0      	blx	r6
1000227e:	002a      	movs	r2, r5
10002280:	2c00      	cmp	r4, #0
10002282:	d1f5      	bne.n	10002270 <_out_rev+0x60>
10002284:	0035      	movs	r5, r6
10002286:	003e      	movs	r6, r7
10002288:	4647      	mov	r7, r8
1000228a:	9b0f      	ldr	r3, [sp, #60]	; 0x3c
1000228c:	079b      	lsls	r3, r3, #30
1000228e:	d407      	bmi.n	100022a0 <_out_rev+0x90>
10002290:	0010      	movs	r0, r2
10002292:	b003      	add	sp, #12
10002294:	bcf0      	pop	{r4, r5, r6, r7}
10002296:	46bb      	mov	fp, r7
10002298:	46b2      	mov	sl, r6
1000229a:	46a9      	mov	r9, r5
1000229c:	46a0      	mov	r8, r4
1000229e:	bdf0      	pop	{r4, r5, r6, r7, pc}
100022a0:	46b0      	mov	r8, r6
100022a2:	464e      	mov	r6, r9
100022a4:	46b9      	mov	r9, r7
100022a6:	002f      	movs	r7, r5
100022a8:	465d      	mov	r5, fp
100022aa:	1b53      	subs	r3, r2, r5
100022ac:	42b3      	cmp	r3, r6
100022ae:	d2ef      	bcs.n	10002290 <_out_rev+0x80>
100022b0:	1c54      	adds	r4, r2, #1
100022b2:	464b      	mov	r3, r9
100022b4:	4641      	mov	r1, r8
100022b6:	2020      	movs	r0, #32
100022b8:	47b8      	blx	r7
100022ba:	0022      	movs	r2, r4
100022bc:	e7f5      	b.n	100022aa <_out_rev+0x9a>

100022be <_ntoa_format>:
100022be:	b5f0      	push	{r4, r5, r6, r7, lr}
100022c0:	46ce      	mov	lr, r9
100022c2:	4647      	mov	r7, r8
100022c4:	b580      	push	{r7, lr}
100022c6:	b085      	sub	sp, #20
100022c8:	4694      	mov	ip, r2
100022ca:	4698      	mov	r8, r3
100022cc:	9d0c      	ldr	r5, [sp, #48]	; 0x30
100022ce:	9c0d      	ldr	r4, [sp, #52]	; 0x34
100022d0:	ab0e      	add	r3, sp, #56	; 0x38
100022d2:	781b      	ldrb	r3, [r3, #0]
100022d4:	4699      	mov	r9, r3
100022d6:	9a10      	ldr	r2, [sp, #64]	; 0x40
100022d8:	9b11      	ldr	r3, [sp, #68]	; 0x44
100022da:	9e12      	ldr	r6, [sp, #72]	; 0x48
100022dc:	07b7      	lsls	r7, r6, #30
100022de:	d41c      	bmi.n	1000231a <_ntoa_format+0x5c>
100022e0:	2b00      	cmp	r3, #0
100022e2:	d00c      	beq.n	100022fe <_ntoa_format+0x40>
100022e4:	07f7      	lsls	r7, r6, #31
100022e6:	d50a      	bpl.n	100022fe <_ntoa_format+0x40>
100022e8:	464f      	mov	r7, r9
100022ea:	2f00      	cmp	r7, #0
100022ec:	d102      	bne.n	100022f4 <_ntoa_format+0x36>
100022ee:	370c      	adds	r7, #12
100022f0:	4237      	tst	r7, r6
100022f2:	d004      	beq.n	100022fe <_ntoa_format+0x40>
100022f4:	3b01      	subs	r3, #1
100022f6:	e002      	b.n	100022fe <_ntoa_format+0x40>
100022f8:	2730      	movs	r7, #48	; 0x30
100022fa:	552f      	strb	r7, [r5, r4]
100022fc:	3401      	adds	r4, #1
100022fe:	4294      	cmp	r4, r2
10002300:	d201      	bcs.n	10002306 <_ntoa_format+0x48>
10002302:	2c1f      	cmp	r4, #31
10002304:	d9f8      	bls.n	100022f8 <_ntoa_format+0x3a>
10002306:	07f7      	lsls	r7, r6, #31
10002308:	d507      	bpl.n	1000231a <_ntoa_format+0x5c>
1000230a:	429c      	cmp	r4, r3
1000230c:	d205      	bcs.n	1000231a <_ntoa_format+0x5c>
1000230e:	2c1f      	cmp	r4, #31
10002310:	d803      	bhi.n	1000231a <_ntoa_format+0x5c>
10002312:	2730      	movs	r7, #48	; 0x30
10002314:	552f      	strb	r7, [r5, r4]
10002316:	3401      	adds	r4, #1
10002318:	e7f5      	b.n	10002306 <_ntoa_format+0x48>
1000231a:	06f7      	lsls	r7, r6, #27
1000231c:	d515      	bpl.n	1000234a <_ntoa_format+0x8c>
1000231e:	0577      	lsls	r7, r6, #21
10002320:	d405      	bmi.n	1000232e <_ntoa_format+0x70>
10002322:	2c00      	cmp	r4, #0
10002324:	d003      	beq.n	1000232e <_ntoa_format+0x70>
10002326:	4294      	cmp	r4, r2
10002328:	d024      	beq.n	10002374 <_ntoa_format+0xb6>
1000232a:	429c      	cmp	r4, r3
1000232c:	d022      	beq.n	10002374 <_ntoa_format+0xb6>
1000232e:	9a0f      	ldr	r2, [sp, #60]	; 0x3c
10002330:	2a10      	cmp	r2, #16
10002332:	d02b      	beq.n	1000238c <_ntoa_format+0xce>
10002334:	9a0f      	ldr	r2, [sp, #60]	; 0x3c
10002336:	2a10      	cmp	r2, #16
10002338:	d030      	beq.n	1000239c <_ntoa_format+0xde>
1000233a:	9a0f      	ldr	r2, [sp, #60]	; 0x3c
1000233c:	2a02      	cmp	r2, #2
1000233e:	d035      	beq.n	100023ac <_ntoa_format+0xee>
10002340:	2c1f      	cmp	r4, #31
10002342:	d802      	bhi.n	1000234a <_ntoa_format+0x8c>
10002344:	2230      	movs	r2, #48	; 0x30
10002346:	552a      	strb	r2, [r5, r4]
10002348:	3401      	adds	r4, #1
1000234a:	2c1f      	cmp	r4, #31
1000234c:	d805      	bhi.n	1000235a <_ntoa_format+0x9c>
1000234e:	464a      	mov	r2, r9
10002350:	2a00      	cmp	r2, #0
10002352:	d031      	beq.n	100023b8 <_ntoa_format+0xfa>
10002354:	222d      	movs	r2, #45	; 0x2d
10002356:	552a      	strb	r2, [r5, r4]
10002358:	3401      	adds	r4, #1
1000235a:	9603      	str	r6, [sp, #12]
1000235c:	9302      	str	r3, [sp, #8]
1000235e:	9401      	str	r4, [sp, #4]
10002360:	9500      	str	r5, [sp, #0]
10002362:	4643      	mov	r3, r8
10002364:	4662      	mov	r2, ip
10002366:	f7ff ff53 	bl	10002210 <_out_rev>
1000236a:	b005      	add	sp, #20
1000236c:	bcc0      	pop	{r6, r7}
1000236e:	46b9      	mov	r9, r7
10002370:	46b0      	mov	r8, r6
10002372:	bdf0      	pop	{r4, r5, r6, r7, pc}
10002374:	1e62      	subs	r2, r4, #1
10002376:	2c01      	cmp	r4, #1
10002378:	d006      	beq.n	10002388 <_ntoa_format+0xca>
1000237a:	9f0f      	ldr	r7, [sp, #60]	; 0x3c
1000237c:	2f10      	cmp	r7, #16
1000237e:	d001      	beq.n	10002384 <_ntoa_format+0xc6>
10002380:	0014      	movs	r4, r2
10002382:	e7d4      	b.n	1000232e <_ntoa_format+0x70>
10002384:	3c02      	subs	r4, #2
10002386:	e7d2      	b.n	1000232e <_ntoa_format+0x70>
10002388:	0014      	movs	r4, r2
1000238a:	e7d0      	b.n	1000232e <_ntoa_format+0x70>
1000238c:	06b2      	lsls	r2, r6, #26
1000238e:	d4d1      	bmi.n	10002334 <_ntoa_format+0x76>
10002390:	2c1f      	cmp	r4, #31
10002392:	d8cf      	bhi.n	10002334 <_ntoa_format+0x76>
10002394:	2278      	movs	r2, #120	; 0x78
10002396:	552a      	strb	r2, [r5, r4]
10002398:	3401      	adds	r4, #1
1000239a:	e7d1      	b.n	10002340 <_ntoa_format+0x82>
1000239c:	06b2      	lsls	r2, r6, #26
1000239e:	d5cc      	bpl.n	1000233a <_ntoa_format+0x7c>
100023a0:	2c1f      	cmp	r4, #31
100023a2:	d8ca      	bhi.n	1000233a <_ntoa_format+0x7c>
100023a4:	2258      	movs	r2, #88	; 0x58
100023a6:	552a      	strb	r2, [r5, r4]
100023a8:	3401      	adds	r4, #1
100023aa:	e7c9      	b.n	10002340 <_ntoa_format+0x82>
100023ac:	2c1f      	cmp	r4, #31
100023ae:	d8c7      	bhi.n	10002340 <_ntoa_format+0x82>
100023b0:	3260      	adds	r2, #96	; 0x60
100023b2:	552a      	strb	r2, [r5, r4]
100023b4:	3401      	adds	r4, #1
100023b6:	e7c3      	b.n	10002340 <_ntoa_format+0x82>
100023b8:	0772      	lsls	r2, r6, #29
100023ba:	d503      	bpl.n	100023c4 <_ntoa_format+0x106>
100023bc:	222b      	movs	r2, #43	; 0x2b
100023be:	552a      	strb	r2, [r5, r4]
100023c0:	3401      	adds	r4, #1
100023c2:	e7ca      	b.n	1000235a <_ntoa_format+0x9c>
100023c4:	0732      	lsls	r2, r6, #28
100023c6:	d5c8      	bpl.n	1000235a <_ntoa_format+0x9c>
100023c8:	2220      	movs	r2, #32
100023ca:	552a      	strb	r2, [r5, r4]
100023cc:	3401      	adds	r4, #1
100023ce:	e7c4      	b.n	1000235a <_ntoa_format+0x9c>

100023d0 <_ntoa_long>:
100023d0:	b5f0      	push	{r4, r5, r6, r7, lr}
100023d2:	46de      	mov	lr, fp
100023d4:	4657      	mov	r7, sl
100023d6:	464e      	mov	r6, r9
100023d8:	4645      	mov	r5, r8
100023da:	b5e0      	push	{r5, r6, r7, lr}
100023dc:	b093      	sub	sp, #76	; 0x4c
100023de:	4681      	mov	r9, r0
100023e0:	468a      	mov	sl, r1
100023e2:	9208      	str	r2, [sp, #32]
100023e4:	9309      	str	r3, [sp, #36]	; 0x24
100023e6:	ab1c      	add	r3, sp, #112	; 0x70
100023e8:	cb10      	ldmia	r3!, {r4}
100023ea:	781b      	ldrb	r3, [r3, #0]
100023ec:	469b      	mov	fp, r3
100023ee:	9d1e      	ldr	r5, [sp, #120]	; 0x78
100023f0:	9b21      	ldr	r3, [sp, #132]	; 0x84
100023f2:	4698      	mov	r8, r3
100023f4:	2c00      	cmp	r4, #0
100023f6:	d103      	bne.n	10002400 <_ntoa_long+0x30>
100023f8:	2310      	movs	r3, #16
100023fa:	4642      	mov	r2, r8
100023fc:	439a      	bics	r2, r3
100023fe:	4690      	mov	r8, r2
10002400:	2380      	movs	r3, #128	; 0x80
10002402:	00db      	lsls	r3, r3, #3
10002404:	4646      	mov	r6, r8
10002406:	401e      	ands	r6, r3
10002408:	4642      	mov	r2, r8
1000240a:	421a      	tst	r2, r3
1000240c:	d012      	beq.n	10002434 <_ntoa_long+0x64>
1000240e:	2c00      	cmp	r4, #0
10002410:	d022      	beq.n	10002458 <_ntoa_long+0x88>
10002412:	2600      	movs	r6, #0
10002414:	e00e      	b.n	10002434 <_ntoa_long+0x64>
10002416:	3330      	adds	r3, #48	; 0x30
10002418:	b2d9      	uxtb	r1, r3
1000241a:	1c77      	adds	r7, r6, #1
1000241c:	ab0a      	add	r3, sp, #40	; 0x28
1000241e:	5599      	strb	r1, [r3, r6]
10002420:	0029      	movs	r1, r5
10002422:	0020      	movs	r0, r4
10002424:	f000 ffd6 	bl	100033d4 <__wrap___aeabi_uidiv>
10002428:	42ac      	cmp	r4, r5
1000242a:	d316      	bcc.n	1000245a <_ntoa_long+0x8a>
1000242c:	2f1f      	cmp	r7, #31
1000242e:	d814      	bhi.n	1000245a <_ntoa_long+0x8a>
10002430:	003e      	movs	r6, r7
10002432:	0004      	movs	r4, r0
10002434:	0029      	movs	r1, r5
10002436:	0020      	movs	r0, r4
10002438:	f000 ffcc 	bl	100033d4 <__wrap___aeabi_uidiv>
1000243c:	b2cb      	uxtb	r3, r1
1000243e:	2b09      	cmp	r3, #9
10002440:	d9e9      	bls.n	10002416 <_ntoa_long+0x46>
10002442:	4642      	mov	r2, r8
10002444:	0692      	lsls	r2, r2, #26
10002446:	d505      	bpl.n	10002454 <_ntoa_long+0x84>
10002448:	2141      	movs	r1, #65	; 0x41
1000244a:	18c9      	adds	r1, r1, r3
1000244c:	b2c9      	uxtb	r1, r1
1000244e:	390a      	subs	r1, #10
10002450:	b2c9      	uxtb	r1, r1
10002452:	e7e2      	b.n	1000241a <_ntoa_long+0x4a>
10002454:	2161      	movs	r1, #97	; 0x61
10002456:	e7f8      	b.n	1000244a <_ntoa_long+0x7a>
10002458:	0027      	movs	r7, r4
1000245a:	4643      	mov	r3, r8
1000245c:	9306      	str	r3, [sp, #24]
1000245e:	9b20      	ldr	r3, [sp, #128]	; 0x80
10002460:	9305      	str	r3, [sp, #20]
10002462:	9b1f      	ldr	r3, [sp, #124]	; 0x7c
10002464:	9304      	str	r3, [sp, #16]
10002466:	9503      	str	r5, [sp, #12]
10002468:	465b      	mov	r3, fp
1000246a:	9302      	str	r3, [sp, #8]
1000246c:	9701      	str	r7, [sp, #4]
1000246e:	ab0a      	add	r3, sp, #40	; 0x28
10002470:	9300      	str	r3, [sp, #0]
10002472:	9b09      	ldr	r3, [sp, #36]	; 0x24
10002474:	9a08      	ldr	r2, [sp, #32]
10002476:	4651      	mov	r1, sl
10002478:	4648      	mov	r0, r9
1000247a:	f7ff ff20 	bl	100022be <_ntoa_format>
1000247e:	b013      	add	sp, #76	; 0x4c
10002480:	bcf0      	pop	{r4, r5, r6, r7}
10002482:	46bb      	mov	fp, r7
10002484:	46b2      	mov	sl, r6
10002486:	46a9      	mov	r9, r5
10002488:	46a0      	mov	r8, r4
1000248a:	bdf0      	pop	{r4, r5, r6, r7, pc}

1000248c <_ntoa_long_long>:
1000248c:	b5f0      	push	{r4, r5, r6, r7, lr}
1000248e:	46de      	mov	lr, fp
10002490:	4657      	mov	r7, sl
10002492:	464e      	mov	r6, r9
10002494:	4645      	mov	r5, r8
10002496:	b5e0      	push	{r5, r6, r7, lr}
10002498:	b095      	sub	sp, #84	; 0x54
1000249a:	9008      	str	r0, [sp, #32]
1000249c:	9109      	str	r1, [sp, #36]	; 0x24
1000249e:	920a      	str	r2, [sp, #40]	; 0x28
100024a0:	930b      	str	r3, [sp, #44]	; 0x2c
100024a2:	9e1e      	ldr	r6, [sp, #120]	; 0x78
100024a4:	9c1f      	ldr	r4, [sp, #124]	; 0x7c
100024a6:	ab20      	add	r3, sp, #128	; 0x80
100024a8:	781b      	ldrb	r3, [r3, #0]
100024aa:	469b      	mov	fp, r3
100024ac:	9b22      	ldr	r3, [sp, #136]	; 0x88
100024ae:	4699      	mov	r9, r3
100024b0:	9d23      	ldr	r5, [sp, #140]	; 0x8c
100024b2:	9b26      	ldr	r3, [sp, #152]	; 0x98
100024b4:	469a      	mov	sl, r3
100024b6:	0033      	movs	r3, r6
100024b8:	4323      	orrs	r3, r4
100024ba:	d103      	bne.n	100024c4 <_ntoa_long_long+0x38>
100024bc:	3310      	adds	r3, #16
100024be:	4652      	mov	r2, sl
100024c0:	439a      	bics	r2, r3
100024c2:	4692      	mov	sl, r2
100024c4:	2380      	movs	r3, #128	; 0x80
100024c6:	00db      	lsls	r3, r3, #3
100024c8:	4657      	mov	r7, sl
100024ca:	401f      	ands	r7, r3
100024cc:	4652      	mov	r2, sl
100024ce:	421a      	tst	r2, r3
100024d0:	d019      	beq.n	10002506 <_ntoa_long_long+0x7a>
100024d2:	0033      	movs	r3, r6
100024d4:	4323      	orrs	r3, r4
100024d6:	d02d      	beq.n	10002534 <_ntoa_long_long+0xa8>
100024d8:	2700      	movs	r7, #0
100024da:	e014      	b.n	10002506 <_ntoa_long_long+0x7a>
100024dc:	3330      	adds	r3, #48	; 0x30
100024de:	b2da      	uxtb	r2, r3
100024e0:	1c7b      	adds	r3, r7, #1
100024e2:	4698      	mov	r8, r3
100024e4:	ab0c      	add	r3, sp, #48	; 0x30
100024e6:	55da      	strb	r2, [r3, r7]
100024e8:	464a      	mov	r2, r9
100024ea:	002b      	movs	r3, r5
100024ec:	0030      	movs	r0, r6
100024ee:	0021      	movs	r1, r4
100024f0:	f000 ffae 	bl	10003450 <__wrap___aeabi_uldivmod>
100024f4:	42a5      	cmp	r5, r4
100024f6:	d81f      	bhi.n	10002538 <_ntoa_long_long+0xac>
100024f8:	d019      	beq.n	1000252e <_ntoa_long_long+0xa2>
100024fa:	4643      	mov	r3, r8
100024fc:	2b1f      	cmp	r3, #31
100024fe:	d81b      	bhi.n	10002538 <_ntoa_long_long+0xac>
10002500:	4647      	mov	r7, r8
10002502:	0006      	movs	r6, r0
10002504:	000c      	movs	r4, r1
10002506:	464a      	mov	r2, r9
10002508:	002b      	movs	r3, r5
1000250a:	0030      	movs	r0, r6
1000250c:	0021      	movs	r1, r4
1000250e:	f000 ff9f 	bl	10003450 <__wrap___aeabi_uldivmod>
10002512:	b2d3      	uxtb	r3, r2
10002514:	2b09      	cmp	r3, #9
10002516:	d9e1      	bls.n	100024dc <_ntoa_long_long+0x50>
10002518:	4652      	mov	r2, sl
1000251a:	0692      	lsls	r2, r2, #26
1000251c:	d505      	bpl.n	1000252a <_ntoa_long_long+0x9e>
1000251e:	2241      	movs	r2, #65	; 0x41
10002520:	18d2      	adds	r2, r2, r3
10002522:	b2d2      	uxtb	r2, r2
10002524:	3a0a      	subs	r2, #10
10002526:	b2d2      	uxtb	r2, r2
10002528:	e7da      	b.n	100024e0 <_ntoa_long_long+0x54>
1000252a:	2261      	movs	r2, #97	; 0x61
1000252c:	e7f8      	b.n	10002520 <_ntoa_long_long+0x94>
1000252e:	45b1      	cmp	r9, r6
10002530:	d9e3      	bls.n	100024fa <_ntoa_long_long+0x6e>
10002532:	e001      	b.n	10002538 <_ntoa_long_long+0xac>
10002534:	2300      	movs	r3, #0
10002536:	4698      	mov	r8, r3
10002538:	4653      	mov	r3, sl
1000253a:	9306      	str	r3, [sp, #24]
1000253c:	9b25      	ldr	r3, [sp, #148]	; 0x94
1000253e:	9305      	str	r3, [sp, #20]
10002540:	9b24      	ldr	r3, [sp, #144]	; 0x90
10002542:	9304      	str	r3, [sp, #16]
10002544:	464b      	mov	r3, r9
10002546:	9303      	str	r3, [sp, #12]
10002548:	465b      	mov	r3, fp
1000254a:	9302      	str	r3, [sp, #8]
1000254c:	4643      	mov	r3, r8
1000254e:	9301      	str	r3, [sp, #4]
10002550:	ab0c      	add	r3, sp, #48	; 0x30
10002552:	9300      	str	r3, [sp, #0]
10002554:	9b0b      	ldr	r3, [sp, #44]	; 0x2c
10002556:	9a0a      	ldr	r2, [sp, #40]	; 0x28
10002558:	9909      	ldr	r1, [sp, #36]	; 0x24
1000255a:	9808      	ldr	r0, [sp, #32]
1000255c:	f7ff feaf 	bl	100022be <_ntoa_format>
10002560:	b015      	add	sp, #84	; 0x54
10002562:	bcf0      	pop	{r4, r5, r6, r7}
10002564:	46bb      	mov	fp, r7
10002566:	46b2      	mov	sl, r6
10002568:	46a9      	mov	r9, r5
1000256a:	46a0      	mov	r8, r4
1000256c:	bdf0      	pop	{r4, r5, r6, r7, pc}
	...

10002570 <_etoa>:
10002570:	b5f0      	push	{r4, r5, r6, r7, lr}
10002572:	46de      	mov	lr, fp
10002574:	4657      	mov	r7, sl
10002576:	464e      	mov	r6, r9
10002578:	4645      	mov	r5, r8
1000257a:	b5e0      	push	{r5, r6, r7, lr}
1000257c:	b091      	sub	sp, #68	; 0x44
1000257e:	4683      	mov	fp, r0
10002580:	468a      	mov	sl, r1
10002582:	920c      	str	r2, [sp, #48]	; 0x30
10002584:	4698      	mov	r8, r3
10002586:	9c1a      	ldr	r4, [sp, #104]	; 0x68
10002588:	9408      	str	r4, [sp, #32]
1000258a:	9d1b      	ldr	r5, [sp, #108]	; 0x6c
1000258c:	9509      	str	r5, [sp, #36]	; 0x24
1000258e:	0022      	movs	r2, r4
10002590:	002b      	movs	r3, r5
10002592:	0020      	movs	r0, r4
10002594:	0029      	movs	r1, r5
10002596:	f001 f9e6 	bl	10003966 <__wrap___aeabi_dcmpun>
1000259a:	2800      	cmp	r0, #0
1000259c:	d000      	beq.n	100025a0 <_etoa+0x30>
1000259e:	e0e5      	b.n	1000276c <_etoa+0x1fc>
100025a0:	2201      	movs	r2, #1
100025a2:	4252      	negs	r2, r2
100025a4:	4bd7      	ldr	r3, [pc, #860]	; (10002904 <_etoa+0x394>)
100025a6:	0020      	movs	r0, r4
100025a8:	0029      	movs	r1, r5
100025aa:	f001 f9d7 	bl	1000395c <__wrap___aeabi_dcmpgt>
100025ae:	2800      	cmp	r0, #0
100025b0:	d000      	beq.n	100025b4 <_etoa+0x44>
100025b2:	e0db      	b.n	1000276c <_etoa+0x1fc>
100025b4:	2201      	movs	r2, #1
100025b6:	4252      	negs	r2, r2
100025b8:	4bd3      	ldr	r3, [pc, #844]	; (10002908 <_etoa+0x398>)
100025ba:	0020      	movs	r0, r4
100025bc:	0029      	movs	r1, r5
100025be:	f001 f9b7 	bl	10003930 <__wrap___aeabi_dcmplt>
100025c2:	2800      	cmp	r0, #0
100025c4:	d000      	beq.n	100025c8 <_etoa+0x58>
100025c6:	e0d1      	b.n	1000276c <_etoa+0x1fc>
100025c8:	2200      	movs	r2, #0
100025ca:	2300      	movs	r3, #0
100025cc:	9e08      	ldr	r6, [sp, #32]
100025ce:	0030      	movs	r0, r6
100025d0:	9d09      	ldr	r5, [sp, #36]	; 0x24
100025d2:	0029      	movs	r1, r5
100025d4:	f001 f9ac 	bl	10003930 <__wrap___aeabi_dcmplt>
100025d8:	2800      	cmp	r0, #0
100025da:	d000      	beq.n	100025de <_etoa+0x6e>
100025dc:	e0dd      	b.n	1000279a <_etoa+0x22a>
100025de:	9808      	ldr	r0, [sp, #32]
100025e0:	9909      	ldr	r1, [sp, #36]	; 0x24
100025e2:	9006      	str	r0, [sp, #24]
100025e4:	9107      	str	r1, [sp, #28]
100025e6:	2380      	movs	r3, #128	; 0x80
100025e8:	00db      	lsls	r3, r3, #3
100025ea:	9a1e      	ldr	r2, [sp, #120]	; 0x78
100025ec:	401a      	ands	r2, r3
100025ee:	920d      	str	r2, [sp, #52]	; 0x34
100025f0:	9a1e      	ldr	r2, [sp, #120]	; 0x78
100025f2:	421a      	tst	r2, r3
100025f4:	d101      	bne.n	100025fa <_etoa+0x8a>
100025f6:	2306      	movs	r3, #6
100025f8:	931c      	str	r3, [sp, #112]	; 0x70
100025fa:	9806      	ldr	r0, [sp, #24]
100025fc:	9907      	ldr	r1, [sp, #28]
100025fe:	0004      	movs	r4, r0
10002600:	000d      	movs	r5, r1
10002602:	000a      	movs	r2, r1
10002604:	0006      	movs	r6, r0
10002606:	4302      	orrs	r2, r0
10002608:	d100      	bne.n	1000260c <_etoa+0x9c>
1000260a:	e0d1      	b.n	100027b0 <_etoa+0x240>
1000260c:	0d08      	lsrs	r0, r1, #20
1000260e:	0540      	lsls	r0, r0, #21
10002610:	0d40      	lsrs	r0, r0, #21
10002612:	4cbe      	ldr	r4, [pc, #760]	; (1000290c <_etoa+0x39c>)
10002614:	46a4      	mov	ip, r4
10002616:	4460      	add	r0, ip
10002618:	030a      	lsls	r2, r1, #12
1000261a:	0b12      	lsrs	r2, r2, #12
1000261c:	4bbc      	ldr	r3, [pc, #752]	; (10002910 <_etoa+0x3a0>)
1000261e:	4313      	orrs	r3, r2
10002620:	001f      	movs	r7, r3
10002622:	f001 f9b3 	bl	1000398c <__wrap___aeabi_i2d>
10002626:	4abb      	ldr	r2, [pc, #748]	; (10002914 <_etoa+0x3a4>)
10002628:	4bbb      	ldr	r3, [pc, #748]	; (10002918 <_etoa+0x3a8>)
1000262a:	f001 f93e 	bl	100038aa <__wrap___aeabi_dmul>
1000262e:	4abb      	ldr	r2, [pc, #748]	; (1000291c <_etoa+0x3ac>)
10002630:	4bbb      	ldr	r3, [pc, #748]	; (10002920 <_etoa+0x3b0>)
10002632:	f001 f913 	bl	1000385c <__wrap___aeabi_dadd>
10002636:	0004      	movs	r4, r0
10002638:	000d      	movs	r5, r1
1000263a:	2200      	movs	r2, #0
1000263c:	4bb9      	ldr	r3, [pc, #740]	; (10002924 <_etoa+0x3b4>)
1000263e:	0030      	movs	r0, r6
10002640:	0039      	movs	r1, r7
10002642:	f001 f902 	bl	1000384a <__wrap___aeabi_dsub>
10002646:	4ab8      	ldr	r2, [pc, #736]	; (10002928 <_etoa+0x3b8>)
10002648:	4bb8      	ldr	r3, [pc, #736]	; (1000292c <_etoa+0x3bc>)
1000264a:	f001 f92e 	bl	100038aa <__wrap___aeabi_dmul>
1000264e:	0002      	movs	r2, r0
10002650:	000b      	movs	r3, r1
10002652:	0020      	movs	r0, r4
10002654:	0029      	movs	r1, r5
10002656:	f001 f901 	bl	1000385c <__wrap___aeabi_dadd>
1000265a:	f001 f9af 	bl	100039bc <__wrap___aeabi_d2iz>
1000265e:	4681      	mov	r9, r0
10002660:	f001 f994 	bl	1000398c <__wrap___aeabi_i2d>
10002664:	0004      	movs	r4, r0
10002666:	000d      	movs	r5, r1
10002668:	4ab1      	ldr	r2, [pc, #708]	; (10002930 <_etoa+0x3c0>)
1000266a:	4bb2      	ldr	r3, [pc, #712]	; (10002934 <_etoa+0x3c4>)
1000266c:	f001 f91d 	bl	100038aa <__wrap___aeabi_dmul>
10002670:	2200      	movs	r2, #0
10002672:	4bb1      	ldr	r3, [pc, #708]	; (10002938 <_etoa+0x3c8>)
10002674:	f001 f8f2 	bl	1000385c <__wrap___aeabi_dadd>
10002678:	f001 f9a0 	bl	100039bc <__wrap___aeabi_d2iz>
1000267c:	0006      	movs	r6, r0
1000267e:	4aaf      	ldr	r2, [pc, #700]	; (1000293c <_etoa+0x3cc>)
10002680:	4baf      	ldr	r3, [pc, #700]	; (10002940 <_etoa+0x3d0>)
10002682:	0020      	movs	r0, r4
10002684:	0029      	movs	r1, r5
10002686:	f001 f910 	bl	100038aa <__wrap___aeabi_dmul>
1000268a:	0004      	movs	r4, r0
1000268c:	000d      	movs	r5, r1
1000268e:	0030      	movs	r0, r6
10002690:	f001 f97c 	bl	1000398c <__wrap___aeabi_i2d>
10002694:	4aab      	ldr	r2, [pc, #684]	; (10002944 <_etoa+0x3d4>)
10002696:	4bac      	ldr	r3, [pc, #688]	; (10002948 <_etoa+0x3d8>)
10002698:	f001 f907 	bl	100038aa <__wrap___aeabi_dmul>
1000269c:	0002      	movs	r2, r0
1000269e:	000b      	movs	r3, r1
100026a0:	0020      	movs	r0, r4
100026a2:	0029      	movs	r1, r5
100026a4:	f001 f8d1 	bl	1000384a <__wrap___aeabi_dsub>
100026a8:	0004      	movs	r4, r0
100026aa:	000d      	movs	r5, r1
100026ac:	0002      	movs	r2, r0
100026ae:	000b      	movs	r3, r1
100026b0:	f001 f8fb 	bl	100038aa <__wrap___aeabi_dmul>
100026b4:	900a      	str	r0, [sp, #40]	; 0x28
100026b6:	910b      	str	r1, [sp, #44]	; 0x2c
100026b8:	4ba4      	ldr	r3, [pc, #656]	; (1000294c <_etoa+0x3dc>)
100026ba:	18f3      	adds	r3, r6, r3
100026bc:	2600      	movs	r6, #0
100026be:	051f      	lsls	r7, r3, #20
100026c0:	0022      	movs	r2, r4
100026c2:	002b      	movs	r3, r5
100026c4:	0020      	movs	r0, r4
100026c6:	0029      	movs	r1, r5
100026c8:	f001 f8c8 	bl	1000385c <__wrap___aeabi_dadd>
100026cc:	900e      	str	r0, [sp, #56]	; 0x38
100026ce:	910f      	str	r1, [sp, #60]	; 0x3c
100026d0:	0022      	movs	r2, r4
100026d2:	002b      	movs	r3, r5
100026d4:	2000      	movs	r0, #0
100026d6:	2180      	movs	r1, #128	; 0x80
100026d8:	05c9      	lsls	r1, r1, #23
100026da:	f001 f8b6 	bl	1000384a <__wrap___aeabi_dsub>
100026de:	0004      	movs	r4, r0
100026e0:	000d      	movs	r5, r1
100026e2:	2200      	movs	r2, #0
100026e4:	4b9a      	ldr	r3, [pc, #616]	; (10002950 <_etoa+0x3e0>)
100026e6:	980a      	ldr	r0, [sp, #40]	; 0x28
100026e8:	990b      	ldr	r1, [sp, #44]	; 0x2c
100026ea:	f001 f8c0 	bl	1000386e <__wrap___aeabi_ddiv>
100026ee:	2200      	movs	r2, #0
100026f0:	4b98      	ldr	r3, [pc, #608]	; (10002954 <_etoa+0x3e4>)
100026f2:	f001 f8b3 	bl	1000385c <__wrap___aeabi_dadd>
100026f6:	0002      	movs	r2, r0
100026f8:	000b      	movs	r3, r1
100026fa:	980a      	ldr	r0, [sp, #40]	; 0x28
100026fc:	990b      	ldr	r1, [sp, #44]	; 0x2c
100026fe:	f001 f8b6 	bl	1000386e <__wrap___aeabi_ddiv>
10002702:	2200      	movs	r2, #0
10002704:	4b94      	ldr	r3, [pc, #592]	; (10002958 <_etoa+0x3e8>)
10002706:	f001 f8a9 	bl	1000385c <__wrap___aeabi_dadd>
1000270a:	0002      	movs	r2, r0
1000270c:	000b      	movs	r3, r1
1000270e:	980a      	ldr	r0, [sp, #40]	; 0x28
10002710:	990b      	ldr	r1, [sp, #44]	; 0x2c
10002712:	f001 f8ac 	bl	1000386e <__wrap___aeabi_ddiv>
10002716:	0002      	movs	r2, r0
10002718:	000b      	movs	r3, r1
1000271a:	0020      	movs	r0, r4
1000271c:	0029      	movs	r1, r5
1000271e:	f001 f89d 	bl	1000385c <__wrap___aeabi_dadd>
10002722:	0002      	movs	r2, r0
10002724:	000b      	movs	r3, r1
10002726:	980e      	ldr	r0, [sp, #56]	; 0x38
10002728:	990f      	ldr	r1, [sp, #60]	; 0x3c
1000272a:	f001 f8a0 	bl	1000386e <__wrap___aeabi_ddiv>
1000272e:	2200      	movs	r2, #0
10002730:	4b77      	ldr	r3, [pc, #476]	; (10002910 <_etoa+0x3a0>)
10002732:	f001 f893 	bl	1000385c <__wrap___aeabi_dadd>
10002736:	0032      	movs	r2, r6
10002738:	003b      	movs	r3, r7
1000273a:	f001 f8b6 	bl	100038aa <__wrap___aeabi_dmul>
1000273e:	0006      	movs	r6, r0
10002740:	000f      	movs	r7, r1
10002742:	0004      	movs	r4, r0
10002744:	000d      	movs	r5, r1
10002746:	9a06      	ldr	r2, [sp, #24]
10002748:	9b07      	ldr	r3, [sp, #28]
1000274a:	f001 f907 	bl	1000395c <__wrap___aeabi_dcmpgt>
1000274e:	2800      	cmp	r0, #0
10002750:	d030      	beq.n	100027b4 <_etoa+0x244>
10002752:	2301      	movs	r3, #1
10002754:	425b      	negs	r3, r3
10002756:	469c      	mov	ip, r3
10002758:	44e1      	add	r9, ip
1000275a:	2200      	movs	r2, #0
1000275c:	4b7d      	ldr	r3, [pc, #500]	; (10002954 <_etoa+0x3e4>)
1000275e:	0030      	movs	r0, r6
10002760:	0039      	movs	r1, r7
10002762:	f001 f884 	bl	1000386e <__wrap___aeabi_ddiv>
10002766:	0004      	movs	r4, r0
10002768:	000d      	movs	r5, r1
1000276a:	e023      	b.n	100027b4 <_etoa+0x244>
1000276c:	9b1e      	ldr	r3, [sp, #120]	; 0x78
1000276e:	9304      	str	r3, [sp, #16]
10002770:	9b1d      	ldr	r3, [sp, #116]	; 0x74
10002772:	9303      	str	r3, [sp, #12]
10002774:	9b1c      	ldr	r3, [sp, #112]	; 0x70
10002776:	9302      	str	r3, [sp, #8]
10002778:	9a08      	ldr	r2, [sp, #32]
1000277a:	9b09      	ldr	r3, [sp, #36]	; 0x24
1000277c:	9200      	str	r2, [sp, #0]
1000277e:	9301      	str	r3, [sp, #4]
10002780:	4643      	mov	r3, r8
10002782:	9a0c      	ldr	r2, [sp, #48]	; 0x30
10002784:	4651      	mov	r1, sl
10002786:	4658      	mov	r0, fp
10002788:	f000 f8fc 	bl	10002984 <_ftoa>
1000278c:	b011      	add	sp, #68	; 0x44
1000278e:	bcf0      	pop	{r4, r5, r6, r7}
10002790:	46bb      	mov	fp, r7
10002792:	46b2      	mov	sl, r6
10002794:	46a9      	mov	r9, r5
10002796:	46a0      	mov	r8, r4
10002798:	bdf0      	pop	{r4, r5, r6, r7, pc}
1000279a:	2300      	movs	r3, #0
1000279c:	2400      	movs	r4, #0
1000279e:	9306      	str	r3, [sp, #24]
100027a0:	9407      	str	r4, [sp, #28]
100027a2:	9606      	str	r6, [sp, #24]
100027a4:	2380      	movs	r3, #128	; 0x80
100027a6:	061b      	lsls	r3, r3, #24
100027a8:	469c      	mov	ip, r3
100027aa:	4465      	add	r5, ip
100027ac:	9507      	str	r5, [sp, #28]
100027ae:	e71a      	b.n	100025e6 <_etoa+0x76>
100027b0:	2300      	movs	r3, #0
100027b2:	4699      	mov	r9, r3
100027b4:	464b      	mov	r3, r9
100027b6:	3363      	adds	r3, #99	; 0x63
100027b8:	2bc6      	cmp	r3, #198	; 0xc6
100027ba:	d81e      	bhi.n	100027fa <_etoa+0x28a>
100027bc:	2604      	movs	r6, #4
100027be:	9b1e      	ldr	r3, [sp, #120]	; 0x78
100027c0:	051b      	lsls	r3, r3, #20
100027c2:	d526      	bpl.n	10002812 <_etoa+0x2a2>
100027c4:	002b      	movs	r3, r5
100027c6:	4323      	orrs	r3, r4
100027c8:	d00f      	beq.n	100027ea <_etoa+0x27a>
100027ca:	4a64      	ldr	r2, [pc, #400]	; (1000295c <_etoa+0x3ec>)
100027cc:	4b64      	ldr	r3, [pc, #400]	; (10002960 <_etoa+0x3f0>)
100027ce:	9806      	ldr	r0, [sp, #24]
100027d0:	9907      	ldr	r1, [sp, #28]
100027d2:	f001 f8bb 	bl	1000394c <__wrap___aeabi_dcmpge>
100027d6:	2800      	cmp	r0, #0
100027d8:	d079      	beq.n	100028ce <_etoa+0x35e>
100027da:	2200      	movs	r2, #0
100027dc:	4b61      	ldr	r3, [pc, #388]	; (10002964 <_etoa+0x3f4>)
100027de:	9806      	ldr	r0, [sp, #24]
100027e0:	9907      	ldr	r1, [sp, #28]
100027e2:	f001 f8a5 	bl	10003930 <__wrap___aeabi_dcmplt>
100027e6:	2800      	cmp	r0, #0
100027e8:	d071      	beq.n	100028ce <_etoa+0x35e>
100027ea:	9b1c      	ldr	r3, [sp, #112]	; 0x70
100027ec:	454b      	cmp	r3, r9
100027ee:	dd06      	ble.n	100027fe <_etoa+0x28e>
100027f0:	464a      	mov	r2, r9
100027f2:	1a98      	subs	r0, r3, r2
100027f4:	1e43      	subs	r3, r0, #1
100027f6:	931c      	str	r3, [sp, #112]	; 0x70
100027f8:	e003      	b.n	10002802 <_etoa+0x292>
100027fa:	2605      	movs	r6, #5
100027fc:	e7df      	b.n	100027be <_etoa+0x24e>
100027fe:	2300      	movs	r3, #0
10002800:	931c      	str	r3, [sp, #112]	; 0x70
10002802:	2380      	movs	r3, #128	; 0x80
10002804:	00db      	lsls	r3, r3, #3
10002806:	9a1e      	ldr	r2, [sp, #120]	; 0x78
10002808:	431a      	orrs	r2, r3
1000280a:	921e      	str	r2, [sp, #120]	; 0x78
1000280c:	2600      	movs	r6, #0
1000280e:	2300      	movs	r3, #0
10002810:	4699      	mov	r9, r3
10002812:	9b1d      	ldr	r3, [sp, #116]	; 0x74
10002814:	429e      	cmp	r6, r3
10002816:	d264      	bcs.n	100028e2 <_etoa+0x372>
10002818:	1b9f      	subs	r7, r3, r6
1000281a:	2302      	movs	r3, #2
1000281c:	9a1e      	ldr	r2, [sp, #120]	; 0x78
1000281e:	401a      	ands	r2, r3
10002820:	920a      	str	r2, [sp, #40]	; 0x28
10002822:	9a1e      	ldr	r2, [sp, #120]	; 0x78
10002824:	4213      	tst	r3, r2
10002826:	d002      	beq.n	1000282e <_etoa+0x2be>
10002828:	2e00      	cmp	r6, #0
1000282a:	d000      	beq.n	1000282e <_etoa+0x2be>
1000282c:	2700      	movs	r7, #0
1000282e:	464b      	mov	r3, r9
10002830:	2b00      	cmp	r3, #0
10002832:	d007      	beq.n	10002844 <_etoa+0x2d4>
10002834:	0022      	movs	r2, r4
10002836:	002b      	movs	r3, r5
10002838:	9806      	ldr	r0, [sp, #24]
1000283a:	9907      	ldr	r1, [sp, #28]
1000283c:	f001 f817 	bl	1000386e <__wrap___aeabi_ddiv>
10002840:	9006      	str	r0, [sp, #24]
10002842:	9107      	str	r1, [sp, #28]
10002844:	2200      	movs	r2, #0
10002846:	2300      	movs	r3, #0
10002848:	9808      	ldr	r0, [sp, #32]
1000284a:	9909      	ldr	r1, [sp, #36]	; 0x24
1000284c:	f001 f870 	bl	10003930 <__wrap___aeabi_dcmplt>
10002850:	2800      	cmp	r0, #0
10002852:	d148      	bne.n	100028e6 <_etoa+0x376>
10002854:	4b44      	ldr	r3, [pc, #272]	; (10002968 <_etoa+0x3f8>)
10002856:	9a1e      	ldr	r2, [sp, #120]	; 0x78
10002858:	4013      	ands	r3, r2
1000285a:	9304      	str	r3, [sp, #16]
1000285c:	9703      	str	r7, [sp, #12]
1000285e:	9b1c      	ldr	r3, [sp, #112]	; 0x70
10002860:	9302      	str	r3, [sp, #8]
10002862:	9b06      	ldr	r3, [sp, #24]
10002864:	9c07      	ldr	r4, [sp, #28]
10002866:	9300      	str	r3, [sp, #0]
10002868:	9401      	str	r4, [sp, #4]
1000286a:	4643      	mov	r3, r8
1000286c:	9a0c      	ldr	r2, [sp, #48]	; 0x30
1000286e:	4651      	mov	r1, sl
10002870:	4658      	mov	r0, fp
10002872:	f000 f887 	bl	10002984 <_ftoa>
10002876:	2e00      	cmp	r6, #0
10002878:	d100      	bne.n	1000287c <_etoa+0x30c>
1000287a:	e787      	b.n	1000278c <_etoa+0x21c>
1000287c:	9b1e      	ldr	r3, [sp, #120]	; 0x78
1000287e:	069b      	lsls	r3, r3, #26
10002880:	d53d      	bpl.n	100028fe <_etoa+0x38e>
10002882:	2545      	movs	r5, #69	; 0x45
10002884:	1c44      	adds	r4, r0, #1
10002886:	4643      	mov	r3, r8
10002888:	0002      	movs	r2, r0
1000288a:	4651      	mov	r1, sl
1000288c:	0028      	movs	r0, r5
1000288e:	47d8      	blx	fp
10002890:	464b      	mov	r3, r9
10002892:	17da      	asrs	r2, r3, #31
10002894:	189b      	adds	r3, r3, r2
10002896:	4053      	eors	r3, r2
10002898:	2205      	movs	r2, #5
1000289a:	9205      	str	r2, [sp, #20]
1000289c:	3e01      	subs	r6, #1
1000289e:	9604      	str	r6, [sp, #16]
100028a0:	2200      	movs	r2, #0
100028a2:	9203      	str	r2, [sp, #12]
100028a4:	320a      	adds	r2, #10
100028a6:	9202      	str	r2, [sp, #8]
100028a8:	464a      	mov	r2, r9
100028aa:	0fd0      	lsrs	r0, r2, #31
100028ac:	9001      	str	r0, [sp, #4]
100028ae:	9300      	str	r3, [sp, #0]
100028b0:	4643      	mov	r3, r8
100028b2:	0022      	movs	r2, r4
100028b4:	4651      	mov	r1, sl
100028b6:	4658      	mov	r0, fp
100028b8:	f7ff fd8a 	bl	100023d0 <_ntoa_long>
100028bc:	9b0a      	ldr	r3, [sp, #40]	; 0x28
100028be:	2b00      	cmp	r3, #0
100028c0:	d100      	bne.n	100028c4 <_etoa+0x354>
100028c2:	e763      	b.n	1000278c <_etoa+0x21c>
100028c4:	0002      	movs	r2, r0
100028c6:	465f      	mov	r7, fp
100028c8:	9e0c      	ldr	r6, [sp, #48]	; 0x30
100028ca:	9d1d      	ldr	r5, [sp, #116]	; 0x74
100028cc:	e054      	b.n	10002978 <_etoa+0x408>
100028ce:	9b1c      	ldr	r3, [sp, #112]	; 0x70
100028d0:	2b00      	cmp	r3, #0
100028d2:	d09e      	beq.n	10002812 <_etoa+0x2a2>
100028d4:	9b0d      	ldr	r3, [sp, #52]	; 0x34
100028d6:	2b00      	cmp	r3, #0
100028d8:	d09b      	beq.n	10002812 <_etoa+0x2a2>
100028da:	9b1c      	ldr	r3, [sp, #112]	; 0x70
100028dc:	3b01      	subs	r3, #1
100028de:	931c      	str	r3, [sp, #112]	; 0x70
100028e0:	e797      	b.n	10002812 <_etoa+0x2a2>
100028e2:	2700      	movs	r7, #0
100028e4:	e799      	b.n	1000281a <_etoa+0x2aa>
100028e6:	9c06      	ldr	r4, [sp, #24]
100028e8:	9d07      	ldr	r5, [sp, #28]
100028ea:	0022      	movs	r2, r4
100028ec:	0029      	movs	r1, r5
100028ee:	2080      	movs	r0, #128	; 0x80
100028f0:	0600      	lsls	r0, r0, #24
100028f2:	4684      	mov	ip, r0
100028f4:	4461      	add	r1, ip
100028f6:	000b      	movs	r3, r1
100028f8:	9206      	str	r2, [sp, #24]
100028fa:	9307      	str	r3, [sp, #28]
100028fc:	e7aa      	b.n	10002854 <_etoa+0x2e4>
100028fe:	2565      	movs	r5, #101	; 0x65
10002900:	e7c0      	b.n	10002884 <_etoa+0x314>
10002902:	46c0      	nop			; (mov r8, r8)
10002904:	7fefffff 	.word	0x7fefffff
10002908:	ffefffff 	.word	0xffefffff
1000290c:	fffffc01 	.word	0xfffffc01
10002910:	3ff00000 	.word	0x3ff00000
10002914:	509f79fb 	.word	0x509f79fb
10002918:	3fd34413 	.word	0x3fd34413
1000291c:	8b60c8b3 	.word	0x8b60c8b3
10002920:	3fc68a28 	.word	0x3fc68a28
10002924:	3ff80000 	.word	0x3ff80000
10002928:	636f4361 	.word	0x636f4361
1000292c:	3fd287a7 	.word	0x3fd287a7
10002930:	0979a371 	.word	0x0979a371
10002934:	400a934f 	.word	0x400a934f
10002938:	3fe00000 	.word	0x3fe00000
1000293c:	bbb55516 	.word	0xbbb55516
10002940:	40026bb1 	.word	0x40026bb1
10002944:	fefa39ef 	.word	0xfefa39ef
10002948:	3fe62e42 	.word	0x3fe62e42
1000294c:	000003ff 	.word	0x000003ff
10002950:	402c0000 	.word	0x402c0000
10002954:	40240000 	.word	0x40240000
10002958:	40180000 	.word	0x40180000
1000295c:	eb1c432d 	.word	0xeb1c432d
10002960:	3f1a36e2 	.word	0x3f1a36e2
10002964:	412e8480 	.word	0x412e8480
10002968:	fffff7ff 	.word	0xfffff7ff
1000296c:	1c54      	adds	r4, r2, #1
1000296e:	4643      	mov	r3, r8
10002970:	4651      	mov	r1, sl
10002972:	2020      	movs	r0, #32
10002974:	47b8      	blx	r7
10002976:	0022      	movs	r2, r4
10002978:	1b93      	subs	r3, r2, r6
1000297a:	42ab      	cmp	r3, r5
1000297c:	d3f6      	bcc.n	1000296c <_etoa+0x3fc>
1000297e:	0010      	movs	r0, r2
10002980:	e704      	b.n	1000278c <_etoa+0x21c>
10002982:	46c0      	nop			; (mov r8, r8)

10002984 <_ftoa>:
10002984:	b5f0      	push	{r4, r5, r6, r7, lr}
10002986:	46de      	mov	lr, fp
10002988:	4657      	mov	r7, sl
1000298a:	464e      	mov	r6, r9
1000298c:	4645      	mov	r5, r8
1000298e:	b5e0      	push	{r5, r6, r7, lr}
10002990:	b095      	sub	sp, #84	; 0x54
10002992:	9006      	str	r0, [sp, #24]
10002994:	9107      	str	r1, [sp, #28]
10002996:	4693      	mov	fp, r2
10002998:	4699      	mov	r9, r3
1000299a:	9f20      	ldr	r7, [sp, #128]	; 0x80
1000299c:	9a1e      	ldr	r2, [sp, #120]	; 0x78
1000299e:	9b1f      	ldr	r3, [sp, #124]	; 0x7c
100029a0:	0010      	movs	r0, r2
100029a2:	0019      	movs	r1, r3
100029a4:	f000 ffdf 	bl	10003966 <__wrap___aeabi_dcmpun>
100029a8:	2800      	cmp	r0, #0
100029aa:	d131      	bne.n	10002a10 <_ftoa+0x8c>
100029ac:	2201      	movs	r2, #1
100029ae:	4252      	negs	r2, r2
100029b0:	4bbf      	ldr	r3, [pc, #764]	; (10002cb0 <_ftoa+0x32c>)
100029b2:	981e      	ldr	r0, [sp, #120]	; 0x78
100029b4:	991f      	ldr	r1, [sp, #124]	; 0x7c
100029b6:	f000 ffbb 	bl	10003930 <__wrap___aeabi_dcmplt>
100029ba:	2800      	cmp	r0, #0
100029bc:	d137      	bne.n	10002a2e <_ftoa+0xaa>
100029be:	2201      	movs	r2, #1
100029c0:	4252      	negs	r2, r2
100029c2:	4bbc      	ldr	r3, [pc, #752]	; (10002cb4 <_ftoa+0x330>)
100029c4:	981e      	ldr	r0, [sp, #120]	; 0x78
100029c6:	991f      	ldr	r1, [sp, #124]	; 0x7c
100029c8:	f000 ffc8 	bl	1000395c <__wrap___aeabi_dcmpgt>
100029cc:	2800      	cmp	r0, #0
100029ce:	d13d      	bne.n	10002a4c <_ftoa+0xc8>
100029d0:	2200      	movs	r2, #0
100029d2:	4bb9      	ldr	r3, [pc, #740]	; (10002cb8 <_ftoa+0x334>)
100029d4:	981e      	ldr	r0, [sp, #120]	; 0x78
100029d6:	991f      	ldr	r1, [sp, #124]	; 0x7c
100029d8:	f000 ffc0 	bl	1000395c <__wrap___aeabi_dcmpgt>
100029dc:	2800      	cmp	r0, #0
100029de:	d150      	bne.n	10002a82 <_ftoa+0xfe>
100029e0:	2200      	movs	r2, #0
100029e2:	4bb6      	ldr	r3, [pc, #728]	; (10002cbc <_ftoa+0x338>)
100029e4:	981e      	ldr	r0, [sp, #120]	; 0x78
100029e6:	991f      	ldr	r1, [sp, #124]	; 0x7c
100029e8:	f000 ffa2 	bl	10003930 <__wrap___aeabi_dcmplt>
100029ec:	2800      	cmp	r0, #0
100029ee:	d148      	bne.n	10002a82 <_ftoa+0xfe>
100029f0:	2200      	movs	r2, #0
100029f2:	2300      	movs	r3, #0
100029f4:	981e      	ldr	r0, [sp, #120]	; 0x78
100029f6:	991f      	ldr	r1, [sp, #124]	; 0x7c
100029f8:	f000 ff9a 	bl	10003930 <__wrap___aeabi_dcmplt>
100029fc:	2800      	cmp	r0, #0
100029fe:	d150      	bne.n	10002aa2 <_ftoa+0x11e>
10002a00:	2300      	movs	r3, #0
10002a02:	4698      	mov	r8, r3
10002a04:	9b22      	ldr	r3, [sp, #136]	; 0x88
10002a06:	055b      	lsls	r3, r3, #21
10002a08:	d400      	bmi.n	10002a0c <_ftoa+0x88>
10002a0a:	e0b6      	b.n	10002b7a <_ftoa+0x1f6>
10002a0c:	2400      	movs	r4, #0
10002a0e:	e058      	b.n	10002ac2 <_ftoa+0x13e>
10002a10:	9b22      	ldr	r3, [sp, #136]	; 0x88
10002a12:	9303      	str	r3, [sp, #12]
10002a14:	9b21      	ldr	r3, [sp, #132]	; 0x84
10002a16:	9302      	str	r3, [sp, #8]
10002a18:	2303      	movs	r3, #3
10002a1a:	9301      	str	r3, [sp, #4]
10002a1c:	4ba8      	ldr	r3, [pc, #672]	; (10002cc0 <_ftoa+0x33c>)
10002a1e:	9300      	str	r3, [sp, #0]
10002a20:	464b      	mov	r3, r9
10002a22:	465a      	mov	r2, fp
10002a24:	9907      	ldr	r1, [sp, #28]
10002a26:	9806      	ldr	r0, [sp, #24]
10002a28:	f7ff fbf2 	bl	10002210 <_out_rev>
10002a2c:	e10e      	b.n	10002c4c <_ftoa+0x2c8>
10002a2e:	9b22      	ldr	r3, [sp, #136]	; 0x88
10002a30:	9303      	str	r3, [sp, #12]
10002a32:	9b21      	ldr	r3, [sp, #132]	; 0x84
10002a34:	9302      	str	r3, [sp, #8]
10002a36:	2304      	movs	r3, #4
10002a38:	9301      	str	r3, [sp, #4]
10002a3a:	4ba2      	ldr	r3, [pc, #648]	; (10002cc4 <_ftoa+0x340>)
10002a3c:	9300      	str	r3, [sp, #0]
10002a3e:	464b      	mov	r3, r9
10002a40:	465a      	mov	r2, fp
10002a42:	9907      	ldr	r1, [sp, #28]
10002a44:	9806      	ldr	r0, [sp, #24]
10002a46:	f7ff fbe3 	bl	10002210 <_out_rev>
10002a4a:	e0ff      	b.n	10002c4c <_ftoa+0x2c8>
10002a4c:	2304      	movs	r3, #4
10002a4e:	9a22      	ldr	r2, [sp, #136]	; 0x88
10002a50:	401a      	ands	r2, r3
10002a52:	9922      	ldr	r1, [sp, #136]	; 0x88
10002a54:	420b      	tst	r3, r1
10002a56:	d010      	beq.n	10002a7a <_ftoa+0xf6>
10002a58:	4b9b      	ldr	r3, [pc, #620]	; (10002cc8 <_ftoa+0x344>)
10002a5a:	2a00      	cmp	r2, #0
10002a5c:	d00f      	beq.n	10002a7e <_ftoa+0xfa>
10002a5e:	2204      	movs	r2, #4
10002a60:	9922      	ldr	r1, [sp, #136]	; 0x88
10002a62:	9103      	str	r1, [sp, #12]
10002a64:	9921      	ldr	r1, [sp, #132]	; 0x84
10002a66:	9102      	str	r1, [sp, #8]
10002a68:	9201      	str	r2, [sp, #4]
10002a6a:	9300      	str	r3, [sp, #0]
10002a6c:	464b      	mov	r3, r9
10002a6e:	465a      	mov	r2, fp
10002a70:	9907      	ldr	r1, [sp, #28]
10002a72:	9806      	ldr	r0, [sp, #24]
10002a74:	f7ff fbcc 	bl	10002210 <_out_rev>
10002a78:	e0e8      	b.n	10002c4c <_ftoa+0x2c8>
10002a7a:	4b94      	ldr	r3, [pc, #592]	; (10002ccc <_ftoa+0x348>)
10002a7c:	e7ed      	b.n	10002a5a <_ftoa+0xd6>
10002a7e:	2203      	movs	r2, #3
10002a80:	e7ee      	b.n	10002a60 <_ftoa+0xdc>
10002a82:	9b22      	ldr	r3, [sp, #136]	; 0x88
10002a84:	9304      	str	r3, [sp, #16]
10002a86:	9b21      	ldr	r3, [sp, #132]	; 0x84
10002a88:	9303      	str	r3, [sp, #12]
10002a8a:	9702      	str	r7, [sp, #8]
10002a8c:	9b1e      	ldr	r3, [sp, #120]	; 0x78
10002a8e:	9c1f      	ldr	r4, [sp, #124]	; 0x7c
10002a90:	9300      	str	r3, [sp, #0]
10002a92:	9401      	str	r4, [sp, #4]
10002a94:	464b      	mov	r3, r9
10002a96:	465a      	mov	r2, fp
10002a98:	9907      	ldr	r1, [sp, #28]
10002a9a:	9806      	ldr	r0, [sp, #24]
10002a9c:	f7ff fd68 	bl	10002570 <_etoa>
10002aa0:	e0d4      	b.n	10002c4c <_ftoa+0x2c8>
10002aa2:	9a1e      	ldr	r2, [sp, #120]	; 0x78
10002aa4:	9b1f      	ldr	r3, [sp, #124]	; 0x7c
10002aa6:	2000      	movs	r0, #0
10002aa8:	2100      	movs	r1, #0
10002aaa:	f000 fece 	bl	1000384a <__wrap___aeabi_dsub>
10002aae:	901e      	str	r0, [sp, #120]	; 0x78
10002ab0:	911f      	str	r1, [sp, #124]	; 0x7c
10002ab2:	2301      	movs	r3, #1
10002ab4:	4698      	mov	r8, r3
10002ab6:	e7a5      	b.n	10002a04 <_ftoa+0x80>
10002ab8:	ab0c      	add	r3, sp, #48	; 0x30
10002aba:	2230      	movs	r2, #48	; 0x30
10002abc:	551a      	strb	r2, [r3, r4]
10002abe:	3f01      	subs	r7, #1
10002ac0:	3401      	adds	r4, #1
10002ac2:	2c1f      	cmp	r4, #31
10002ac4:	d801      	bhi.n	10002aca <_ftoa+0x146>
10002ac6:	2f09      	cmp	r7, #9
10002ac8:	d8f6      	bhi.n	10002ab8 <_ftoa+0x134>
10002aca:	981e      	ldr	r0, [sp, #120]	; 0x78
10002acc:	991f      	ldr	r1, [sp, #124]	; 0x7c
10002ace:	f000 ff75 	bl	100039bc <__wrap___aeabi_d2iz>
10002ad2:	0005      	movs	r5, r0
10002ad4:	f000 ff5a 	bl	1000398c <__wrap___aeabi_i2d>
10002ad8:	0002      	movs	r2, r0
10002ada:	000b      	movs	r3, r1
10002adc:	981e      	ldr	r0, [sp, #120]	; 0x78
10002ade:	991f      	ldr	r1, [sp, #124]	; 0x7c
10002ae0:	f000 feb3 	bl	1000384a <__wrap___aeabi_dsub>
10002ae4:	00fa      	lsls	r2, r7, #3
10002ae6:	4b7a      	ldr	r3, [pc, #488]	; (10002cd0 <_ftoa+0x34c>)
10002ae8:	189b      	adds	r3, r3, r2
10002aea:	681a      	ldr	r2, [r3, #0]
10002aec:	685b      	ldr	r3, [r3, #4]
10002aee:	920a      	str	r2, [sp, #40]	; 0x28
10002af0:	930b      	str	r3, [sp, #44]	; 0x2c
10002af2:	f000 feda 	bl	100038aa <__wrap___aeabi_dmul>
10002af6:	9008      	str	r0, [sp, #32]
10002af8:	9109      	str	r1, [sp, #36]	; 0x24
10002afa:	f000 ff83 	bl	10003a04 <__wrap___aeabi_d2uiz>
10002afe:	0006      	movs	r6, r0
10002b00:	f000 ff40 	bl	10003984 <__wrap___aeabi_ui2d>
10002b04:	0002      	movs	r2, r0
10002b06:	000b      	movs	r3, r1
10002b08:	9808      	ldr	r0, [sp, #32]
10002b0a:	9909      	ldr	r1, [sp, #36]	; 0x24
10002b0c:	f000 fe9d 	bl	1000384a <__wrap___aeabi_dsub>
10002b10:	9008      	str	r0, [sp, #32]
10002b12:	9109      	str	r1, [sp, #36]	; 0x24
10002b14:	2200      	movs	r2, #0
10002b16:	4b6f      	ldr	r3, [pc, #444]	; (10002cd4 <_ftoa+0x350>)
10002b18:	f000 ff20 	bl	1000395c <__wrap___aeabi_dcmpgt>
10002b1c:	2800      	cmp	r0, #0
10002b1e:	d02e      	beq.n	10002b7e <_ftoa+0x1fa>
10002b20:	3601      	adds	r6, #1
10002b22:	0030      	movs	r0, r6
10002b24:	f000 ff2e 	bl	10003984 <__wrap___aeabi_ui2d>
10002b28:	0002      	movs	r2, r0
10002b2a:	000b      	movs	r3, r1
10002b2c:	980a      	ldr	r0, [sp, #40]	; 0x28
10002b2e:	990b      	ldr	r1, [sp, #44]	; 0x2c
10002b30:	f000 ff04 	bl	1000393c <__wrap___aeabi_dcmple>
10002b34:	2800      	cmp	r0, #0
10002b36:	d001      	beq.n	10002b3c <_ftoa+0x1b8>
10002b38:	3501      	adds	r5, #1
10002b3a:	2600      	movs	r6, #0
10002b3c:	2f00      	cmp	r7, #0
10002b3e:	d12c      	bne.n	10002b9a <_ftoa+0x216>
10002b40:	0028      	movs	r0, r5
10002b42:	f000 ff23 	bl	1000398c <__wrap___aeabi_i2d>
10002b46:	0002      	movs	r2, r0
10002b48:	000b      	movs	r3, r1
10002b4a:	981e      	ldr	r0, [sp, #120]	; 0x78
10002b4c:	991f      	ldr	r1, [sp, #124]	; 0x7c
10002b4e:	f000 fe7c 	bl	1000384a <__wrap___aeabi_dsub>
10002b52:	0006      	movs	r6, r0
10002b54:	000f      	movs	r7, r1
10002b56:	2200      	movs	r2, #0
10002b58:	4b5e      	ldr	r3, [pc, #376]	; (10002cd4 <_ftoa+0x350>)
10002b5a:	f000 fee9 	bl	10003930 <__wrap___aeabi_dcmplt>
10002b5e:	2800      	cmp	r0, #0
10002b60:	d146      	bne.n	10002bf0 <_ftoa+0x26c>
10002b62:	2200      	movs	r2, #0
10002b64:	4b5b      	ldr	r3, [pc, #364]	; (10002cd4 <_ftoa+0x350>)
10002b66:	0030      	movs	r0, r6
10002b68:	0039      	movs	r1, r7
10002b6a:	f000 fef7 	bl	1000395c <__wrap___aeabi_dcmpgt>
10002b6e:	2800      	cmp	r0, #0
10002b70:	d13e      	bne.n	10002bf0 <_ftoa+0x26c>
10002b72:	07eb      	lsls	r3, r5, #31
10002b74:	d53c      	bpl.n	10002bf0 <_ftoa+0x26c>
10002b76:	3501      	adds	r5, #1
10002b78:	e03a      	b.n	10002bf0 <_ftoa+0x26c>
10002b7a:	2706      	movs	r7, #6
10002b7c:	e746      	b.n	10002a0c <_ftoa+0x88>
10002b7e:	2200      	movs	r2, #0
10002b80:	4b54      	ldr	r3, [pc, #336]	; (10002cd4 <_ftoa+0x350>)
10002b82:	9808      	ldr	r0, [sp, #32]
10002b84:	9909      	ldr	r1, [sp, #36]	; 0x24
10002b86:	f000 fed3 	bl	10003930 <__wrap___aeabi_dcmplt>
10002b8a:	2800      	cmp	r0, #0
10002b8c:	d1d6      	bne.n	10002b3c <_ftoa+0x1b8>
10002b8e:	2e00      	cmp	r6, #0
10002b90:	d001      	beq.n	10002b96 <_ftoa+0x212>
10002b92:	07f3      	lsls	r3, r6, #31
10002b94:	d5d2      	bpl.n	10002b3c <_ftoa+0x1b8>
10002b96:	3601      	adds	r6, #1
10002b98:	e7d0      	b.n	10002b3c <_ftoa+0x1b8>
10002b9a:	46aa      	mov	sl, r5
10002b9c:	2c1f      	cmp	r4, #31
10002b9e:	d811      	bhi.n	10002bc4 <_ftoa+0x240>
10002ba0:	3f01      	subs	r7, #1
10002ba2:	210a      	movs	r1, #10
10002ba4:	0030      	movs	r0, r6
10002ba6:	f000 fc15 	bl	100033d4 <__wrap___aeabi_uidiv>
10002baa:	1c65      	adds	r5, r4, #1
10002bac:	3130      	adds	r1, #48	; 0x30
10002bae:	ab0c      	add	r3, sp, #48	; 0x30
10002bb0:	5519      	strb	r1, [r3, r4]
10002bb2:	210a      	movs	r1, #10
10002bb4:	0030      	movs	r0, r6
10002bb6:	f000 fc0d 	bl	100033d4 <__wrap___aeabi_uidiv>
10002bba:	2e09      	cmp	r6, #9
10002bbc:	d90e      	bls.n	10002bdc <_ftoa+0x258>
10002bbe:	0006      	movs	r6, r0
10002bc0:	002c      	movs	r4, r5
10002bc2:	e7eb      	b.n	10002b9c <_ftoa+0x218>
10002bc4:	4655      	mov	r5, sl
10002bc6:	2c1f      	cmp	r4, #31
10002bc8:	d80c      	bhi.n	10002be4 <_ftoa+0x260>
10002bca:	1e7b      	subs	r3, r7, #1
10002bcc:	2f00      	cmp	r7, #0
10002bce:	d009      	beq.n	10002be4 <_ftoa+0x260>
10002bd0:	aa0c      	add	r2, sp, #48	; 0x30
10002bd2:	2130      	movs	r1, #48	; 0x30
10002bd4:	5511      	strb	r1, [r2, r4]
10002bd6:	001f      	movs	r7, r3
10002bd8:	3401      	adds	r4, #1
10002bda:	e7f4      	b.n	10002bc6 <_ftoa+0x242>
10002bdc:	002b      	movs	r3, r5
10002bde:	4655      	mov	r5, sl
10002be0:	001c      	movs	r4, r3
10002be2:	e7f0      	b.n	10002bc6 <_ftoa+0x242>
10002be4:	2c1f      	cmp	r4, #31
10002be6:	d803      	bhi.n	10002bf0 <_ftoa+0x26c>
10002be8:	ab0c      	add	r3, sp, #48	; 0x30
10002bea:	222e      	movs	r2, #46	; 0x2e
10002bec:	551a      	strb	r2, [r3, r4]
10002bee:	3401      	adds	r4, #1
10002bf0:	2c1f      	cmp	r4, #31
10002bf2:	d810      	bhi.n	10002c16 <_ftoa+0x292>
10002bf4:	210a      	movs	r1, #10
10002bf6:	0028      	movs	r0, r5
10002bf8:	f000 fbc4 	bl	10003384 <__wrap___aeabi_idiv>
10002bfc:	1c66      	adds	r6, r4, #1
10002bfe:	3130      	adds	r1, #48	; 0x30
10002c00:	ab0c      	add	r3, sp, #48	; 0x30
10002c02:	5519      	strb	r1, [r3, r4]
10002c04:	210a      	movs	r1, #10
10002c06:	0028      	movs	r0, r5
10002c08:	f000 fbbc 	bl	10003384 <__wrap___aeabi_idiv>
10002c0c:	1e05      	subs	r5, r0, #0
10002c0e:	d001      	beq.n	10002c14 <_ftoa+0x290>
10002c10:	0034      	movs	r4, r6
10002c12:	e7ed      	b.n	10002bf0 <_ftoa+0x26c>
10002c14:	0034      	movs	r4, r6
10002c16:	2303      	movs	r3, #3
10002c18:	9a22      	ldr	r2, [sp, #136]	; 0x88
10002c1a:	4013      	ands	r3, r2
10002c1c:	2b01      	cmp	r3, #1
10002c1e:	d01c      	beq.n	10002c5a <_ftoa+0x2d6>
10002c20:	2c1f      	cmp	r4, #31
10002c22:	d806      	bhi.n	10002c32 <_ftoa+0x2ae>
10002c24:	4643      	mov	r3, r8
10002c26:	2b00      	cmp	r3, #0
10002c28:	d032      	beq.n	10002c90 <_ftoa+0x30c>
10002c2a:	ab0c      	add	r3, sp, #48	; 0x30
10002c2c:	222d      	movs	r2, #45	; 0x2d
10002c2e:	551a      	strb	r2, [r3, r4]
10002c30:	3401      	adds	r4, #1
10002c32:	9b22      	ldr	r3, [sp, #136]	; 0x88
10002c34:	9303      	str	r3, [sp, #12]
10002c36:	9b21      	ldr	r3, [sp, #132]	; 0x84
10002c38:	9302      	str	r3, [sp, #8]
10002c3a:	9401      	str	r4, [sp, #4]
10002c3c:	ab0c      	add	r3, sp, #48	; 0x30
10002c3e:	9300      	str	r3, [sp, #0]
10002c40:	464b      	mov	r3, r9
10002c42:	465a      	mov	r2, fp
10002c44:	9907      	ldr	r1, [sp, #28]
10002c46:	9806      	ldr	r0, [sp, #24]
10002c48:	f7ff fae2 	bl	10002210 <_out_rev>
10002c4c:	b015      	add	sp, #84	; 0x54
10002c4e:	bcf0      	pop	{r4, r5, r6, r7}
10002c50:	46bb      	mov	fp, r7
10002c52:	46b2      	mov	sl, r6
10002c54:	46a9      	mov	r9, r5
10002c56:	46a0      	mov	r8, r4
10002c58:	bdf0      	pop	{r4, r5, r6, r7, pc}
10002c5a:	9b21      	ldr	r3, [sp, #132]	; 0x84
10002c5c:	2b00      	cmp	r3, #0
10002c5e:	d013      	beq.n	10002c88 <_ftoa+0x304>
10002c60:	4643      	mov	r3, r8
10002c62:	2b00      	cmp	r3, #0
10002c64:	d102      	bne.n	10002c6c <_ftoa+0x2e8>
10002c66:	330c      	adds	r3, #12
10002c68:	4213      	tst	r3, r2
10002c6a:	d00f      	beq.n	10002c8c <_ftoa+0x308>
10002c6c:	9b21      	ldr	r3, [sp, #132]	; 0x84
10002c6e:	3b01      	subs	r3, #1
10002c70:	9321      	str	r3, [sp, #132]	; 0x84
10002c72:	0019      	movs	r1, r3
10002c74:	e003      	b.n	10002c7e <_ftoa+0x2fa>
10002c76:	ab0c      	add	r3, sp, #48	; 0x30
10002c78:	2230      	movs	r2, #48	; 0x30
10002c7a:	551a      	strb	r2, [r3, r4]
10002c7c:	3401      	adds	r4, #1
10002c7e:	428c      	cmp	r4, r1
10002c80:	d2ce      	bcs.n	10002c20 <_ftoa+0x29c>
10002c82:	2c1f      	cmp	r4, #31
10002c84:	d9f7      	bls.n	10002c76 <_ftoa+0x2f2>
10002c86:	e7cb      	b.n	10002c20 <_ftoa+0x29c>
10002c88:	9921      	ldr	r1, [sp, #132]	; 0x84
10002c8a:	e7f8      	b.n	10002c7e <_ftoa+0x2fa>
10002c8c:	9921      	ldr	r1, [sp, #132]	; 0x84
10002c8e:	e7f6      	b.n	10002c7e <_ftoa+0x2fa>
10002c90:	9b22      	ldr	r3, [sp, #136]	; 0x88
10002c92:	075b      	lsls	r3, r3, #29
10002c94:	d504      	bpl.n	10002ca0 <_ftoa+0x31c>
10002c96:	ab0c      	add	r3, sp, #48	; 0x30
10002c98:	222b      	movs	r2, #43	; 0x2b
10002c9a:	551a      	strb	r2, [r3, r4]
10002c9c:	3401      	adds	r4, #1
10002c9e:	e7c8      	b.n	10002c32 <_ftoa+0x2ae>
10002ca0:	9b22      	ldr	r3, [sp, #136]	; 0x88
10002ca2:	071b      	lsls	r3, r3, #28
10002ca4:	d5c5      	bpl.n	10002c32 <_ftoa+0x2ae>
10002ca6:	ab0c      	add	r3, sp, #48	; 0x30
10002ca8:	2220      	movs	r2, #32
10002caa:	551a      	strb	r2, [r3, r4]
10002cac:	3401      	adds	r4, #1
10002cae:	e7c0      	b.n	10002c32 <_ftoa+0x2ae>
10002cb0:	ffefffff 	.word	0xffefffff
10002cb4:	7fefffff 	.word	0x7fefffff
10002cb8:	41cdcd65 	.word	0x41cdcd65
10002cbc:	c1cdcd65 	.word	0xc1cdcd65
10002cc0:	10007e84 	.word	0x10007e84
10002cc4:	10007e88 	.word	0x10007e88
10002cc8:	10007e7c 	.word	0x10007e7c
10002ccc:	10007e78 	.word	0x10007e78
10002cd0:	10008070 	.word	0x10008070
10002cd4:	3fe00000 	.word	0x3fe00000

10002cd8 <_vsnprintf>:
10002cd8:	b5f0      	push	{r4, r5, r6, r7, lr}
10002cda:	46de      	mov	lr, fp
10002cdc:	4657      	mov	r7, sl
10002cde:	464e      	mov	r6, r9
10002ce0:	4645      	mov	r5, r8
10002ce2:	b5e0      	push	{r5, r6, r7, lr}
10002ce4:	b093      	sub	sp, #76	; 0x4c
10002ce6:	4682      	mov	sl, r0
10002ce8:	468b      	mov	fp, r1
10002cea:	4690      	mov	r8, r2
10002cec:	9311      	str	r3, [sp, #68]	; 0x44
10002cee:	2900      	cmp	r1, #0
10002cf0:	d100      	bne.n	10002cf4 <_vsnprintf+0x1c>
10002cf2:	e2eb      	b.n	100032cc <_vsnprintf+0x5f4>
10002cf4:	2700      	movs	r7, #0
10002cf6:	4655      	mov	r5, sl
10002cf8:	9b11      	ldr	r3, [sp, #68]	; 0x44
10002cfa:	7818      	ldrb	r0, [r3, #0]
10002cfc:	2800      	cmp	r0, #0
10002cfe:	d100      	bne.n	10002d02 <_vsnprintf+0x2a>
10002d00:	e2e7      	b.n	100032d2 <_vsnprintf+0x5fa>
10002d02:	2825      	cmp	r0, #37	; 0x25
10002d04:	d009      	beq.n	10002d1a <_vsnprintf+0x42>
10002d06:	1c7c      	adds	r4, r7, #1
10002d08:	4643      	mov	r3, r8
10002d0a:	003a      	movs	r2, r7
10002d0c:	4659      	mov	r1, fp
10002d0e:	47a8      	blx	r5
10002d10:	9b11      	ldr	r3, [sp, #68]	; 0x44
10002d12:	3301      	adds	r3, #1
10002d14:	9311      	str	r3, [sp, #68]	; 0x44
10002d16:	0027      	movs	r7, r4
10002d18:	e7ee      	b.n	10002cf8 <_vsnprintf+0x20>
10002d1a:	3301      	adds	r3, #1
10002d1c:	9311      	str	r3, [sp, #68]	; 0x44
10002d1e:	2400      	movs	r4, #0
10002d20:	9a11      	ldr	r2, [sp, #68]	; 0x44
10002d22:	7811      	ldrb	r1, [r2, #0]
10002d24:	000b      	movs	r3, r1
10002d26:	3b20      	subs	r3, #32
10002d28:	b2d8      	uxtb	r0, r3
10002d2a:	2810      	cmp	r0, #16
10002d2c:	d803      	bhi.n	10002d36 <_vsnprintf+0x5e>
10002d2e:	0083      	lsls	r3, r0, #2
10002d30:	48d0      	ldr	r0, [pc, #832]	; (10003074 <_vsnprintf+0x39c>)
10002d32:	58c3      	ldr	r3, [r0, r3]
10002d34:	469f      	mov	pc, r3
10002d36:	000b      	movs	r3, r1
10002d38:	3b30      	subs	r3, #48	; 0x30
10002d3a:	b2db      	uxtb	r3, r3
10002d3c:	2b09      	cmp	r3, #9
10002d3e:	d92c      	bls.n	10002d9a <_vsnprintf+0xc2>
10002d40:	292a      	cmp	r1, #42	; 0x2a
10002d42:	d02f      	beq.n	10002da4 <_vsnprintf+0xcc>
10002d44:	2300      	movs	r3, #0
10002d46:	930a      	str	r3, [sp, #40]	; 0x28
10002d48:	9b11      	ldr	r3, [sp, #68]	; 0x44
10002d4a:	781a      	ldrb	r2, [r3, #0]
10002d4c:	2a2e      	cmp	r2, #46	; 0x2e
10002d4e:	d039      	beq.n	10002dc4 <_vsnprintf+0xec>
10002d50:	2300      	movs	r3, #0
10002d52:	469a      	mov	sl, r3
10002d54:	9a11      	ldr	r2, [sp, #68]	; 0x44
10002d56:	7813      	ldrb	r3, [r2, #0]
10002d58:	3b68      	subs	r3, #104	; 0x68
10002d5a:	b2d9      	uxtb	r1, r3
10002d5c:	2912      	cmp	r1, #18
10002d5e:	d876      	bhi.n	10002e4e <_vsnprintf+0x176>
10002d60:	008b      	lsls	r3, r1, #2
10002d62:	49c5      	ldr	r1, [pc, #788]	; (10003078 <_vsnprintf+0x3a0>)
10002d64:	58cb      	ldr	r3, [r1, r3]
10002d66:	469f      	mov	pc, r3
10002d68:	2301      	movs	r3, #1
10002d6a:	431c      	orrs	r4, r3
10002d6c:	3201      	adds	r2, #1
10002d6e:	9211      	str	r2, [sp, #68]	; 0x44
10002d70:	e7d6      	b.n	10002d20 <_vsnprintf+0x48>
10002d72:	2302      	movs	r3, #2
10002d74:	431c      	orrs	r4, r3
10002d76:	3201      	adds	r2, #1
10002d78:	9211      	str	r2, [sp, #68]	; 0x44
10002d7a:	e7d1      	b.n	10002d20 <_vsnprintf+0x48>
10002d7c:	2304      	movs	r3, #4
10002d7e:	431c      	orrs	r4, r3
10002d80:	3201      	adds	r2, #1
10002d82:	9211      	str	r2, [sp, #68]	; 0x44
10002d84:	e7cc      	b.n	10002d20 <_vsnprintf+0x48>
10002d86:	2308      	movs	r3, #8
10002d88:	431c      	orrs	r4, r3
10002d8a:	3201      	adds	r2, #1
10002d8c:	9211      	str	r2, [sp, #68]	; 0x44
10002d8e:	e7c7      	b.n	10002d20 <_vsnprintf+0x48>
10002d90:	2310      	movs	r3, #16
10002d92:	431c      	orrs	r4, r3
10002d94:	3201      	adds	r2, #1
10002d96:	9211      	str	r2, [sp, #68]	; 0x44
10002d98:	e7c2      	b.n	10002d20 <_vsnprintf+0x48>
10002d9a:	a811      	add	r0, sp, #68	; 0x44
10002d9c:	f7ff fa26 	bl	100021ec <_atoi>
10002da0:	900a      	str	r0, [sp, #40]	; 0x28
10002da2:	e7d1      	b.n	10002d48 <_vsnprintf+0x70>
10002da4:	9b1c      	ldr	r3, [sp, #112]	; 0x70
10002da6:	1d1a      	adds	r2, r3, #4
10002da8:	921c      	str	r2, [sp, #112]	; 0x70
10002daa:	6818      	ldr	r0, [r3, #0]
10002dac:	2800      	cmp	r0, #0
10002dae:	db04      	blt.n	10002dba <_vsnprintf+0xe2>
10002db0:	900a      	str	r0, [sp, #40]	; 0x28
10002db2:	9b11      	ldr	r3, [sp, #68]	; 0x44
10002db4:	3301      	adds	r3, #1
10002db6:	9311      	str	r3, [sp, #68]	; 0x44
10002db8:	e7c6      	b.n	10002d48 <_vsnprintf+0x70>
10002dba:	2302      	movs	r3, #2
10002dbc:	431c      	orrs	r4, r3
10002dbe:	4243      	negs	r3, r0
10002dc0:	930a      	str	r3, [sp, #40]	; 0x28
10002dc2:	e7f6      	b.n	10002db2 <_vsnprintf+0xda>
10002dc4:	2280      	movs	r2, #128	; 0x80
10002dc6:	00d2      	lsls	r2, r2, #3
10002dc8:	4314      	orrs	r4, r2
10002dca:	1c5a      	adds	r2, r3, #1
10002dcc:	9211      	str	r2, [sp, #68]	; 0x44
10002dce:	785a      	ldrb	r2, [r3, #1]
10002dd0:	0013      	movs	r3, r2
10002dd2:	3b30      	subs	r3, #48	; 0x30
10002dd4:	b2db      	uxtb	r3, r3
10002dd6:	2b09      	cmp	r3, #9
10002dd8:	d904      	bls.n	10002de4 <_vsnprintf+0x10c>
10002dda:	2a2a      	cmp	r2, #42	; 0x2a
10002ddc:	d007      	beq.n	10002dee <_vsnprintf+0x116>
10002dde:	2300      	movs	r3, #0
10002de0:	469a      	mov	sl, r3
10002de2:	e7b7      	b.n	10002d54 <_vsnprintf+0x7c>
10002de4:	a811      	add	r0, sp, #68	; 0x44
10002de6:	f7ff fa01 	bl	100021ec <_atoi>
10002dea:	4682      	mov	sl, r0
10002dec:	e7b2      	b.n	10002d54 <_vsnprintf+0x7c>
10002dee:	9b1c      	ldr	r3, [sp, #112]	; 0x70
10002df0:	1d1a      	adds	r2, r3, #4
10002df2:	921c      	str	r2, [sp, #112]	; 0x70
10002df4:	6818      	ldr	r0, [r3, #0]
10002df6:	2800      	cmp	r0, #0
10002df8:	db04      	blt.n	10002e04 <_vsnprintf+0x12c>
10002dfa:	4682      	mov	sl, r0
10002dfc:	9b11      	ldr	r3, [sp, #68]	; 0x44
10002dfe:	3301      	adds	r3, #1
10002e00:	9311      	str	r3, [sp, #68]	; 0x44
10002e02:	e7a7      	b.n	10002d54 <_vsnprintf+0x7c>
10002e04:	2000      	movs	r0, #0
10002e06:	e7f8      	b.n	10002dfa <_vsnprintf+0x122>
10002e08:	2380      	movs	r3, #128	; 0x80
10002e0a:	005b      	lsls	r3, r3, #1
10002e0c:	4323      	orrs	r3, r4
10002e0e:	1c51      	adds	r1, r2, #1
10002e10:	9111      	str	r1, [sp, #68]	; 0x44
10002e12:	7852      	ldrb	r2, [r2, #1]
10002e14:	2a6c      	cmp	r2, #108	; 0x6c
10002e16:	d001      	beq.n	10002e1c <_vsnprintf+0x144>
10002e18:	001c      	movs	r4, r3
10002e1a:	e018      	b.n	10002e4e <_vsnprintf+0x176>
10002e1c:	23c0      	movs	r3, #192	; 0xc0
10002e1e:	009b      	lsls	r3, r3, #2
10002e20:	431c      	orrs	r4, r3
10002e22:	3101      	adds	r1, #1
10002e24:	9111      	str	r1, [sp, #68]	; 0x44
10002e26:	e012      	b.n	10002e4e <_vsnprintf+0x176>
10002e28:	2380      	movs	r3, #128	; 0x80
10002e2a:	4323      	orrs	r3, r4
10002e2c:	1c51      	adds	r1, r2, #1
10002e2e:	9111      	str	r1, [sp, #68]	; 0x44
10002e30:	7852      	ldrb	r2, [r2, #1]
10002e32:	2a68      	cmp	r2, #104	; 0x68
10002e34:	d001      	beq.n	10002e3a <_vsnprintf+0x162>
10002e36:	001c      	movs	r4, r3
10002e38:	e009      	b.n	10002e4e <_vsnprintf+0x176>
10002e3a:	23c0      	movs	r3, #192	; 0xc0
10002e3c:	431c      	orrs	r4, r3
10002e3e:	3101      	adds	r1, #1
10002e40:	9111      	str	r1, [sp, #68]	; 0x44
10002e42:	e004      	b.n	10002e4e <_vsnprintf+0x176>
10002e44:	2380      	movs	r3, #128	; 0x80
10002e46:	005b      	lsls	r3, r3, #1
10002e48:	431c      	orrs	r4, r3
10002e4a:	3201      	adds	r2, #1
10002e4c:	9211      	str	r2, [sp, #68]	; 0x44
10002e4e:	9b11      	ldr	r3, [sp, #68]	; 0x44
10002e50:	7818      	ldrb	r0, [r3, #0]
10002e52:	0003      	movs	r3, r0
10002e54:	3b25      	subs	r3, #37	; 0x25
10002e56:	b2da      	uxtb	r2, r3
10002e58:	2a53      	cmp	r2, #83	; 0x53
10002e5a:	d900      	bls.n	10002e5e <_vsnprintf+0x186>
10002e5c:	e22c      	b.n	100032b8 <_vsnprintf+0x5e0>
10002e5e:	0093      	lsls	r3, r2, #2
10002e60:	4a86      	ldr	r2, [pc, #536]	; (1000307c <_vsnprintf+0x3a4>)
10002e62:	58d3      	ldr	r3, [r2, r3]
10002e64:	469f      	mov	pc, r3
10002e66:	2380      	movs	r3, #128	; 0x80
10002e68:	009b      	lsls	r3, r3, #2
10002e6a:	431c      	orrs	r4, r3
10002e6c:	3201      	adds	r2, #1
10002e6e:	9211      	str	r2, [sp, #68]	; 0x44
10002e70:	e7ed      	b.n	10002e4e <_vsnprintf+0x176>
10002e72:	2380      	movs	r3, #128	; 0x80
10002e74:	005b      	lsls	r3, r3, #1
10002e76:	431c      	orrs	r4, r3
10002e78:	3201      	adds	r2, #1
10002e7a:	9211      	str	r2, [sp, #68]	; 0x44
10002e7c:	e7e7      	b.n	10002e4e <_vsnprintf+0x176>
10002e7e:	2878      	cmp	r0, #120	; 0x78
10002e80:	d009      	beq.n	10002e96 <_vsnprintf+0x1be>
10002e82:	2858      	cmp	r0, #88	; 0x58
10002e84:	d038      	beq.n	10002ef8 <_vsnprintf+0x220>
10002e86:	286f      	cmp	r0, #111	; 0x6f
10002e88:	d038      	beq.n	10002efc <_vsnprintf+0x224>
10002e8a:	2862      	cmp	r0, #98	; 0x62
10002e8c:	d038      	beq.n	10002f00 <_vsnprintf+0x228>
10002e8e:	2310      	movs	r3, #16
10002e90:	439c      	bics	r4, r3
10002e92:	260a      	movs	r6, #10
10002e94:	e000      	b.n	10002e98 <_vsnprintf+0x1c0>
10002e96:	2610      	movs	r6, #16
10002e98:	2858      	cmp	r0, #88	; 0x58
10002e9a:	d033      	beq.n	10002f04 <_vsnprintf+0x22c>
10002e9c:	2869      	cmp	r0, #105	; 0x69
10002e9e:	d003      	beq.n	10002ea8 <_vsnprintf+0x1d0>
10002ea0:	2864      	cmp	r0, #100	; 0x64
10002ea2:	d001      	beq.n	10002ea8 <_vsnprintf+0x1d0>
10002ea4:	220c      	movs	r2, #12
10002ea6:	4394      	bics	r4, r2
10002ea8:	0563      	lsls	r3, r4, #21
10002eaa:	d501      	bpl.n	10002eb0 <_vsnprintf+0x1d8>
10002eac:	2201      	movs	r2, #1
10002eae:	4394      	bics	r4, r2
10002eb0:	2869      	cmp	r0, #105	; 0x69
10002eb2:	d02a      	beq.n	10002f0a <_vsnprintf+0x232>
10002eb4:	2864      	cmp	r0, #100	; 0x64
10002eb6:	d028      	beq.n	10002f0a <_vsnprintf+0x232>
10002eb8:	05a3      	lsls	r3, r4, #22
10002eba:	d500      	bpl.n	10002ebe <_vsnprintf+0x1e6>
10002ebc:	e09f      	b.n	10002ffe <_vsnprintf+0x326>
10002ebe:	05e3      	lsls	r3, r4, #23
10002ec0:	d500      	bpl.n	10002ec4 <_vsnprintf+0x1ec>
10002ec2:	e0b8      	b.n	10003036 <_vsnprintf+0x35e>
10002ec4:	0663      	lsls	r3, r4, #25
10002ec6:	d400      	bmi.n	10002eca <_vsnprintf+0x1f2>
10002ec8:	e0ca      	b.n	10003060 <_vsnprintf+0x388>
10002eca:	9a1c      	ldr	r2, [sp, #112]	; 0x70
10002ecc:	1d11      	adds	r1, r2, #4
10002ece:	911c      	str	r1, [sp, #112]	; 0x70
10002ed0:	6811      	ldr	r1, [r2, #0]
10002ed2:	22ff      	movs	r2, #255	; 0xff
10002ed4:	400a      	ands	r2, r1
10002ed6:	9405      	str	r4, [sp, #20]
10002ed8:	9b0a      	ldr	r3, [sp, #40]	; 0x28
10002eda:	9304      	str	r3, [sp, #16]
10002edc:	4653      	mov	r3, sl
10002ede:	9303      	str	r3, [sp, #12]
10002ee0:	9602      	str	r6, [sp, #8]
10002ee2:	2300      	movs	r3, #0
10002ee4:	9301      	str	r3, [sp, #4]
10002ee6:	9200      	str	r2, [sp, #0]
10002ee8:	4643      	mov	r3, r8
10002eea:	003a      	movs	r2, r7
10002eec:	4659      	mov	r1, fp
10002eee:	0028      	movs	r0, r5
10002ef0:	f7ff fa6e 	bl	100023d0 <_ntoa_long>
10002ef4:	0007      	movs	r7, r0
10002ef6:	e027      	b.n	10002f48 <_vsnprintf+0x270>
10002ef8:	2610      	movs	r6, #16
10002efa:	e7cd      	b.n	10002e98 <_vsnprintf+0x1c0>
10002efc:	2608      	movs	r6, #8
10002efe:	e7cb      	b.n	10002e98 <_vsnprintf+0x1c0>
10002f00:	2602      	movs	r6, #2
10002f02:	e7c9      	b.n	10002e98 <_vsnprintf+0x1c0>
10002f04:	2220      	movs	r2, #32
10002f06:	4314      	orrs	r4, r2
10002f08:	e7c8      	b.n	10002e9c <_vsnprintf+0x1c4>
10002f0a:	05a3      	lsls	r3, r4, #22
10002f0c:	d420      	bmi.n	10002f50 <_vsnprintf+0x278>
10002f0e:	05e3      	lsls	r3, r4, #23
10002f10:	d450      	bmi.n	10002fb4 <_vsnprintf+0x2dc>
10002f12:	0663      	lsls	r3, r4, #25
10002f14:	d566      	bpl.n	10002fe4 <_vsnprintf+0x30c>
10002f16:	9a1c      	ldr	r2, [sp, #112]	; 0x70
10002f18:	1d11      	adds	r1, r2, #4
10002f1a:	911c      	str	r1, [sp, #112]	; 0x70
10002f1c:	6811      	ldr	r1, [r2, #0]
10002f1e:	22ff      	movs	r2, #255	; 0xff
10002f20:	400a      	ands	r2, r1
10002f22:	17d3      	asrs	r3, r2, #31
10002f24:	18d1      	adds	r1, r2, r3
10002f26:	4059      	eors	r1, r3
10002f28:	9405      	str	r4, [sp, #20]
10002f2a:	9b0a      	ldr	r3, [sp, #40]	; 0x28
10002f2c:	9304      	str	r3, [sp, #16]
10002f2e:	4653      	mov	r3, sl
10002f30:	9303      	str	r3, [sp, #12]
10002f32:	9602      	str	r6, [sp, #8]
10002f34:	0fd2      	lsrs	r2, r2, #31
10002f36:	9201      	str	r2, [sp, #4]
10002f38:	9100      	str	r1, [sp, #0]
10002f3a:	4643      	mov	r3, r8
10002f3c:	003a      	movs	r2, r7
10002f3e:	4659      	mov	r1, fp
10002f40:	0028      	movs	r0, r5
10002f42:	f7ff fa45 	bl	100023d0 <_ntoa_long>
10002f46:	0007      	movs	r7, r0
10002f48:	9b11      	ldr	r3, [sp, #68]	; 0x44
10002f4a:	3301      	adds	r3, #1
10002f4c:	9311      	str	r3, [sp, #68]	; 0x44
10002f4e:	e6d3      	b.n	10002cf8 <_vsnprintf+0x20>
10002f50:	9b1c      	ldr	r3, [sp, #112]	; 0x70
10002f52:	1dda      	adds	r2, r3, #7
10002f54:	2107      	movs	r1, #7
10002f56:	438a      	bics	r2, r1
10002f58:	0011      	movs	r1, r2
10002f5a:	3108      	adds	r1, #8
10002f5c:	911c      	str	r1, [sp, #112]	; 0x70
10002f5e:	6811      	ldr	r1, [r2, #0]
10002f60:	6853      	ldr	r3, [r2, #4]
10002f62:	469c      	mov	ip, r3
10002f64:	17db      	asrs	r3, r3, #31
10002f66:	930c      	str	r3, [sp, #48]	; 0x30
10002f68:	930d      	str	r3, [sp, #52]	; 0x34
10002f6a:	9a0c      	ldr	r2, [sp, #48]	; 0x30
10002f6c:	9b0d      	ldr	r3, [sp, #52]	; 0x34
10002f6e:	0010      	movs	r0, r2
10002f70:	4048      	eors	r0, r1
10002f72:	900e      	str	r0, [sp, #56]	; 0x38
10002f74:	4662      	mov	r2, ip
10002f76:	4053      	eors	r3, r2
10002f78:	930f      	str	r3, [sp, #60]	; 0x3c
10002f7a:	980e      	ldr	r0, [sp, #56]	; 0x38
10002f7c:	990f      	ldr	r1, [sp, #60]	; 0x3c
10002f7e:	9a0c      	ldr	r2, [sp, #48]	; 0x30
10002f80:	9b0d      	ldr	r3, [sp, #52]	; 0x34
10002f82:	1a80      	subs	r0, r0, r2
10002f84:	4199      	sbcs	r1, r3
10002f86:	900e      	str	r0, [sp, #56]	; 0x38
10002f88:	910f      	str	r1, [sp, #60]	; 0x3c
10002f8a:	9408      	str	r4, [sp, #32]
10002f8c:	9b0a      	ldr	r3, [sp, #40]	; 0x28
10002f8e:	9307      	str	r3, [sp, #28]
10002f90:	4653      	mov	r3, sl
10002f92:	9306      	str	r3, [sp, #24]
10002f94:	9604      	str	r6, [sp, #16]
10002f96:	2300      	movs	r3, #0
10002f98:	9305      	str	r3, [sp, #20]
10002f9a:	4663      	mov	r3, ip
10002f9c:	0fda      	lsrs	r2, r3, #31
10002f9e:	9202      	str	r2, [sp, #8]
10002fa0:	9000      	str	r0, [sp, #0]
10002fa2:	9101      	str	r1, [sp, #4]
10002fa4:	4643      	mov	r3, r8
10002fa6:	003a      	movs	r2, r7
10002fa8:	4659      	mov	r1, fp
10002faa:	0028      	movs	r0, r5
10002fac:	f7ff fa6e 	bl	1000248c <_ntoa_long_long>
10002fb0:	0007      	movs	r7, r0
10002fb2:	e7c9      	b.n	10002f48 <_vsnprintf+0x270>
10002fb4:	9a1c      	ldr	r2, [sp, #112]	; 0x70
10002fb6:	1d11      	adds	r1, r2, #4
10002fb8:	911c      	str	r1, [sp, #112]	; 0x70
10002fba:	6812      	ldr	r2, [r2, #0]
10002fbc:	17d3      	asrs	r3, r2, #31
10002fbe:	18d1      	adds	r1, r2, r3
10002fc0:	4059      	eors	r1, r3
10002fc2:	9405      	str	r4, [sp, #20]
10002fc4:	9b0a      	ldr	r3, [sp, #40]	; 0x28
10002fc6:	9304      	str	r3, [sp, #16]
10002fc8:	4653      	mov	r3, sl
10002fca:	9303      	str	r3, [sp, #12]
10002fcc:	9602      	str	r6, [sp, #8]
10002fce:	0fd2      	lsrs	r2, r2, #31
10002fd0:	9201      	str	r2, [sp, #4]
10002fd2:	9100      	str	r1, [sp, #0]
10002fd4:	4643      	mov	r3, r8
10002fd6:	003a      	movs	r2, r7
10002fd8:	4659      	mov	r1, fp
10002fda:	0028      	movs	r0, r5
10002fdc:	f7ff f9f8 	bl	100023d0 <_ntoa_long>
10002fe0:	0007      	movs	r7, r0
10002fe2:	e7b1      	b.n	10002f48 <_vsnprintf+0x270>
10002fe4:	0623      	lsls	r3, r4, #24
10002fe6:	d505      	bpl.n	10002ff4 <_vsnprintf+0x31c>
10002fe8:	9a1c      	ldr	r2, [sp, #112]	; 0x70
10002fea:	1d11      	adds	r1, r2, #4
10002fec:	911c      	str	r1, [sp, #112]	; 0x70
10002fee:	2300      	movs	r3, #0
10002ff0:	5ed2      	ldrsh	r2, [r2, r3]
10002ff2:	e796      	b.n	10002f22 <_vsnprintf+0x24a>
10002ff4:	9a1c      	ldr	r2, [sp, #112]	; 0x70
10002ff6:	1d11      	adds	r1, r2, #4
10002ff8:	911c      	str	r1, [sp, #112]	; 0x70
10002ffa:	6812      	ldr	r2, [r2, #0]
10002ffc:	e791      	b.n	10002f22 <_vsnprintf+0x24a>
10002ffe:	9b1c      	ldr	r3, [sp, #112]	; 0x70
10003000:	1dda      	adds	r2, r3, #7
10003002:	2107      	movs	r1, #7
10003004:	438a      	bics	r2, r1
10003006:	0011      	movs	r1, r2
10003008:	3108      	adds	r1, #8
1000300a:	911c      	str	r1, [sp, #112]	; 0x70
1000300c:	9408      	str	r4, [sp, #32]
1000300e:	9b0a      	ldr	r3, [sp, #40]	; 0x28
10003010:	9307      	str	r3, [sp, #28]
10003012:	4653      	mov	r3, sl
10003014:	9306      	str	r3, [sp, #24]
10003016:	9604      	str	r6, [sp, #16]
10003018:	2300      	movs	r3, #0
1000301a:	9305      	str	r3, [sp, #20]
1000301c:	9302      	str	r3, [sp, #8]
1000301e:	6813      	ldr	r3, [r2, #0]
10003020:	6854      	ldr	r4, [r2, #4]
10003022:	9300      	str	r3, [sp, #0]
10003024:	9401      	str	r4, [sp, #4]
10003026:	4643      	mov	r3, r8
10003028:	003a      	movs	r2, r7
1000302a:	4659      	mov	r1, fp
1000302c:	0028      	movs	r0, r5
1000302e:	f7ff fa2d 	bl	1000248c <_ntoa_long_long>
10003032:	0007      	movs	r7, r0
10003034:	e788      	b.n	10002f48 <_vsnprintf+0x270>
10003036:	9a1c      	ldr	r2, [sp, #112]	; 0x70
10003038:	1d11      	adds	r1, r2, #4
1000303a:	911c      	str	r1, [sp, #112]	; 0x70
1000303c:	9405      	str	r4, [sp, #20]
1000303e:	9b0a      	ldr	r3, [sp, #40]	; 0x28
10003040:	9304      	str	r3, [sp, #16]
10003042:	4653      	mov	r3, sl
10003044:	9303      	str	r3, [sp, #12]
10003046:	9602      	str	r6, [sp, #8]
10003048:	2300      	movs	r3, #0
1000304a:	9301      	str	r3, [sp, #4]
1000304c:	6813      	ldr	r3, [r2, #0]
1000304e:	9300      	str	r3, [sp, #0]
10003050:	4643      	mov	r3, r8
10003052:	003a      	movs	r2, r7
10003054:	4659      	mov	r1, fp
10003056:	0028      	movs	r0, r5
10003058:	f7ff f9ba 	bl	100023d0 <_ntoa_long>
1000305c:	0007      	movs	r7, r0
1000305e:	e773      	b.n	10002f48 <_vsnprintf+0x270>
10003060:	0623      	lsls	r3, r4, #24
10003062:	d50d      	bpl.n	10003080 <_vsnprintf+0x3a8>
10003064:	9a1c      	ldr	r2, [sp, #112]	; 0x70
10003066:	1d11      	adds	r1, r2, #4
10003068:	911c      	str	r1, [sp, #112]	; 0x70
1000306a:	6812      	ldr	r2, [r2, #0]
1000306c:	0412      	lsls	r2, r2, #16
1000306e:	0c12      	lsrs	r2, r2, #16
10003070:	e731      	b.n	10002ed6 <_vsnprintf+0x1fe>
10003072:	46c0      	nop			; (mov r8, r8)
10003074:	10007e90 	.word	0x10007e90
10003078:	10007ed4 	.word	0x10007ed4
1000307c:	10007f20 	.word	0x10007f20
10003080:	9a1c      	ldr	r2, [sp, #112]	; 0x70
10003082:	1d11      	adds	r1, r2, #4
10003084:	911c      	str	r1, [sp, #112]	; 0x70
10003086:	6812      	ldr	r2, [r2, #0]
10003088:	e725      	b.n	10002ed6 <_vsnprintf+0x1fe>
1000308a:	2846      	cmp	r0, #70	; 0x46
1000308c:	d01a      	beq.n	100030c4 <_vsnprintf+0x3ec>
1000308e:	9b1c      	ldr	r3, [sp, #112]	; 0x70
10003090:	3307      	adds	r3, #7
10003092:	2207      	movs	r2, #7
10003094:	4393      	bics	r3, r2
10003096:	001a      	movs	r2, r3
10003098:	3208      	adds	r2, #8
1000309a:	921c      	str	r2, [sp, #112]	; 0x70
1000309c:	9404      	str	r4, [sp, #16]
1000309e:	9a0a      	ldr	r2, [sp, #40]	; 0x28
100030a0:	9203      	str	r2, [sp, #12]
100030a2:	4652      	mov	r2, sl
100030a4:	9202      	str	r2, [sp, #8]
100030a6:	685c      	ldr	r4, [r3, #4]
100030a8:	681b      	ldr	r3, [r3, #0]
100030aa:	9300      	str	r3, [sp, #0]
100030ac:	9401      	str	r4, [sp, #4]
100030ae:	4643      	mov	r3, r8
100030b0:	003a      	movs	r2, r7
100030b2:	4659      	mov	r1, fp
100030b4:	0028      	movs	r0, r5
100030b6:	f7ff fc65 	bl	10002984 <_ftoa>
100030ba:	0007      	movs	r7, r0
100030bc:	9b11      	ldr	r3, [sp, #68]	; 0x44
100030be:	3301      	adds	r3, #1
100030c0:	9311      	str	r3, [sp, #68]	; 0x44
100030c2:	e619      	b.n	10002cf8 <_vsnprintf+0x20>
100030c4:	2320      	movs	r3, #32
100030c6:	431c      	orrs	r4, r3
100030c8:	e7e1      	b.n	1000308e <_vsnprintf+0x3b6>
100030ca:	2867      	cmp	r0, #103	; 0x67
100030cc:	d001      	beq.n	100030d2 <_vsnprintf+0x3fa>
100030ce:	2847      	cmp	r0, #71	; 0x47
100030d0:	d102      	bne.n	100030d8 <_vsnprintf+0x400>
100030d2:	2380      	movs	r3, #128	; 0x80
100030d4:	011b      	lsls	r3, r3, #4
100030d6:	431c      	orrs	r4, r3
100030d8:	2845      	cmp	r0, #69	; 0x45
100030da:	d001      	beq.n	100030e0 <_vsnprintf+0x408>
100030dc:	2847      	cmp	r0, #71	; 0x47
100030de:	d101      	bne.n	100030e4 <_vsnprintf+0x40c>
100030e0:	2320      	movs	r3, #32
100030e2:	431c      	orrs	r4, r3
100030e4:	9b1c      	ldr	r3, [sp, #112]	; 0x70
100030e6:	3307      	adds	r3, #7
100030e8:	2207      	movs	r2, #7
100030ea:	4393      	bics	r3, r2
100030ec:	001a      	movs	r2, r3
100030ee:	3208      	adds	r2, #8
100030f0:	921c      	str	r2, [sp, #112]	; 0x70
100030f2:	9404      	str	r4, [sp, #16]
100030f4:	9a0a      	ldr	r2, [sp, #40]	; 0x28
100030f6:	9203      	str	r2, [sp, #12]
100030f8:	4652      	mov	r2, sl
100030fa:	9202      	str	r2, [sp, #8]
100030fc:	685c      	ldr	r4, [r3, #4]
100030fe:	681b      	ldr	r3, [r3, #0]
10003100:	9300      	str	r3, [sp, #0]
10003102:	9401      	str	r4, [sp, #4]
10003104:	4643      	mov	r3, r8
10003106:	003a      	movs	r2, r7
10003108:	4659      	mov	r1, fp
1000310a:	0028      	movs	r0, r5
1000310c:	f7ff fa30 	bl	10002570 <_etoa>
10003110:	0007      	movs	r7, r0
10003112:	9b11      	ldr	r3, [sp, #68]	; 0x44
10003114:	3301      	adds	r3, #1
10003116:	9311      	str	r3, [sp, #68]	; 0x44
10003118:	e5ee      	b.n	10002cf8 <_vsnprintf+0x20>
1000311a:	2302      	movs	r3, #2
1000311c:	001a      	movs	r2, r3
1000311e:	4022      	ands	r2, r4
10003120:	4692      	mov	sl, r2
10003122:	4223      	tst	r3, r4
10003124:	d01f      	beq.n	10003166 <_vsnprintf+0x48e>
10003126:	2401      	movs	r4, #1
10003128:	9b1c      	ldr	r3, [sp, #112]	; 0x70
1000312a:	1d1a      	adds	r2, r3, #4
1000312c:	921c      	str	r2, [sp, #112]	; 0x70
1000312e:	1c7a      	adds	r2, r7, #1
10003130:	4691      	mov	r9, r2
10003132:	7818      	ldrb	r0, [r3, #0]
10003134:	4643      	mov	r3, r8
10003136:	003a      	movs	r2, r7
10003138:	4659      	mov	r1, fp
1000313a:	47a8      	blx	r5
1000313c:	4653      	mov	r3, sl
1000313e:	2b00      	cmp	r3, #0
10003140:	d116      	bne.n	10003170 <_vsnprintf+0x498>
10003142:	9b11      	ldr	r3, [sp, #68]	; 0x44
10003144:	3301      	adds	r3, #1
10003146:	9311      	str	r3, [sp, #68]	; 0x44
10003148:	464f      	mov	r7, r9
1000314a:	e5d5      	b.n	10002cf8 <_vsnprintf+0x20>
1000314c:	1c56      	adds	r6, r2, #1
1000314e:	4643      	mov	r3, r8
10003150:	4659      	mov	r1, fp
10003152:	2020      	movs	r0, #32
10003154:	47b8      	blx	r7
10003156:	0023      	movs	r3, r4
10003158:	0032      	movs	r2, r6
1000315a:	1c5c      	adds	r4, r3, #1
1000315c:	429d      	cmp	r5, r3
1000315e:	d8f5      	bhi.n	1000314c <_vsnprintf+0x474>
10003160:	003d      	movs	r5, r7
10003162:	0017      	movs	r7, r2
10003164:	e7e0      	b.n	10003128 <_vsnprintf+0x450>
10003166:	2301      	movs	r3, #1
10003168:	003a      	movs	r2, r7
1000316a:	002f      	movs	r7, r5
1000316c:	9d0a      	ldr	r5, [sp, #40]	; 0x28
1000316e:	e7f4      	b.n	1000315a <_vsnprintf+0x482>
10003170:	464a      	mov	r2, r9
10003172:	46a9      	mov	r9, r5
10003174:	9d0a      	ldr	r5, [sp, #40]	; 0x28
10003176:	e006      	b.n	10003186 <_vsnprintf+0x4ae>
10003178:	1c57      	adds	r7, r2, #1
1000317a:	4643      	mov	r3, r8
1000317c:	4659      	mov	r1, fp
1000317e:	2020      	movs	r0, #32
10003180:	47c8      	blx	r9
10003182:	0034      	movs	r4, r6
10003184:	003a      	movs	r2, r7
10003186:	1c66      	adds	r6, r4, #1
10003188:	42a5      	cmp	r5, r4
1000318a:	d8f5      	bhi.n	10003178 <_vsnprintf+0x4a0>
1000318c:	464d      	mov	r5, r9
1000318e:	4691      	mov	r9, r2
10003190:	e7d7      	b.n	10003142 <_vsnprintf+0x46a>
10003192:	9b1c      	ldr	r3, [sp, #112]	; 0x70
10003194:	1d1a      	adds	r2, r3, #4
10003196:	921c      	str	r2, [sp, #112]	; 0x70
10003198:	681b      	ldr	r3, [r3, #0]
1000319a:	4699      	mov	r9, r3
1000319c:	4653      	mov	r3, sl
1000319e:	2b00      	cmp	r3, #0
100031a0:	d100      	bne.n	100031a4 <_vsnprintf+0x4cc>
100031a2:	3b01      	subs	r3, #1
100031a4:	464e      	mov	r6, r9
100031a6:	e001      	b.n	100031ac <_vsnprintf+0x4d4>
100031a8:	3601      	adds	r6, #1
100031aa:	0013      	movs	r3, r2
100031ac:	7832      	ldrb	r2, [r6, #0]
100031ae:	2a00      	cmp	r2, #0
100031b0:	d002      	beq.n	100031b8 <_vsnprintf+0x4e0>
100031b2:	1e5a      	subs	r2, r3, #1
100031b4:	2b00      	cmp	r3, #0
100031b6:	d1f7      	bne.n	100031a8 <_vsnprintf+0x4d0>
100031b8:	464b      	mov	r3, r9
100031ba:	1af2      	subs	r2, r6, r3
100031bc:	9210      	str	r2, [sp, #64]	; 0x40
100031be:	2380      	movs	r3, #128	; 0x80
100031c0:	00db      	lsls	r3, r3, #3
100031c2:	0026      	movs	r6, r4
100031c4:	401e      	ands	r6, r3
100031c6:	421c      	tst	r4, r3
100031c8:	d003      	beq.n	100031d2 <_vsnprintf+0x4fa>
100031ca:	4552      	cmp	r2, sl
100031cc:	d901      	bls.n	100031d2 <_vsnprintf+0x4fa>
100031ce:	4653      	mov	r3, sl
100031d0:	9310      	str	r3, [sp, #64]	; 0x40
100031d2:	2302      	movs	r3, #2
100031d4:	001a      	movs	r2, r3
100031d6:	4022      	ands	r2, r4
100031d8:	920b      	str	r2, [sp, #44]	; 0x2c
100031da:	4223      	tst	r3, r4
100031dc:	d005      	beq.n	100031ea <_vsnprintf+0x512>
100031de:	003a      	movs	r2, r7
100031e0:	0037      	movs	r7, r6
100031e2:	464c      	mov	r4, r9
100031e4:	46a9      	mov	r9, r5
100031e6:	4655      	mov	r5, sl
100031e8:	e020      	b.n	1000322c <_vsnprintf+0x554>
100031ea:	003a      	movs	r2, r7
100031ec:	9b10      	ldr	r3, [sp, #64]	; 0x40
100031ee:	465f      	mov	r7, fp
100031f0:	46b3      	mov	fp, r6
100031f2:	002e      	movs	r6, r5
100031f4:	e006      	b.n	10003204 <_vsnprintf+0x52c>
100031f6:	1c55      	adds	r5, r2, #1
100031f8:	4643      	mov	r3, r8
100031fa:	0039      	movs	r1, r7
100031fc:	2020      	movs	r0, #32
100031fe:	47b0      	blx	r6
10003200:	0023      	movs	r3, r4
10003202:	002a      	movs	r2, r5
10003204:	1c5c      	adds	r4, r3, #1
10003206:	990a      	ldr	r1, [sp, #40]	; 0x28
10003208:	4299      	cmp	r1, r3
1000320a:	d8f4      	bhi.n	100031f6 <_vsnprintf+0x51e>
1000320c:	0035      	movs	r5, r6
1000320e:	465e      	mov	r6, fp
10003210:	46bb      	mov	fp, r7
10003212:	9410      	str	r4, [sp, #64]	; 0x40
10003214:	0037      	movs	r7, r6
10003216:	464c      	mov	r4, r9
10003218:	46a9      	mov	r9, r5
1000321a:	4655      	mov	r5, sl
1000321c:	e006      	b.n	1000322c <_vsnprintf+0x554>
1000321e:	001d      	movs	r5, r3
10003220:	3401      	adds	r4, #1
10003222:	1c56      	adds	r6, r2, #1
10003224:	4643      	mov	r3, r8
10003226:	4659      	mov	r1, fp
10003228:	47c8      	blx	r9
1000322a:	0032      	movs	r2, r6
1000322c:	7820      	ldrb	r0, [r4, #0]
1000322e:	2800      	cmp	r0, #0
10003230:	d004      	beq.n	1000323c <_vsnprintf+0x564>
10003232:	2f00      	cmp	r7, #0
10003234:	d0f4      	beq.n	10003220 <_vsnprintf+0x548>
10003236:	1e6b      	subs	r3, r5, #1
10003238:	2d00      	cmp	r5, #0
1000323a:	d1f0      	bne.n	1000321e <_vsnprintf+0x546>
1000323c:	0017      	movs	r7, r2
1000323e:	464d      	mov	r5, r9
10003240:	9b0b      	ldr	r3, [sp, #44]	; 0x2c
10003242:	2b00      	cmp	r3, #0
10003244:	d103      	bne.n	1000324e <_vsnprintf+0x576>
10003246:	9b11      	ldr	r3, [sp, #68]	; 0x44
10003248:	3301      	adds	r3, #1
1000324a:	9311      	str	r3, [sp, #68]	; 0x44
1000324c:	e554      	b.n	10002cf8 <_vsnprintf+0x20>
1000324e:	9f0a      	ldr	r7, [sp, #40]	; 0x28
10003250:	9b10      	ldr	r3, [sp, #64]	; 0x40
10003252:	e006      	b.n	10003262 <_vsnprintf+0x58a>
10003254:	1c56      	adds	r6, r2, #1
10003256:	4643      	mov	r3, r8
10003258:	4659      	mov	r1, fp
1000325a:	2020      	movs	r0, #32
1000325c:	47a8      	blx	r5
1000325e:	0023      	movs	r3, r4
10003260:	0032      	movs	r2, r6
10003262:	1c5c      	adds	r4, r3, #1
10003264:	429f      	cmp	r7, r3
10003266:	d8f5      	bhi.n	10003254 <_vsnprintf+0x57c>
10003268:	0017      	movs	r7, r2
1000326a:	e7ec      	b.n	10003246 <_vsnprintf+0x56e>
1000326c:	2321      	movs	r3, #33	; 0x21
1000326e:	431c      	orrs	r4, r3
10003270:	9b1c      	ldr	r3, [sp, #112]	; 0x70
10003272:	1d1a      	adds	r2, r3, #4
10003274:	921c      	str	r2, [sp, #112]	; 0x70
10003276:	681b      	ldr	r3, [r3, #0]
10003278:	9300      	str	r3, [sp, #0]
1000327a:	9405      	str	r4, [sp, #20]
1000327c:	2308      	movs	r3, #8
1000327e:	9304      	str	r3, [sp, #16]
10003280:	4653      	mov	r3, sl
10003282:	9303      	str	r3, [sp, #12]
10003284:	2310      	movs	r3, #16
10003286:	9302      	str	r3, [sp, #8]
10003288:	2300      	movs	r3, #0
1000328a:	9301      	str	r3, [sp, #4]
1000328c:	4643      	mov	r3, r8
1000328e:	003a      	movs	r2, r7
10003290:	4659      	mov	r1, fp
10003292:	0028      	movs	r0, r5
10003294:	f7ff f89c 	bl	100023d0 <_ntoa_long>
10003298:	0007      	movs	r7, r0
1000329a:	9b11      	ldr	r3, [sp, #68]	; 0x44
1000329c:	3301      	adds	r3, #1
1000329e:	9311      	str	r3, [sp, #68]	; 0x44
100032a0:	e52a      	b.n	10002cf8 <_vsnprintf+0x20>
100032a2:	1c7c      	adds	r4, r7, #1
100032a4:	4643      	mov	r3, r8
100032a6:	003a      	movs	r2, r7
100032a8:	4659      	mov	r1, fp
100032aa:	2025      	movs	r0, #37	; 0x25
100032ac:	47a8      	blx	r5
100032ae:	9b11      	ldr	r3, [sp, #68]	; 0x44
100032b0:	3301      	adds	r3, #1
100032b2:	9311      	str	r3, [sp, #68]	; 0x44
100032b4:	0027      	movs	r7, r4
100032b6:	e51f      	b.n	10002cf8 <_vsnprintf+0x20>
100032b8:	1c7c      	adds	r4, r7, #1
100032ba:	4643      	mov	r3, r8
100032bc:	003a      	movs	r2, r7
100032be:	4659      	mov	r1, fp
100032c0:	47a8      	blx	r5
100032c2:	9b11      	ldr	r3, [sp, #68]	; 0x44
100032c4:	3301      	adds	r3, #1
100032c6:	9311      	str	r3, [sp, #68]	; 0x44
100032c8:	0027      	movs	r7, r4
100032ca:	e515      	b.n	10002cf8 <_vsnprintf+0x20>
100032cc:	4b0a      	ldr	r3, [pc, #40]	; (100032f8 <_vsnprintf+0x620>)
100032ce:	469a      	mov	sl, r3
100032d0:	e510      	b.n	10002cf4 <_vsnprintf+0x1c>
100032d2:	46aa      	mov	sl, r5
100032d4:	4547      	cmp	r7, r8
100032d6:	d302      	bcc.n	100032de <_vsnprintf+0x606>
100032d8:	4643      	mov	r3, r8
100032da:	1e5a      	subs	r2, r3, #1
100032dc:	e000      	b.n	100032e0 <_vsnprintf+0x608>
100032de:	003a      	movs	r2, r7
100032e0:	4643      	mov	r3, r8
100032e2:	4659      	mov	r1, fp
100032e4:	2000      	movs	r0, #0
100032e6:	47d0      	blx	sl
100032e8:	0038      	movs	r0, r7
100032ea:	b013      	add	sp, #76	; 0x4c
100032ec:	bcf0      	pop	{r4, r5, r6, r7}
100032ee:	46bb      	mov	fp, r7
100032f0:	46b2      	mov	sl, r6
100032f2:	46a9      	mov	r9, r5
100032f4:	46a0      	mov	r8, r4
100032f6:	bdf0      	pop	{r4, r5, r6, r7, pc}
100032f8:	100021dd 	.word	0x100021dd

100032fc <vfctprintf>:
100032fc:	b500      	push	{lr}
100032fe:	b085      	sub	sp, #20
10003300:	9002      	str	r0, [sp, #8]
10003302:	9103      	str	r1, [sp, #12]
10003304:	2101      	movs	r1, #1
10003306:	9300      	str	r3, [sp, #0]
10003308:	0013      	movs	r3, r2
1000330a:	424a      	negs	r2, r1
1000330c:	a902      	add	r1, sp, #8
1000330e:	4802      	ldr	r0, [pc, #8]	; (10003318 <vfctprintf+0x1c>)
10003310:	f7ff fce2 	bl	10002cd8 <_vsnprintf>
10003314:	b005      	add	sp, #20
10003316:	bd00      	pop	{pc}
10003318:	100021df 	.word	0x100021df

1000331c <__aeabi_bits_init>:
1000331c:	4801      	ldr	r0, [pc, #4]	; (10003324 <__aeabi_bits_init+0x8>)
1000331e:	2104      	movs	r1, #4
10003320:	4b01      	ldr	r3, [pc, #4]	; (10003328 <__aeabi_bits_init+0xc>)
10003322:	4718      	bx	r3
10003324:	200002b0 	.word	0x200002b0
10003328:	1000334d 	.word	0x1000334d

1000332c <rom_func_lookup>:
1000332c:	b510      	push	{r4, lr}
1000332e:	0001      	movs	r1, r0
10003330:	2318      	movs	r3, #24
10003332:	881b      	ldrh	r3, [r3, #0]
10003334:	2214      	movs	r2, #20
10003336:	8810      	ldrh	r0, [r2, #0]
10003338:	4798      	blx	r3
1000333a:	bd10      	pop	{r4, pc}

1000333c <rom_data_lookup>:
1000333c:	b510      	push	{r4, lr}
1000333e:	0001      	movs	r1, r0
10003340:	2318      	movs	r3, #24
10003342:	881b      	ldrh	r3, [r3, #0]
10003344:	2216      	movs	r2, #22
10003346:	8810      	ldrh	r0, [r2, #0]
10003348:	4798      	blx	r3
1000334a:	bd10      	pop	{r4, pc}

1000334c <rom_funcs_lookup>:
1000334c:	b5f0      	push	{r4, r5, r6, r7, lr}
1000334e:	46c6      	mov	lr, r8
10003350:	b500      	push	{lr}
10003352:	0007      	movs	r7, r0
10003354:	000e      	movs	r6, r1
10003356:	2500      	movs	r5, #0
10003358:	2301      	movs	r3, #1
1000335a:	4698      	mov	r8, r3
1000335c:	e000      	b.n	10003360 <rom_funcs_lookup+0x14>
1000335e:	3501      	adds	r5, #1
10003360:	42b5      	cmp	r5, r6
10003362:	d20a      	bcs.n	1000337a <rom_funcs_lookup+0x2e>
10003364:	00ac      	lsls	r4, r5, #2
10003366:	193c      	adds	r4, r7, r4
10003368:	6820      	ldr	r0, [r4, #0]
1000336a:	f7ff ffdf 	bl	1000332c <rom_func_lookup>
1000336e:	6020      	str	r0, [r4, #0]
10003370:	2800      	cmp	r0, #0
10003372:	d1f4      	bne.n	1000335e <rom_funcs_lookup+0x12>
10003374:	2300      	movs	r3, #0
10003376:	4698      	mov	r8, r3
10003378:	e7f1      	b.n	1000335e <rom_funcs_lookup+0x12>
1000337a:	4640      	mov	r0, r8
1000337c:	bc80      	pop	{r7}
1000337e:	46b8      	mov	r8, r7
10003380:	bdf0      	pop	{r4, r5, r6, r7, pc}
	...

10003384 <__wrap___aeabi_idiv>:
10003384:	4a12      	ldr	r2, [pc, #72]	; (100033d0 <divmod_s32s32_savestate+0x18>)
10003386:	6f93      	ldr	r3, [r2, #120]	; 0x78
10003388:	089b      	lsrs	r3, r3, #2
1000338a:	d215      	bcs.n	100033b8 <divmod_s32s32_savestate>

1000338c <divmod_s32s32_unsafe>:
1000338c:	6690      	str	r0, [r2, #104]	; 0x68
1000338e:	66d1      	str	r1, [r2, #108]	; 0x6c
10003390:	2900      	cmp	r1, #0
10003392:	d005      	beq.n	100033a0 <divmod_s32s32_unsafe+0x14>
10003394:	e7ff      	b.n	10003396 <divmod_s32s32_unsafe+0xa>
10003396:	e7ff      	b.n	10003398 <divmod_s32s32_unsafe+0xc>
10003398:	e7ff      	b.n	1000339a <divmod_s32s32_unsafe+0xe>
1000339a:	6f51      	ldr	r1, [r2, #116]	; 0x74
1000339c:	6f10      	ldr	r0, [r2, #112]	; 0x70
1000339e:	4770      	bx	lr
100033a0:	b504      	push	{r2, lr}
100033a2:	2180      	movs	r1, #128	; 0x80
100033a4:	0609      	lsls	r1, r1, #24
100033a6:	17c2      	asrs	r2, r0, #31
100033a8:	4051      	eors	r1, r2
100033aa:	2800      	cmp	r0, #0
100033ac:	d000      	beq.n	100033b0 <divmod_s32s32_unsafe+0x24>
100033ae:	43c8      	mvns	r0, r1
100033b0:	f003 fff6 	bl	100073a0 <____aeabi_idiv0_veneer>
100033b4:	2100      	movs	r1, #0
100033b6:	bd04      	pop	{r2, pc}

100033b8 <divmod_s32s32_savestate>:
100033b8:	b5f0      	push	{r4, r5, r6, r7, lr}
100033ba:	6e14      	ldr	r4, [r2, #96]	; 0x60
100033bc:	6e55      	ldr	r5, [r2, #100]	; 0x64
100033be:	6f57      	ldr	r7, [r2, #116]	; 0x74
100033c0:	6f16      	ldr	r6, [r2, #112]	; 0x70
100033c2:	f7ff ffe3 	bl	1000338c <divmod_s32s32_unsafe>
100033c6:	6614      	str	r4, [r2, #96]	; 0x60
100033c8:	6655      	str	r5, [r2, #100]	; 0x64
100033ca:	6757      	str	r7, [r2, #116]	; 0x74
100033cc:	6716      	str	r6, [r2, #112]	; 0x70
100033ce:	bdf0      	pop	{r4, r5, r6, r7, pc}
100033d0:	d0000000 	.word	0xd0000000

100033d4 <__wrap___aeabi_uidiv>:
100033d4:	4a11      	ldr	r2, [pc, #68]	; (1000341c <divmod_u32u32_savestate+0x18>)
100033d6:	6f93      	ldr	r3, [r2, #120]	; 0x78
100033d8:	089b      	lsrs	r3, r3, #2
100033da:	d213      	bcs.n	10003404 <divmod_u32u32_savestate>

100033dc <divmod_u32u32_unsafe>:
100033dc:	6610      	str	r0, [r2, #96]	; 0x60
100033de:	6651      	str	r1, [r2, #100]	; 0x64
100033e0:	2900      	cmp	r1, #0
100033e2:	d005      	beq.n	100033f0 <divmod_u32u32_unsafe+0x14>
100033e4:	e7ff      	b.n	100033e6 <divmod_u32u32_unsafe+0xa>
100033e6:	e7ff      	b.n	100033e8 <divmod_u32u32_unsafe+0xc>
100033e8:	e7ff      	b.n	100033ea <divmod_u32u32_unsafe+0xe>
100033ea:	6f51      	ldr	r1, [r2, #116]	; 0x74
100033ec:	6f10      	ldr	r0, [r2, #112]	; 0x70
100033ee:	4770      	bx	lr
100033f0:	b504      	push	{r2, lr}
100033f2:	2800      	cmp	r0, #0
100033f4:	d001      	beq.n	100033fa <divmod_u32u32_unsafe+0x1e>
100033f6:	2000      	movs	r0, #0
100033f8:	43c0      	mvns	r0, r0
100033fa:	f003 ffd1 	bl	100073a0 <____aeabi_idiv0_veneer>
100033fe:	2100      	movs	r1, #0
10003400:	bd04      	pop	{r2, pc}
10003402:	46c0      	nop			; (mov r8, r8)

10003404 <divmod_u32u32_savestate>:
10003404:	b5f0      	push	{r4, r5, r6, r7, lr}
10003406:	6e14      	ldr	r4, [r2, #96]	; 0x60
10003408:	6e55      	ldr	r5, [r2, #100]	; 0x64
1000340a:	6f57      	ldr	r7, [r2, #116]	; 0x74
1000340c:	6f16      	ldr	r6, [r2, #112]	; 0x70
1000340e:	f7ff ffe5 	bl	100033dc <divmod_u32u32_unsafe>
10003412:	6614      	str	r4, [r2, #96]	; 0x60
10003414:	6655      	str	r5, [r2, #100]	; 0x64
10003416:	6757      	str	r7, [r2, #116]	; 0x74
10003418:	6716      	str	r6, [r2, #112]	; 0x70
1000341a:	bdf0      	pop	{r4, r5, r6, r7, pc}
1000341c:	d0000000 	.word	0xd0000000

10003420 <__wrap___aeabi_ldivmod>:
10003420:	4694      	mov	ip, r2
10003422:	4a4a      	ldr	r2, [pc, #296]	; (1000354c <udiv0+0x1a>)
10003424:	6f92      	ldr	r2, [r2, #120]	; 0x78
10003426:	0892      	lsrs	r2, r2, #2
10003428:	4662      	mov	r2, ip
1000342a:	d201      	bcs.n	10003430 <divmod_s64s64_savestate>
1000342c:	e028      	b.n	10003480 <divmod_s64s64_unsafe>
1000342e:	46c0      	nop			; (mov r8, r8)

10003430 <divmod_s64s64_savestate>:
10003430:	b5f0      	push	{r4, r5, r6, r7, lr}
10003432:	4e46      	ldr	r6, [pc, #280]	; (1000354c <udiv0+0x1a>)
10003434:	6e34      	ldr	r4, [r6, #96]	; 0x60
10003436:	6e75      	ldr	r5, [r6, #100]	; 0x64
10003438:	6f77      	ldr	r7, [r6, #116]	; 0x74
1000343a:	6f36      	ldr	r6, [r6, #112]	; 0x70
1000343c:	f000 f820 	bl	10003480 <divmod_s64s64_unsafe>
10003440:	4694      	mov	ip, r2
10003442:	4a42      	ldr	r2, [pc, #264]	; (1000354c <udiv0+0x1a>)
10003444:	6614      	str	r4, [r2, #96]	; 0x60
10003446:	6655      	str	r5, [r2, #100]	; 0x64
10003448:	6757      	str	r7, [r2, #116]	; 0x74
1000344a:	6716      	str	r6, [r2, #112]	; 0x70
1000344c:	4662      	mov	r2, ip
1000344e:	bdf0      	pop	{r4, r5, r6, r7, pc}

10003450 <__wrap___aeabi_uldivmod>:
10003450:	4694      	mov	ip, r2
10003452:	4a3e      	ldr	r2, [pc, #248]	; (1000354c <udiv0+0x1a>)
10003454:	6f92      	ldr	r2, [r2, #120]	; 0x78
10003456:	0892      	lsrs	r2, r2, #2
10003458:	4662      	mov	r2, ip
1000345a:	d201      	bcs.n	10003460 <divmod_u64u64_savestate>
1000345c:	e054      	b.n	10003508 <divmod_u64u64_unsafe>
1000345e:	46c0      	nop			; (mov r8, r8)

10003460 <divmod_u64u64_savestate>:
10003460:	b5f0      	push	{r4, r5, r6, r7, lr}
10003462:	4e3a      	ldr	r6, [pc, #232]	; (1000354c <udiv0+0x1a>)
10003464:	6e34      	ldr	r4, [r6, #96]	; 0x60
10003466:	6e75      	ldr	r5, [r6, #100]	; 0x64
10003468:	6f77      	ldr	r7, [r6, #116]	; 0x74
1000346a:	6f36      	ldr	r6, [r6, #112]	; 0x70
1000346c:	f000 f84c 	bl	10003508 <divmod_u64u64_unsafe>
10003470:	4694      	mov	ip, r2
10003472:	4a36      	ldr	r2, [pc, #216]	; (1000354c <udiv0+0x1a>)
10003474:	6614      	str	r4, [r2, #96]	; 0x60
10003476:	6655      	str	r5, [r2, #100]	; 0x64
10003478:	6757      	str	r7, [r2, #116]	; 0x74
1000347a:	6716      	str	r6, [r2, #112]	; 0x70
1000347c:	4662      	mov	r2, ip
1000347e:	bdf0      	pop	{r4, r5, r6, r7, pc}

10003480 <divmod_s64s64_unsafe>:
10003480:	2b00      	cmp	r3, #0
10003482:	db24      	blt.n	100034ce <l41_1+0x26>
10003484:	d011      	beq.n	100034aa <l41_1+0x2>
10003486:	2900      	cmp	r1, #0
10003488:	da3e      	bge.n	10003508 <divmod_u64u64_unsafe>
1000348a:	b500      	push	{lr}
1000348c:	43c9      	mvns	r1, r1
1000348e:	4240      	negs	r0, r0
10003490:	d100      	bne.n	10003494 <l39_1>
10003492:	3101      	adds	r1, #1

10003494 <l39_1>:
10003494:	f000 f838 	bl	10003508 <divmod_u64u64_unsafe>
10003498:	43c9      	mvns	r1, r1
1000349a:	4240      	negs	r0, r0
1000349c:	d100      	bne.n	100034a0 <l40_1>
1000349e:	3101      	adds	r1, #1

100034a0 <l40_1>:
100034a0:	43db      	mvns	r3, r3
100034a2:	4252      	negs	r2, r2
100034a4:	d100      	bne.n	100034a8 <l41_1>
100034a6:	3301      	adds	r3, #1

100034a8 <l41_1>:
100034a8:	bd00      	pop	{pc}
100034aa:	2a00      	cmp	r2, #0
100034ac:	d1eb      	bne.n	10003486 <divmod_s64s64_unsafe+0x6>
100034ae:	2800      	cmp	r0, #0
100034b0:	d101      	bne.n	100034b6 <l41_1+0xe>
100034b2:	2900      	cmp	r1, #0
100034b4:	d005      	beq.n	100034c2 <l41_1+0x1a>
100034b6:	2000      	movs	r0, #0
100034b8:	0fc9      	lsrs	r1, r1, #31
100034ba:	07c9      	lsls	r1, r1, #31
100034bc:	d101      	bne.n	100034c2 <l41_1+0x1a>
100034be:	43c0      	mvns	r0, r0
100034c0:	0841      	lsrs	r1, r0, #1
100034c2:	b500      	push	{lr}
100034c4:	f003 ff64 	bl	10007390 <____aeabi_ldiv0_veneer>
100034c8:	2200      	movs	r2, #0
100034ca:	2300      	movs	r3, #0
100034cc:	bd00      	pop	{pc}
100034ce:	b500      	push	{lr}
100034d0:	2900      	cmp	r1, #0
100034d2:	db0a      	blt.n	100034ea <l43_1+0x2>
100034d4:	43db      	mvns	r3, r3
100034d6:	4252      	negs	r2, r2
100034d8:	d100      	bne.n	100034dc <l42_1>
100034da:	3301      	adds	r3, #1

100034dc <l42_1>:
100034dc:	f000 f814 	bl	10003508 <divmod_u64u64_unsafe>
100034e0:	43c9      	mvns	r1, r1
100034e2:	4240      	negs	r0, r0
100034e4:	d100      	bne.n	100034e8 <l43_1>
100034e6:	3101      	adds	r1, #1

100034e8 <l43_1>:
100034e8:	bd00      	pop	{pc}
100034ea:	43c9      	mvns	r1, r1
100034ec:	4240      	negs	r0, r0
100034ee:	d100      	bne.n	100034f2 <l44_1>
100034f0:	3101      	adds	r1, #1

100034f2 <l44_1>:
100034f2:	43db      	mvns	r3, r3
100034f4:	4252      	negs	r2, r2
100034f6:	d100      	bne.n	100034fa <l45_1>
100034f8:	3301      	adds	r3, #1

100034fa <l45_1>:
100034fa:	f000 f805 	bl	10003508 <divmod_u64u64_unsafe>
100034fe:	43db      	mvns	r3, r3
10003500:	4252      	negs	r2, r2
10003502:	d100      	bne.n	10003506 <l46_1>
10003504:	3301      	adds	r3, #1

10003506 <l46_1>:
10003506:	bd00      	pop	{pc}

10003508 <divmod_u64u64_unsafe>:
10003508:	2900      	cmp	r1, #0
1000350a:	d123      	bne.n	10003554 <y64>
1000350c:	2b00      	cmp	r3, #0
1000350e:	d118      	bne.n	10003542 <udiv0+0x10>
10003510:	2a00      	cmp	r2, #0
10003512:	d00c      	beq.n	1000352e <divmod_u64u64_unsafe+0x26>
10003514:	46bc      	mov	ip, r7
10003516:	4f0d      	ldr	r7, [pc, #52]	; (1000354c <udiv0+0x1a>)
10003518:	6638      	str	r0, [r7, #96]	; 0x60
1000351a:	667a      	str	r2, [r7, #100]	; 0x64
1000351c:	2100      	movs	r1, #0
1000351e:	2300      	movs	r3, #0
10003520:	e7ff      	b.n	10003522 <divmod_u64u64_unsafe+0x1a>
10003522:	e7ff      	b.n	10003524 <divmod_u64u64_unsafe+0x1c>
10003524:	e7ff      	b.n	10003526 <divmod_u64u64_unsafe+0x1e>
10003526:	6f7a      	ldr	r2, [r7, #116]	; 0x74
10003528:	6f38      	ldr	r0, [r7, #112]	; 0x70
1000352a:	4667      	mov	r7, ip
1000352c:	4770      	bx	lr
1000352e:	2800      	cmp	r0, #0
10003530:	d001      	beq.n	10003536 <udiv0+0x4>

10003532 <udiv0>:
10003532:	4807      	ldr	r0, [pc, #28]	; (10003550 <udiv0+0x1e>)
10003534:	0001      	movs	r1, r0
10003536:	b500      	push	{lr}
10003538:	f003 ff2a 	bl	10007390 <____aeabi_ldiv0_veneer>
1000353c:	2200      	movs	r2, #0
1000353e:	2300      	movs	r3, #0
10003540:	bd00      	pop	{pc}
10003542:	0002      	movs	r2, r0
10003544:	000b      	movs	r3, r1
10003546:	2000      	movs	r0, #0
10003548:	2100      	movs	r1, #0
1000354a:	4770      	bx	lr
1000354c:	d0000000 	.word	0xd0000000
10003550:	ffffffff 	.word	0xffffffff

10003554 <y64>:
10003554:	2b00      	cmp	r3, #0
10003556:	d000      	beq.n	1000355a <y64+0x6>
10003558:	e0bf      	b.n	100036da <y64_x48>
1000355a:	0c13      	lsrs	r3, r2, #16
1000355c:	d128      	bne.n	100035b0 <y64_x32>
1000355e:	2a00      	cmp	r2, #0
10003560:	d0e7      	beq.n	10003532 <udiv0>
10003562:	b480      	push	{r7}
10003564:	4f11      	ldr	r7, [pc, #68]	; (100035ac <y64+0x58>)
10003566:	6639      	str	r1, [r7, #96]	; 0x60
10003568:	667a      	str	r2, [r7, #100]	; 0x64
1000356a:	e7ff      	b.n	1000356c <y64+0x18>
1000356c:	e7ff      	b.n	1000356e <y64+0x1a>
1000356e:	b430      	push	{r4, r5}
10003570:	0c04      	lsrs	r4, r0, #16
10003572:	6f7b      	ldr	r3, [r7, #116]	; 0x74
10003574:	6f39      	ldr	r1, [r7, #112]	; 0x70
10003576:	041b      	lsls	r3, r3, #16
10003578:	4323      	orrs	r3, r4
1000357a:	663b      	str	r3, [r7, #96]	; 0x60
1000357c:	667a      	str	r2, [r7, #100]	; 0x64
1000357e:	e7ff      	b.n	10003580 <y64+0x2c>
10003580:	e7ff      	b.n	10003582 <y64+0x2e>
10003582:	e7ff      	b.n	10003584 <y64+0x30>
10003584:	46c0      	nop			; (mov r8, r8)
10003586:	b284      	uxth	r4, r0
10003588:	6f7b      	ldr	r3, [r7, #116]	; 0x74
1000358a:	6f3d      	ldr	r5, [r7, #112]	; 0x70
1000358c:	041b      	lsls	r3, r3, #16
1000358e:	4323      	orrs	r3, r4
10003590:	663b      	str	r3, [r7, #96]	; 0x60
10003592:	667a      	str	r2, [r7, #100]	; 0x64
10003594:	e7ff      	b.n	10003596 <y64+0x42>
10003596:	e7ff      	b.n	10003598 <y64+0x44>
10003598:	46c0      	nop			; (mov r8, r8)
1000359a:	2300      	movs	r3, #0
1000359c:	042c      	lsls	r4, r5, #16
1000359e:	0c2d      	lsrs	r5, r5, #16
100035a0:	6f7a      	ldr	r2, [r7, #116]	; 0x74
100035a2:	6f38      	ldr	r0, [r7, #112]	; 0x70
100035a4:	1900      	adds	r0, r0, r4
100035a6:	4169      	adcs	r1, r5
100035a8:	bcb0      	pop	{r4, r5, r7}
100035aa:	4770      	bx	lr
100035ac:	d0000000 	.word	0xd0000000

100035b0 <y64_x32>:
100035b0:	b5f0      	push	{r4, r5, r6, r7, lr}
100035b2:	4694      	mov	ip, r2
100035b4:	2500      	movs	r5, #0
100035b6:	0e14      	lsrs	r4, r2, #24
100035b8:	d101      	bne.n	100035be <y64_x32+0xe>
100035ba:	0212      	lsls	r2, r2, #8
100035bc:	3508      	adds	r5, #8
100035be:	0f14      	lsrs	r4, r2, #28
100035c0:	d101      	bne.n	100035c6 <y64_x32+0x16>
100035c2:	0112      	lsls	r2, r2, #4
100035c4:	3504      	adds	r5, #4
100035c6:	0f94      	lsrs	r4, r2, #30
100035c8:	d101      	bne.n	100035ce <y64_x32+0x1e>
100035ca:	0092      	lsls	r2, r2, #2
100035cc:	3502      	adds	r5, #2
100035ce:	0fd4      	lsrs	r4, r2, #31
100035d0:	d101      	bne.n	100035d6 <y64_x32+0x26>
100035d2:	0052      	lsls	r2, r2, #1
100035d4:	3501      	adds	r5, #1
100035d6:	0bd4      	lsrs	r4, r2, #15
100035d8:	3401      	adds	r4, #1
100035da:	4f25      	ldr	r7, [pc, #148]	; (10003670 <y64_x32+0xc0>)
100035dc:	667c      	str	r4, [r7, #100]	; 0x64
100035de:	4c25      	ldr	r4, [pc, #148]	; (10003674 <y64_x32+0xc4>)
100035e0:	663c      	str	r4, [r7, #96]	; 0x60
100035e2:	0c0e      	lsrs	r6, r1, #16
100035e4:	b293      	uxth	r3, r2
100035e6:	e7ff      	b.n	100035e8 <y64_x32+0x38>
100035e8:	e7ff      	b.n	100035ea <y64_x32+0x3a>
100035ea:	e7ff      	b.n	100035ec <y64_x32+0x3c>
100035ec:	6f3c      	ldr	r4, [r7, #112]	; 0x70
100035ee:	4366      	muls	r6, r4
100035f0:	0c36      	lsrs	r6, r6, #16
100035f2:	0377      	lsls	r7, r6, #13
100035f4:	46be      	mov	lr, r7
100035f6:	4373      	muls	r3, r6
100035f8:	0bdf      	lsrs	r7, r3, #15
100035fa:	045b      	lsls	r3, r3, #17
100035fc:	1ac0      	subs	r0, r0, r3
100035fe:	41b9      	sbcs	r1, r7
10003600:	0c13      	lsrs	r3, r2, #16
10003602:	4373      	muls	r3, r6
10003604:	18db      	adds	r3, r3, r3
10003606:	1ac9      	subs	r1, r1, r3
10003608:	08ce      	lsrs	r6, r1, #3
1000360a:	4366      	muls	r6, r4
1000360c:	0c36      	lsrs	r6, r6, #16
1000360e:	44b6      	add	lr, r6
10003610:	b293      	uxth	r3, r2
10003612:	4373      	muls	r3, r6
10003614:	0f1f      	lsrs	r7, r3, #28
10003616:	011b      	lsls	r3, r3, #4
10003618:	1ac0      	subs	r0, r0, r3
1000361a:	41b9      	sbcs	r1, r7
1000361c:	0c13      	lsrs	r3, r2, #16
1000361e:	4373      	muls	r3, r6
10003620:	0b1f      	lsrs	r7, r3, #12
10003622:	051b      	lsls	r3, r3, #20
10003624:	1ac0      	subs	r0, r0, r3
10003626:	41b9      	sbcs	r1, r7
10003628:	0d86      	lsrs	r6, r0, #22
1000362a:	028f      	lsls	r7, r1, #10
1000362c:	433e      	orrs	r6, r7
1000362e:	4366      	muls	r6, r4
10003630:	0c36      	lsrs	r6, r6, #16
10003632:	2d09      	cmp	r5, #9
10003634:	db24      	blt.n	10003680 <last0>
10003636:	0a52      	lsrs	r2, r2, #9
10003638:	4372      	muls	r2, r6
1000363a:	1a80      	subs	r0, r0, r2
1000363c:	0377      	lsls	r7, r6, #13
1000363e:	0a46      	lsrs	r6, r0, #9
10003640:	4366      	muls	r6, r4
10003642:	0c36      	lsrs	r6, r6, #16
10003644:	2316      	movs	r3, #22
10003646:	1b5b      	subs	r3, r3, r5
10003648:	40de      	lsrs	r6, r3
1000364a:	40df      	lsrs	r7, r3
1000364c:	19bf      	adds	r7, r7, r6
1000364e:	4664      	mov	r4, ip
10003650:	4366      	muls	r6, r4
10003652:	1b82      	subs	r2, r0, r6
10003654:	4670      	mov	r0, lr
10003656:	3504      	adds	r5, #4
10003658:	3306      	adds	r3, #6
1000365a:	0001      	movs	r1, r0
1000365c:	40d9      	lsrs	r1, r3
1000365e:	40a8      	lsls	r0, r5
10003660:	19c0      	adds	r0, r0, r7
10003662:	d300      	bcc.n	10003666 <y64_x32+0xb6>
10003664:	3101      	adds	r1, #1
10003666:	42a2      	cmp	r2, r4
10003668:	d206      	bcs.n	10003678 <y64_x32+0xc8>
1000366a:	2300      	movs	r3, #0
1000366c:	bdf0      	pop	{r4, r5, r6, r7, pc}
1000366e:	0000      	.short	0x0000
10003670:	d0000000 	.word	0xd0000000
10003674:	ffffffff 	.word	0xffffffff
10003678:	1b12      	subs	r2, r2, r4
1000367a:	3001      	adds	r0, #1
1000367c:	d3f3      	bcc.n	10003666 <y64_x32+0xb6>
1000367e:	e7f1      	b.n	10003664 <y64_x32+0xb4>

10003680 <last0>:
10003680:	2709      	movs	r7, #9
10003682:	1b7f      	subs	r7, r7, r5
10003684:	40fe      	lsrs	r6, r7
10003686:	4664      	mov	r4, ip
10003688:	b2a2      	uxth	r2, r4
1000368a:	4372      	muls	r2, r6
1000368c:	1a80      	subs	r0, r0, r2
1000368e:	d200      	bcs.n	10003692 <last0+0x12>
10003690:	3901      	subs	r1, #1
10003692:	0c22      	lsrs	r2, r4, #16
10003694:	4372      	muls	r2, r6
10003696:	0c13      	lsrs	r3, r2, #16
10003698:	0412      	lsls	r2, r2, #16
1000369a:	1a82      	subs	r2, r0, r2
1000369c:	4199      	sbcs	r1, r3
1000369e:	000b      	movs	r3, r1
100036a0:	4670      	mov	r0, lr
100036a2:	3504      	adds	r5, #4
100036a4:	3713      	adds	r7, #19
100036a6:	0001      	movs	r1, r0
100036a8:	40f9      	lsrs	r1, r7
100036aa:	40a8      	lsls	r0, r5
100036ac:	1980      	adds	r0, r0, r6
100036ae:	d300      	bcc.n	100036b2 <last0+0x32>
100036b0:	3101      	adds	r1, #1
100036b2:	2b00      	cmp	r3, #0
100036b4:	d102      	bne.n	100036bc <last0+0x3c>
100036b6:	42a2      	cmp	r2, r4
100036b8:	d20a      	bcs.n	100036d0 <last0+0x50>
100036ba:	bdf0      	pop	{r4, r5, r6, r7, pc}
100036bc:	3001      	adds	r0, #1
100036be:	d300      	bcc.n	100036c2 <last0+0x42>
100036c0:	3101      	adds	r1, #1
100036c2:	1b12      	subs	r2, r2, r4
100036c4:	d2fa      	bcs.n	100036bc <last0+0x3c>
100036c6:	3b01      	subs	r3, #1
100036c8:	d1f8      	bne.n	100036bc <last0+0x3c>
100036ca:	42a2      	cmp	r2, r4
100036cc:	d200      	bcs.n	100036d0 <last0+0x50>
100036ce:	bdf0      	pop	{r4, r5, r6, r7, pc}
100036d0:	3001      	adds	r0, #1
100036d2:	d300      	bcc.n	100036d6 <last0+0x56>
100036d4:	3101      	adds	r1, #1
100036d6:	1b12      	subs	r2, r2, r4
100036d8:	e7f7      	b.n	100036ca <last0+0x4a>

100036da <y64_x48>:
100036da:	b5f0      	push	{r4, r5, r6, r7, lr}
100036dc:	0c1c      	lsrs	r4, r3, #16
100036de:	d000      	beq.n	100036e2 <y64_x48+0x8>
100036e0:	e080      	b.n	100037e4 <y64_x64>
100036e2:	b40c      	push	{r2, r3}
100036e4:	2500      	movs	r5, #0
100036e6:	0a1c      	lsrs	r4, r3, #8
100036e8:	d104      	bne.n	100036f4 <y64_x48+0x1a>
100036ea:	021b      	lsls	r3, r3, #8
100036ec:	0e16      	lsrs	r6, r2, #24
100036ee:	4333      	orrs	r3, r6
100036f0:	0212      	lsls	r2, r2, #8
100036f2:	3508      	adds	r5, #8
100036f4:	0b1c      	lsrs	r4, r3, #12
100036f6:	d104      	bne.n	10003702 <y64_x48+0x28>
100036f8:	011b      	lsls	r3, r3, #4
100036fa:	0f16      	lsrs	r6, r2, #28
100036fc:	4333      	orrs	r3, r6
100036fe:	0112      	lsls	r2, r2, #4
10003700:	3504      	adds	r5, #4
10003702:	0b9c      	lsrs	r4, r3, #14
10003704:	d104      	bne.n	10003710 <y64_x48+0x36>
10003706:	009b      	lsls	r3, r3, #2
10003708:	0f96      	lsrs	r6, r2, #30
1000370a:	4333      	orrs	r3, r6
1000370c:	0092      	lsls	r2, r2, #2
1000370e:	3502      	adds	r5, #2
10003710:	0bdc      	lsrs	r4, r3, #15
10003712:	d102      	bne.n	1000371a <y64_x48+0x40>
10003714:	1892      	adds	r2, r2, r2
10003716:	415b      	adcs	r3, r3
10003718:	3501      	adds	r5, #1
1000371a:	001c      	movs	r4, r3
1000371c:	1897      	adds	r7, r2, r2
1000371e:	4164      	adcs	r4, r4
10003720:	3401      	adds	r4, #1
10003722:	4f46      	ldr	r7, [pc, #280]	; (1000383c <y64_x64+0x58>)
10003724:	667c      	str	r4, [r7, #100]	; 0x64
10003726:	4c46      	ldr	r4, [pc, #280]	; (10003840 <y64_x64+0x5c>)
10003728:	663c      	str	r4, [r7, #96]	; 0x60
1000372a:	0c0e      	lsrs	r6, r1, #16
1000372c:	e7ff      	b.n	1000372e <y64_x48+0x54>
1000372e:	e7ff      	b.n	10003730 <y64_x48+0x56>
10003730:	e7ff      	b.n	10003732 <y64_x48+0x58>
10003732:	46c0      	nop			; (mov r8, r8)
10003734:	6f3c      	ldr	r4, [r7, #112]	; 0x70
10003736:	4366      	muls	r6, r4
10003738:	0c36      	lsrs	r6, r6, #16
1000373a:	0377      	lsls	r7, r6, #13
1000373c:	46be      	mov	lr, r7
1000373e:	b297      	uxth	r7, r2
10003740:	4377      	muls	r7, r6
10003742:	1bc0      	subs	r0, r0, r7
10003744:	d200      	bcs.n	10003748 <y64_x48+0x6e>
10003746:	3901      	subs	r1, #1
10003748:	1bc0      	subs	r0, r0, r7
1000374a:	d200      	bcs.n	1000374e <y64_x48+0x74>
1000374c:	3901      	subs	r1, #1
1000374e:	b29f      	uxth	r7, r3
10003750:	4377      	muls	r7, r6
10003752:	1bc9      	subs	r1, r1, r7
10003754:	1bc9      	subs	r1, r1, r7
10003756:	0c17      	lsrs	r7, r2, #16
10003758:	4377      	muls	r7, r6
1000375a:	047e      	lsls	r6, r7, #17
1000375c:	0bff      	lsrs	r7, r7, #15
1000375e:	1b80      	subs	r0, r0, r6
10003760:	41b9      	sbcs	r1, r7
10003762:	08ce      	lsrs	r6, r1, #3
10003764:	4366      	muls	r6, r4
10003766:	0c36      	lsrs	r6, r6, #16
10003768:	2d0c      	cmp	r5, #12
1000376a:	db33      	blt.n	100037d4 <last1>
1000376c:	44b6      	add	lr, r6
1000376e:	0b12      	lsrs	r2, r2, #12
10003770:	051f      	lsls	r7, r3, #20
10003772:	433a      	orrs	r2, r7
10003774:	0b1b      	lsrs	r3, r3, #12
10003776:	b297      	uxth	r7, r2
10003778:	4377      	muls	r7, r6
1000377a:	1bc0      	subs	r0, r0, r7
1000377c:	d200      	bcs.n	10003780 <y64_x48+0xa6>
1000377e:	3901      	subs	r1, #1
10003780:	b29f      	uxth	r7, r3
10003782:	4377      	muls	r7, r6
10003784:	1bc9      	subs	r1, r1, r7
10003786:	0c17      	lsrs	r7, r2, #16
10003788:	4377      	muls	r7, r6
1000378a:	043e      	lsls	r6, r7, #16
1000378c:	0c3f      	lsrs	r7, r7, #16
1000378e:	1b80      	subs	r0, r0, r6
10003790:	41b9      	sbcs	r1, r7
10003792:	0d86      	lsrs	r6, r0, #22
10003794:	028f      	lsls	r7, r1, #10
10003796:	433e      	orrs	r6, r7
10003798:	4366      	muls	r6, r4
1000379a:	2729      	movs	r7, #41	; 0x29
1000379c:	1b7f      	subs	r7, r7, r5
1000379e:	40fe      	lsrs	r6, r7
100037a0:	3d0c      	subs	r5, #12
100037a2:	4677      	mov	r7, lr
100037a4:	40af      	lsls	r7, r5
100037a6:	19bf      	adds	r7, r7, r6
100037a8:	bc30      	pop	{r4, r5}
100037aa:	b2a2      	uxth	r2, r4
100037ac:	b2ab      	uxth	r3, r5
100037ae:	4372      	muls	r2, r6
100037b0:	4373      	muls	r3, r6
100037b2:	1a80      	subs	r0, r0, r2
100037b4:	4199      	sbcs	r1, r3
100037b6:	0c22      	lsrs	r2, r4, #16
100037b8:	4372      	muls	r2, r6
100037ba:	0c13      	lsrs	r3, r2, #16
100037bc:	0412      	lsls	r2, r2, #16
100037be:	1a80      	subs	r0, r0, r2
100037c0:	4199      	sbcs	r1, r3
100037c2:	0002      	movs	r2, r0
100037c4:	000b      	movs	r3, r1
100037c6:	3701      	adds	r7, #1
100037c8:	1b00      	subs	r0, r0, r4
100037ca:	41a9      	sbcs	r1, r5
100037cc:	d2f9      	bcs.n	100037c2 <y64_x48+0xe8>
100037ce:	1e78      	subs	r0, r7, #1
100037d0:	2100      	movs	r1, #0
100037d2:	bdf0      	pop	{r4, r5, r6, r7, pc}

100037d4 <last1>:
100037d4:	270c      	movs	r7, #12
100037d6:	1b7f      	subs	r7, r7, r5
100037d8:	40fe      	lsrs	r6, r7
100037da:	4677      	mov	r7, lr
100037dc:	0b7f      	lsrs	r7, r7, #13
100037de:	40af      	lsls	r7, r5
100037e0:	19ff      	adds	r7, r7, r7
100037e2:	e7e0      	b.n	100037a6 <y64_x48+0xcc>

100037e4 <y64_x64>:
100037e4:	2400      	movs	r4, #0
100037e6:	1c5d      	adds	r5, r3, #1
100037e8:	d007      	beq.n	100037fa <y64_x64+0x16>
100037ea:	4f14      	ldr	r7, [pc, #80]	; (1000383c <y64_x64+0x58>)
100037ec:	667d      	str	r5, [r7, #100]	; 0x64
100037ee:	6639      	str	r1, [r7, #96]	; 0x60
100037f0:	e7ff      	b.n	100037f2 <y64_x64+0xe>
100037f2:	e7ff      	b.n	100037f4 <y64_x64+0x10>
100037f4:	e7ff      	b.n	100037f6 <y64_x64+0x12>
100037f6:	e7ff      	b.n	100037f8 <y64_x64+0x14>
100037f8:	6f3c      	ldr	r4, [r7, #112]	; 0x70
100037fa:	b295      	uxth	r5, r2
100037fc:	b29e      	uxth	r6, r3
100037fe:	4365      	muls	r5, r4
10003800:	4366      	muls	r6, r4
10003802:	1b40      	subs	r0, r0, r5
10003804:	41b1      	sbcs	r1, r6
10003806:	0c15      	lsrs	r5, r2, #16
10003808:	0c1e      	lsrs	r6, r3, #16
1000380a:	4365      	muls	r5, r4
1000380c:	4366      	muls	r6, r4
1000380e:	0436      	lsls	r6, r6, #16
10003810:	0c2f      	lsrs	r7, r5, #16
10003812:	433e      	orrs	r6, r7
10003814:	042d      	lsls	r5, r5, #16
10003816:	1b40      	subs	r0, r0, r5
10003818:	41b1      	sbcs	r1, r6
1000381a:	4299      	cmp	r1, r3
1000381c:	d204      	bcs.n	10003828 <y64_x64+0x44>
1000381e:	0002      	movs	r2, r0
10003820:	000b      	movs	r3, r1
10003822:	0020      	movs	r0, r4
10003824:	2100      	movs	r1, #0
10003826:	bdf0      	pop	{r4, r5, r6, r7, pc}
10003828:	d101      	bne.n	1000382e <y64_x64+0x4a>
1000382a:	4290      	cmp	r0, r2
1000382c:	d3f7      	bcc.n	1000381e <y64_x64+0x3a>
1000382e:	1a80      	subs	r0, r0, r2
10003830:	4199      	sbcs	r1, r3
10003832:	3401      	adds	r4, #1
10003834:	4299      	cmp	r1, r3
10003836:	d3f2      	bcc.n	1000381e <y64_x64+0x3a>
10003838:	e7f6      	b.n	10003828 <y64_x64+0x44>
1000383a:	0000      	.short	0x0000
1000383c:	d0000000 	.word	0xd0000000
10003840:	ffffffff 	.word	0xffffffff

10003844 <__wrap___aeabi_drsub>:
10003844:	4048      	eors	r0, r1
10003846:	4041      	eors	r1, r0
10003848:	4048      	eors	r0, r1

1000384a <__wrap___aeabi_dsub>:
1000384a:	b418      	push	{r3, r4}
1000384c:	4b1b      	ldr	r3, [pc, #108]	; (100038bc <__wrap___aeabi_dmul+0x12>)
1000384e:	685b      	ldr	r3, [r3, #4]
10003850:	46fc      	mov	ip, pc
10003852:	9301      	str	r3, [sp, #4]
10003854:	bd08      	pop	{r3, pc}
10003856:	df04      	.short	0xdf04
10003858:	10003b37 	.word	0x10003b37

1000385c <__wrap___aeabi_dadd>:
1000385c:	b418      	push	{r3, r4}
1000385e:	4b17      	ldr	r3, [pc, #92]	; (100038bc <__wrap___aeabi_dmul+0x12>)
10003860:	681b      	ldr	r3, [r3, #0]
10003862:	46fc      	mov	ip, pc
10003864:	9301      	str	r3, [sp, #4]
10003866:	bd08      	pop	{r3, pc}
10003868:	3b41df00 	.word	0x3b41df00
1000386c:	1000      	.short	0x1000

1000386e <__wrap___aeabi_ddiv>:
1000386e:	4694      	mov	ip, r2
10003870:	4a13      	ldr	r2, [pc, #76]	; (100038c0 <__wrap___aeabi_dmul+0x16>)
10003872:	6f92      	ldr	r2, [r2, #120]	; 0x78
10003874:	0892      	lsrs	r2, r2, #2
10003876:	d209      	bcs.n	1000388c <ddiv_save_state>
10003878:	4662      	mov	r2, ip

1000387a <ddiv_shim_call>:
1000387a:	b418      	push	{r3, r4}
1000387c:	4b0f      	ldr	r3, [pc, #60]	; (100038bc <__wrap___aeabi_dmul+0x12>)
1000387e:	68db      	ldr	r3, [r3, #12]
10003880:	46fc      	mov	ip, pc
10003882:	9301      	str	r3, [sp, #4]
10003884:	bd08      	pop	{r3, pc}
10003886:	df0c      	.short	0xdf0c
10003888:	10003df9 	.word	0x10003df9

1000388c <ddiv_save_state>:
1000388c:	4a0c      	ldr	r2, [pc, #48]	; (100038c0 <__wrap___aeabi_dmul+0x16>)
1000388e:	b5f0      	push	{r4, r5, r6, r7, lr}
10003890:	6e14      	ldr	r4, [r2, #96]	; 0x60
10003892:	6e55      	ldr	r5, [r2, #100]	; 0x64
10003894:	6f57      	ldr	r7, [r2, #116]	; 0x74
10003896:	6f16      	ldr	r6, [r2, #112]	; 0x70
10003898:	4662      	mov	r2, ip
1000389a:	f7ff ffee 	bl	1000387a <ddiv_shim_call>
1000389e:	4a08      	ldr	r2, [pc, #32]	; (100038c0 <__wrap___aeabi_dmul+0x16>)
100038a0:	6614      	str	r4, [r2, #96]	; 0x60
100038a2:	6655      	str	r5, [r2, #100]	; 0x64
100038a4:	6757      	str	r7, [r2, #116]	; 0x74
100038a6:	6716      	str	r6, [r2, #112]	; 0x70
100038a8:	bdf0      	pop	{r4, r5, r6, r7, pc}

100038aa <__wrap___aeabi_dmul>:
100038aa:	b418      	push	{r3, r4}
100038ac:	4b03      	ldr	r3, [pc, #12]	; (100038bc <__wrap___aeabi_dmul+0x12>)
100038ae:	689b      	ldr	r3, [r3, #8]
100038b0:	46fc      	mov	ip, pc
100038b2:	9301      	str	r3, [sp, #4]
100038b4:	bd08      	pop	{r3, pc}
100038b6:	df08      	.short	0xdf08
100038b8:	10003c9d 	.word	0x10003c9d
100038bc:	20000ed4 	.word	0x20000ed4
100038c0:	d0000000 	.word	0xd0000000

100038c4 <__wrap___aeabi_cdrcmple>:
100038c4:	b5ff      	push	{r0, r1, r2, r3, r4, r5, r6, r7, lr}
100038c6:	4050      	eors	r0, r2
100038c8:	4042      	eors	r2, r0
100038ca:	4050      	eors	r0, r2
100038cc:	4059      	eors	r1, r3
100038ce:	404b      	eors	r3, r1
100038d0:	4059      	eors	r1, r3
100038d2:	e000      	b.n	100038d6 <__aeabi_dfcmple_guts>

100038d4 <__wrap___aeabi_cdcmpeq>:
100038d4:	b5ff      	push	{r0, r1, r2, r3, r4, r5, r6, r7, lr}

100038d6 <__aeabi_dfcmple_guts>:
100038d6:	4f15      	ldr	r7, [pc, #84]	; (1000392c <__aeabi_dfcmple_guts+0x56>)
100038d8:	004c      	lsls	r4, r1, #1
100038da:	0d64      	lsrs	r4, r4, #21
100038dc:	d003      	beq.n	100038e6 <__aeabi_dfcmple_guts+0x10>
100038de:	42bc      	cmp	r4, r7
100038e0:	d104      	bne.n	100038ec <__aeabi_dfcmple_guts+0x16>
100038e2:	030c      	lsls	r4, r1, #12
100038e4:	d814      	bhi.n	10003910 <__aeabi_dfcmple_guts+0x3a>
100038e6:	2000      	movs	r0, #0
100038e8:	0d09      	lsrs	r1, r1, #20
100038ea:	0509      	lsls	r1, r1, #20
100038ec:	005c      	lsls	r4, r3, #1
100038ee:	0d64      	lsrs	r4, r4, #21
100038f0:	d003      	beq.n	100038fa <__aeabi_dfcmple_guts+0x24>
100038f2:	42bc      	cmp	r4, r7
100038f4:	d104      	bne.n	10003900 <__aeabi_dfcmple_guts+0x2a>
100038f6:	031c      	lsls	r4, r3, #12
100038f8:	d80a      	bhi.n	10003910 <__aeabi_dfcmple_guts+0x3a>
100038fa:	2200      	movs	r2, #0
100038fc:	0d1b      	lsrs	r3, r3, #20
100038fe:	051b      	lsls	r3, r3, #20
10003900:	2601      	movs	r6, #1
10003902:	404b      	eors	r3, r1
10003904:	d409      	bmi.n	1000391a <__aeabi_dfcmple_guts+0x44>
10003906:	404b      	eors	r3, r1
10003908:	d503      	bpl.n	10003912 <__aeabi_dfcmple_guts+0x3c>
1000390a:	428b      	cmp	r3, r1
1000390c:	d100      	bne.n	10003910 <__aeabi_dfcmple_guts+0x3a>
1000390e:	4282      	cmp	r2, r0
10003910:	bdff      	pop	{r0, r1, r2, r3, r4, r5, r6, r7, pc}
10003912:	4299      	cmp	r1, r3
10003914:	d1fc      	bne.n	10003910 <__aeabi_dfcmple_guts+0x3a>
10003916:	4290      	cmp	r0, r2
10003918:	bdff      	pop	{r0, r1, r2, r3, r4, r5, r6, r7, pc}
1000391a:	430b      	orrs	r3, r1
1000391c:	18db      	adds	r3, r3, r3
1000391e:	4303      	orrs	r3, r0
10003920:	4313      	orrs	r3, r2
10003922:	d0f5      	beq.n	10003910 <__aeabi_dfcmple_guts+0x3a>
10003924:	43c9      	mvns	r1, r1
10003926:	1849      	adds	r1, r1, r1
10003928:	bdff      	pop	{r0, r1, r2, r3, r4, r5, r6, r7, pc}
1000392a:	0000      	.short	0x0000
1000392c:	000007ff 	.word	0x000007ff

10003930 <__wrap___aeabi_dcmplt>:
10003930:	b500      	push	{lr}
10003932:	f7ff ffcf 	bl	100038d4 <__wrap___aeabi_cdcmpeq>
10003936:	4180      	sbcs	r0, r0
10003938:	bd00      	pop	{pc}
1000393a:	46c0      	nop			; (mov r8, r8)

1000393c <__wrap___aeabi_dcmple>:
1000393c:	b500      	push	{lr}
1000393e:	f7ff ffc9 	bl	100038d4 <__wrap___aeabi_cdcmpeq>
10003942:	d901      	bls.n	10003948 <__wrap___aeabi_dcmple+0xc>
10003944:	2000      	movs	r0, #0
10003946:	bd00      	pop	{pc}
10003948:	2001      	movs	r0, #1
1000394a:	bd00      	pop	{pc}

1000394c <__wrap___aeabi_dcmpge>:
1000394c:	b500      	push	{lr}
1000394e:	f7ff ffb9 	bl	100038c4 <__wrap___aeabi_cdrcmple>
10003952:	d901      	bls.n	10003958 <__wrap___aeabi_dcmpge+0xc>
10003954:	2000      	movs	r0, #0
10003956:	bd00      	pop	{pc}
10003958:	2001      	movs	r0, #1
1000395a:	bd00      	pop	{pc}

1000395c <__wrap___aeabi_dcmpgt>:
1000395c:	b500      	push	{lr}
1000395e:	f7ff ffb1 	bl	100038c4 <__wrap___aeabi_cdrcmple>
10003962:	4180      	sbcs	r0, r0
10003964:	bd00      	pop	{pc}

10003966 <__wrap___aeabi_dcmpun>:
10003966:	2001      	movs	r0, #1
10003968:	0540      	lsls	r0, r0, #21
1000396a:	004a      	lsls	r2, r1, #1
1000396c:	1812      	adds	r2, r2, r0
1000396e:	d804      	bhi.n	1000397a <__wrap___aeabi_dcmpun+0x14>
10003970:	005a      	lsls	r2, r3, #1
10003972:	1812      	adds	r2, r2, r0
10003974:	d801      	bhi.n	1000397a <__wrap___aeabi_dcmpun+0x14>
10003976:	2000      	movs	r0, #0
10003978:	4770      	bx	lr
1000397a:	2001      	movs	r0, #1
1000397c:	4770      	bx	lr
1000397e:	2000      	movs	r0, #0
10003980:	4770      	bx	lr
	...

10003984 <__wrap___aeabi_ui2d>:
10003984:	2100      	movs	r1, #0
10003986:	2800      	cmp	r0, #0
10003988:	d105      	bne.n	10003996 <__wrap___aeabi_i2d+0xa>
1000398a:	4770      	bx	lr

1000398c <__wrap___aeabi_i2d>:
1000398c:	17c1      	asrs	r1, r0, #31
1000398e:	4048      	eors	r0, r1
10003990:	1a40      	subs	r0, r0, r1
10003992:	d0fa      	beq.n	1000398a <__wrap___aeabi_ui2d+0x6>
10003994:	07c9      	lsls	r1, r1, #31
10003996:	b513      	push	{r0, r1, r4, lr}
10003998:	4b06      	ldr	r3, [pc, #24]	; (100039b4 <__wrap___aeabi_i2d+0x28>)
1000399a:	681b      	ldr	r3, [r3, #0]
1000399c:	4798      	blx	r3
1000399e:	bc0c      	pop	{r2, r3}
100039a0:	1c44      	adds	r4, r0, #1
100039a2:	40a2      	lsls	r2, r4
100039a4:	0510      	lsls	r0, r2, #20
100039a6:	0b12      	lsrs	r2, r2, #12
100039a8:	4903      	ldr	r1, [pc, #12]	; (100039b8 <__wrap___aeabi_i2d+0x2c>)
100039aa:	1b09      	subs	r1, r1, r4
100039ac:	0509      	lsls	r1, r1, #20
100039ae:	4319      	orrs	r1, r3
100039b0:	4311      	orrs	r1, r2
100039b2:	bd10      	pop	{r4, pc}
100039b4:	20000fd4 	.word	0x20000fd4
100039b8:	0000041f 	.word	0x0000041f

100039bc <__wrap___aeabi_d2iz>:
100039bc:	b510      	push	{r4, lr}
100039be:	004c      	lsls	r4, r1, #1
100039c0:	0d62      	lsrs	r2, r4, #21
100039c2:	2380      	movs	r3, #128	; 0x80
100039c4:	18d2      	adds	r2, r2, r3
100039c6:	00db      	lsls	r3, r3, #3
100039c8:	1ad2      	subs	r2, r2, r3
100039ca:	055b      	lsls	r3, r3, #21
100039cc:	2a7e      	cmp	r2, #126	; 0x7e
100039ce:	dd10      	ble.n	100039f2 <__wrap___aeabi_d2iz+0x36>
100039d0:	3a9e      	subs	r2, #158	; 0x9e
100039d2:	da13      	bge.n	100039fc <__wrap___aeabi_d2iz+0x40>
100039d4:	17cc      	asrs	r4, r1, #31
100039d6:	0309      	lsls	r1, r1, #12
100039d8:	0849      	lsrs	r1, r1, #1
100039da:	4319      	orrs	r1, r3
100039dc:	4252      	negs	r2, r2
100039de:	40d1      	lsrs	r1, r2
100039e0:	0064      	lsls	r4, r4, #1
100039e2:	3401      	adds	r4, #1
100039e4:	3215      	adds	r2, #21
100039e6:	2a20      	cmp	r2, #32
100039e8:	da05      	bge.n	100039f6 <__wrap___aeabi_d2iz+0x3a>
100039ea:	40d0      	lsrs	r0, r2
100039ec:	4308      	orrs	r0, r1
100039ee:	4360      	muls	r0, r4
100039f0:	bd10      	pop	{r4, pc}
100039f2:	2000      	movs	r0, #0
100039f4:	bd10      	pop	{r4, pc}
100039f6:	4608      	mov	r0, r1
100039f8:	4360      	muls	r0, r4
100039fa:	bd10      	pop	{r4, pc}
100039fc:	0fc8      	lsrs	r0, r1, #31
100039fe:	18c0      	adds	r0, r0, r3
10003a00:	3801      	subs	r0, #1
10003a02:	bd10      	pop	{r4, pc}

10003a04 <__wrap___aeabi_d2uiz>:
10003a04:	b418      	push	{r3, r4}
10003a06:	4b04      	ldr	r3, [pc, #16]	; (10003a18 <__wrap___aeabi_d2uiz+0x14>)
10003a08:	6a5b      	ldr	r3, [r3, #36]	; 0x24
10003a0a:	46fc      	mov	ip, pc
10003a0c:	9301      	str	r3, [sp, #4]
10003a0e:	bd08      	pop	{r3, pc}
10003a10:	3fa9df24 	.word	0x3fa9df24
10003a14:	00001000 	.word	0x00001000
10003a18:	20000ed4 	.word	0x20000ed4

10003a1c <__wrap___aeabi_d2f>:
10003a1c:	b418      	push	{r3, r4}
10003a1e:	4b04      	ldr	r3, [pc, #16]	; (10003a30 <__wrap___aeabi_d2f+0x14>)
10003a20:	6fdb      	ldr	r3, [r3, #124]	; 0x7c
10003a22:	46fc      	mov	ip, pc
10003a24:	9301      	str	r3, [sp, #4]
10003a26:	bd08      	pop	{r3, pc}
10003a28:	4029df7c 	.word	0x4029df7c
10003a2c:	00001000 	.word	0x00001000
10003a30:	20000ed4 	.word	0x20000ed4

10003a34 <__aeabi_double_init>:
10003a34:	b570      	push	{r4, r5, r6, lr}
10003a36:	2313      	movs	r3, #19
10003a38:	781c      	ldrb	r4, [r3, #0]
10003a3a:	2c01      	cmp	r4, #1
10003a3c:	d014      	beq.n	10003a68 <__aeabi_double_init+0x34>
10003a3e:	2c01      	cmp	r4, #1
10003a40:	dc14      	bgt.n	10003a6c <__aeabi_double_init+0x38>
10003a42:	2c02      	cmp	r4, #2
10003a44:	dc02      	bgt.n	10003a4c <__aeabi_double_init+0x18>
10003a46:	4a1f      	ldr	r2, [pc, #124]	; (10003ac4 <__aeabi_double_init+0x90>)
10003a48:	4b1f      	ldr	r3, [pc, #124]	; (10003ac8 <__aeabi_double_init+0x94>)
10003a4a:	649a      	str	r2, [r3, #72]	; 0x48
10003a4c:	481f      	ldr	r0, [pc, #124]	; (10003acc <__aeabi_double_init+0x98>)
10003a4e:	f7ff fc6d 	bl	1000332c <rom_func_lookup>
10003a52:	4b1f      	ldr	r3, [pc, #124]	; (10003ad0 <__aeabi_double_init+0x9c>)
10003a54:	6018      	str	r0, [r3, #0]
10003a56:	bd70      	pop	{r4, r5, r6, pc}
10003a58:	0099      	lsls	r1, r3, #2
10003a5a:	481a      	ldr	r0, [pc, #104]	; (10003ac4 <__aeabi_double_init+0x90>)
10003a5c:	4a1a      	ldr	r2, [pc, #104]	; (10003ac8 <__aeabi_double_init+0x94>)
10003a5e:	5088      	str	r0, [r1, r2]
10003a60:	3301      	adds	r3, #1
10003a62:	2b1f      	cmp	r3, #31
10003a64:	d9f8      	bls.n	10003a58 <__aeabi_double_init+0x24>
10003a66:	e7ea      	b.n	10003a3e <__aeabi_double_init+0xa>
10003a68:	2300      	movs	r3, #0
10003a6a:	e7fa      	b.n	10003a62 <__aeabi_double_init+0x2e>
10003a6c:	4819      	ldr	r0, [pc, #100]	; (10003ad4 <__aeabi_double_init+0xa0>)
10003a6e:	f7ff fc65 	bl	1000333c <rom_data_lookup>
10003a72:	0005      	movs	r5, r0
10003a74:	4818      	ldr	r0, [pc, #96]	; (10003ad8 <__aeabi_double_init+0xa4>)
10003a76:	f7ff fc61 	bl	1000333c <rom_data_lookup>
10003a7a:	3802      	subs	r0, #2
10003a7c:	7803      	ldrb	r3, [r0, #0]
10003a7e:	009b      	lsls	r3, r3, #2
10003a80:	2b7f      	cmp	r3, #127	; 0x7f
10003a82:	dd19      	ble.n	10003ab8 <__aeabi_double_init+0x84>
10003a84:	2280      	movs	r2, #128	; 0x80
10003a86:	0029      	movs	r1, r5
10003a88:	480f      	ldr	r0, [pc, #60]	; (10003ac8 <__aeabi_double_init+0x94>)
10003a8a:	f000 fc5f 	bl	1000434c <__wrap___aeabi_memcpy>
10003a8e:	2c02      	cmp	r4, #2
10003a90:	d1d7      	bne.n	10003a42 <__aeabi_double_init+0xe>
10003a92:	4b12      	ldr	r3, [pc, #72]	; (10003adc <__aeabi_double_init+0xa8>)
10003a94:	881a      	ldrh	r2, [r3, #0]
10003a96:	23b5      	movs	r3, #181	; 0xb5
10003a98:	021b      	lsls	r3, r3, #8
10003a9a:	429a      	cmp	r2, r3
10003a9c:	d109      	bne.n	10003ab2 <__aeabi_double_init+0x7e>
10003a9e:	4b10      	ldr	r3, [pc, #64]	; (10003ae0 <__aeabi_double_init+0xac>)
10003aa0:	881a      	ldrh	r2, [r3, #0]
10003aa2:	4b10      	ldr	r3, [pc, #64]	; (10003ae4 <__aeabi_double_init+0xb0>)
10003aa4:	429a      	cmp	r2, r3
10003aa6:	d104      	bne.n	10003ab2 <__aeabi_double_init+0x7e>
10003aa8:	4b0f      	ldr	r3, [pc, #60]	; (10003ae8 <__aeabi_double_init+0xb4>)
10003aaa:	881a      	ldrh	r2, [r3, #0]
10003aac:	4b0f      	ldr	r3, [pc, #60]	; (10003aec <__aeabi_double_init+0xb8>)
10003aae:	429a      	cmp	r2, r3
10003ab0:	d0c7      	beq.n	10003a42 <__aeabi_double_init+0xe>
10003ab2:	2000      	movs	r0, #0
10003ab4:	f7fe fb7a 	bl	100021ac <panic>
10003ab8:	4b0d      	ldr	r3, [pc, #52]	; (10003af0 <__aeabi_double_init+0xbc>)
10003aba:	4a0e      	ldr	r2, [pc, #56]	; (10003af4 <__aeabi_double_init+0xc0>)
10003abc:	2132      	movs	r1, #50	; 0x32
10003abe:	480e      	ldr	r0, [pc, #56]	; (10003af8 <__aeabi_double_init+0xc4>)
10003ac0:	f7fe fada 	bl	10002078 <__assert_func>
10003ac4:	10003afd 	.word	0x10003afd
10003ac8:	20000ed4 	.word	0x20000ed4
10003acc:	0000334c 	.word	0x0000334c
10003ad0:	20000fd4 	.word	0x20000fd4
10003ad4:	00004453 	.word	0x00004453
10003ad8:	00004653 	.word	0x00004653
10003adc:	00003854 	.word	0x00003854
10003ae0:	000038d8 	.word	0x000038d8
10003ae4:	00004649 	.word	0x00004649
10003ae8:	0000389c 	.word	0x0000389c
10003aec:	00004659 	.word	0x00004659
10003af0:	100080c0 	.word	0x100080c0
10003af4:	10008160 	.word	0x10008160
10003af8:	10008120 	.word	0x10008120

10003afc <double_table_shim_on_use_helper>:
10003afc:	b507      	push	{r0, r1, r2, lr}
10003afe:	4660      	mov	r0, ip
10003b00:	2800      	cmp	r0, #0
10003b02:	d100      	bne.n	10003b06 <double_table_shim_on_use_helper+0xa>
10003b04:	be00      	bkpt	0x0000
10003b06:	8801      	ldrh	r1, [r0, #0]
10003b08:	0a0a      	lsrs	r2, r1, #8
10003b0a:	3002      	adds	r0, #2
10003b0c:	2adf      	cmp	r2, #223	; 0xdf
10003b0e:	d1fa      	bne.n	10003b06 <double_table_shim_on_use_helper+0xa>
10003b10:	b2c9      	uxtb	r1, r1
10003b12:	0882      	lsrs	r2, r0, #2
10003b14:	d304      	bcc.n	10003b20 <double_table_shim_on_use_helper+0x24>
10003b16:	8802      	ldrh	r2, [r0, #0]
10003b18:	8840      	ldrh	r0, [r0, #2]
10003b1a:	0400      	lsls	r0, r0, #16
10003b1c:	4310      	orrs	r0, r2
10003b1e:	e000      	b.n	10003b22 <double_table_shim_on_use_helper+0x26>
10003b20:	6800      	ldr	r0, [r0, #0]
10003b22:	4a02      	ldr	r2, [pc, #8]	; (10003b2c <double_table_shim_on_use_helper+0x30>)
10003b24:	5050      	str	r0, [r2, r1]
10003b26:	9003      	str	r0, [sp, #12]
10003b28:	bd07      	pop	{r0, r1, r2, pc}
10003b2a:	0000      	.short	0x0000
10003b2c:	20000ed4 	.word	0x20000ed4

10003b30 <drsub_shim>:
10003b30:	b40f      	push	{r0, r1, r2, r3}
10003b32:	bc03      	pop	{r0, r1}
10003b34:	bc0c      	pop	{r2, r3}

10003b36 <dsub_shim>:
10003b36:	b5f0      	push	{r4, r5, r6, r7, lr}
10003b38:	2401      	movs	r4, #1
10003b3a:	07e4      	lsls	r4, r4, #31
10003b3c:	4063      	eors	r3, r4
10003b3e:	e000      	b.n	10003b42 <da_entry>

10003b40 <dadd_shim>:
10003b40:	b5f0      	push	{r4, r5, r6, r7, lr}

10003b42 <da_entry>:
10003b42:	0d0c      	lsrs	r4, r1, #20
10003b44:	0fcf      	lsrs	r7, r1, #31
10003b46:	1e66      	subs	r6, r4, #1
10003b48:	0536      	lsls	r6, r6, #20
10003b4a:	1b89      	subs	r1, r1, r6
10003b4c:	0564      	lsls	r4, r4, #21
10003b4e:	d303      	bcc.n	10003b58 <l7_1>
10003b50:	43c9      	mvns	r1, r1
10003b52:	4240      	negs	r0, r0
10003b54:	d300      	bcc.n	10003b58 <l7_1>
10003b56:	3101      	adds	r1, #1

10003b58 <l7_1>:
10003b58:	0d64      	lsrs	r4, r4, #21
10003b5a:	d003      	beq.n	10003b64 <l7_2>
10003b5c:	1c66      	adds	r6, r4, #1
10003b5e:	0af6      	lsrs	r6, r6, #11
10003b60:	d007      	beq.n	10003b72 <l7_3>
10003b62:	1be4      	subs	r4, r4, r7

10003b64 <l7_2>:
10003b64:	2000      	movs	r0, #0
10003b66:	007f      	lsls	r7, r7, #1
10003b68:	1c79      	adds	r1, r7, #1
10003b6a:	0789      	lsls	r1, r1, #30
10003b6c:	1289      	asrs	r1, r1, #10
10003b6e:	3c80      	subs	r4, #128	; 0x80
10003b70:	0324      	lsls	r4, r4, #12

10003b72 <l7_3>:
10003b72:	0d1d      	lsrs	r5, r3, #20
10003b74:	0fdf      	lsrs	r7, r3, #31
10003b76:	1e6e      	subs	r6, r5, #1
10003b78:	0536      	lsls	r6, r6, #20
10003b7a:	1b9b      	subs	r3, r3, r6
10003b7c:	056d      	lsls	r5, r5, #21
10003b7e:	d303      	bcc.n	10003b88 <l8_1>
10003b80:	43db      	mvns	r3, r3
10003b82:	4252      	negs	r2, r2
10003b84:	d300      	bcc.n	10003b88 <l8_1>
10003b86:	3301      	adds	r3, #1

10003b88 <l8_1>:
10003b88:	0d6d      	lsrs	r5, r5, #21
10003b8a:	d003      	beq.n	10003b94 <l8_2>
10003b8c:	1c6e      	adds	r6, r5, #1
10003b8e:	0af6      	lsrs	r6, r6, #11
10003b90:	d007      	beq.n	10003ba2 <l8_3>
10003b92:	1bed      	subs	r5, r5, r7

10003b94 <l8_2>:
10003b94:	2200      	movs	r2, #0
10003b96:	007f      	lsls	r7, r7, #1
10003b98:	1c7b      	adds	r3, r7, #1
10003b9a:	079b      	lsls	r3, r3, #30
10003b9c:	129b      	asrs	r3, r3, #10
10003b9e:	3d80      	subs	r5, #128	; 0x80
10003ba0:	032d      	lsls	r5, r5, #12

10003ba2 <l8_3>:
10003ba2:	1b2f      	subs	r7, r5, r4
10003ba4:	1b66      	subs	r6, r4, r5
10003ba6:	d458      	bmi.n	10003c5a <da_ygtx>
10003ba8:	46a4      	mov	ip, r4
10003baa:	2e20      	cmp	r6, #32
10003bac:	da46      	bge.n	10003c3c <da_xrgty>
10003bae:	3720      	adds	r7, #32
10003bb0:	0014      	movs	r4, r2
10003bb2:	40bc      	lsls	r4, r7

10003bb4 <da_xgty0>:
10003bb4:	001d      	movs	r5, r3
10003bb6:	40bd      	lsls	r5, r7
10003bb8:	40f2      	lsrs	r2, r6
10003bba:	4133      	asrs	r3, r6
10003bbc:	432a      	orrs	r2, r5

10003bbe <da_add>:
10003bbe:	1880      	adds	r0, r0, r2
10003bc0:	4159      	adcs	r1, r3

10003bc2 <da_pack>:
10003bc2:	0fcb      	lsrs	r3, r1, #31
10003bc4:	d005      	beq.n	10003bd2 <da_pack+0x10>
10003bc6:	43c9      	mvns	r1, r1
10003bc8:	43c0      	mvns	r0, r0
10003bca:	2200      	movs	r2, #0
10003bcc:	4264      	negs	r4, r4
10003bce:	4150      	adcs	r0, r2
10003bd0:	4151      	adcs	r1, r2
10003bd2:	4662      	mov	r2, ip
10003bd4:	0d4d      	lsrs	r5, r1, #21
10003bd6:	d128      	bne.n	10003c2a <da_0>
10003bd8:	0d0d      	lsrs	r5, r1, #20
10003bda:	d107      	bne.n	10003bec <da_1>
10003bdc:	2800      	cmp	r0, #0
10003bde:	d01f      	beq.n	10003c20 <da_5>

10003be0 <da_2>:
10003be0:	1924      	adds	r4, r4, r4
10003be2:	4140      	adcs	r0, r0
10003be4:	4149      	adcs	r1, r1
10003be6:	3a01      	subs	r2, #1
10003be8:	0d0d      	lsrs	r5, r1, #20
10003bea:	d0f9      	beq.n	10003be0 <da_2>

10003bec <da_1>:
10003bec:	0064      	lsls	r4, r4, #1
10003bee:	d306      	bcc.n	10003bfe <da_3>

10003bf0 <da_4>:
10003bf0:	3001      	adds	r0, #1
10003bf2:	d300      	bcc.n	10003bf6 <da_4+0x6>
10003bf4:	3101      	adds	r1, #1
10003bf6:	2c00      	cmp	r4, #0
10003bf8:	d101      	bne.n	10003bfe <da_3>
10003bfa:	0840      	lsrs	r0, r0, #1
10003bfc:	0040      	lsls	r0, r0, #1

10003bfe <da_3>:
10003bfe:	3a01      	subs	r2, #1
10003c00:	d40b      	bmi.n	10003c1a <da_6>
10003c02:	1c94      	adds	r4, r2, #2
10003c04:	0ae4      	lsrs	r4, r4, #11
10003c06:	d104      	bne.n	10003c12 <da_7>
10003c08:	0512      	lsls	r2, r2, #20
10003c0a:	4411      	add	r1, r2
10003c0c:	07db      	lsls	r3, r3, #31
10003c0e:	4419      	add	r1, r3
10003c10:	bdf0      	pop	{r4, r5, r6, r7, pc}

10003c12 <da_7>:
10003c12:	07d9      	lsls	r1, r3, #31
10003c14:	4b20      	ldr	r3, [pc, #128]	; (10003c98 <da_xmgty+0x4>)
10003c16:	4319      	orrs	r1, r3
10003c18:	e000      	b.n	10003c1c <da_6+0x2>

10003c1a <da_6>:
10003c1a:	07d9      	lsls	r1, r3, #31
10003c1c:	2000      	movs	r0, #0
10003c1e:	bdf0      	pop	{r4, r5, r6, r7, pc}

10003c20 <da_5>:
10003c20:	2900      	cmp	r1, #0
10003c22:	d1dd      	bne.n	10003be0 <da_2>
10003c24:	2c00      	cmp	r4, #0
10003c26:	d1db      	bne.n	10003be0 <da_2>
10003c28:	bdf0      	pop	{r4, r5, r6, r7, pc}

10003c2a <da_0>:
10003c2a:	3201      	adds	r2, #1
10003c2c:	07c6      	lsls	r6, r0, #31
10003c2e:	0840      	lsrs	r0, r0, #1
10003c30:	07cd      	lsls	r5, r1, #31
10003c32:	4328      	orrs	r0, r5
10003c34:	0849      	lsrs	r1, r1, #1
10003c36:	2e00      	cmp	r6, #0
10003c38:	d0e1      	beq.n	10003bfe <da_3>
10003c3a:	e7d9      	b.n	10003bf0 <da_4>

10003c3c <da_xrgty>:
10003c3c:	2e3c      	cmp	r6, #60	; 0x3c
10003c3e:	da29      	bge.n	10003c94 <da_xmgty>
10003c40:	3e20      	subs	r6, #32
10003c42:	3740      	adds	r7, #64	; 0x40
10003c44:	0014      	movs	r4, r2
10003c46:	40bc      	lsls	r4, r7
10003c48:	d000      	beq.n	10003c4c <da_xrgty+0x10>
10003c4a:	2401      	movs	r4, #1
10003c4c:	40f2      	lsrs	r2, r6
10003c4e:	4314      	orrs	r4, r2
10003c50:	001a      	movs	r2, r3
10003c52:	40bb      	lsls	r3, r7
10003c54:	431c      	orrs	r4, r3
10003c56:	17d3      	asrs	r3, r2, #31
10003c58:	e7ac      	b.n	10003bb4 <da_xgty0>

10003c5a <da_ygtx>:
10003c5a:	46ac      	mov	ip, r5
10003c5c:	2f20      	cmp	r7, #32
10003c5e:	da08      	bge.n	10003c72 <da_yrgtx>
10003c60:	3620      	adds	r6, #32
10003c62:	0004      	movs	r4, r0
10003c64:	40b4      	lsls	r4, r6

10003c66 <da_ygtx0>:
10003c66:	000d      	movs	r5, r1
10003c68:	40b5      	lsls	r5, r6
10003c6a:	40f8      	lsrs	r0, r7
10003c6c:	4139      	asrs	r1, r7
10003c6e:	4328      	orrs	r0, r5
10003c70:	e7a5      	b.n	10003bbe <da_add>

10003c72 <da_yrgtx>:
10003c72:	2f3c      	cmp	r7, #60	; 0x3c
10003c74:	da0c      	bge.n	10003c90 <da_ymgtx>
10003c76:	3f20      	subs	r7, #32
10003c78:	3640      	adds	r6, #64	; 0x40
10003c7a:	0004      	movs	r4, r0
10003c7c:	40b4      	lsls	r4, r6
10003c7e:	d000      	beq.n	10003c82 <da_yrgtx+0x10>
10003c80:	2401      	movs	r4, #1
10003c82:	40f8      	lsrs	r0, r7
10003c84:	4304      	orrs	r4, r0
10003c86:	0008      	movs	r0, r1
10003c88:	40b1      	lsls	r1, r6
10003c8a:	430c      	orrs	r4, r1
10003c8c:	17c1      	asrs	r1, r0, #31
10003c8e:	e7ea      	b.n	10003c66 <da_ygtx0>

10003c90 <da_ymgtx>:
10003c90:	0010      	movs	r0, r2
10003c92:	0019      	movs	r1, r3

10003c94 <da_xmgty>:
10003c94:	2400      	movs	r4, #0
10003c96:	e794      	b.n	10003bc2 <da_pack>
10003c98:	7ff00000 	.word	0x7ff00000

10003c9c <dmul_shim>:
10003c9c:	b5f0      	push	{r4, r5, r6, r7, lr}
10003c9e:	0d0c      	lsrs	r4, r1, #20
10003ca0:	1e66      	subs	r6, r4, #1
10003ca2:	0536      	lsls	r6, r6, #20
10003ca4:	1b89      	subs	r1, r1, r6
10003ca6:	0ae6      	lsrs	r6, r4, #11
10003ca8:	0564      	lsls	r4, r4, #21
10003caa:	0d64      	lsrs	r4, r4, #21
10003cac:	d002      	beq.n	10003cb4 <l11_1>
10003cae:	1c65      	adds	r5, r4, #1
10003cb0:	0aed      	lsrs	r5, r5, #11
10003cb2:	d004      	beq.n	10003cbe <l11_2>

10003cb4 <l11_1>:
10003cb4:	2000      	movs	r0, #0
10003cb6:	2101      	movs	r1, #1
10003cb8:	0509      	lsls	r1, r1, #20
10003cba:	3c80      	subs	r4, #128	; 0x80
10003cbc:	0324      	lsls	r4, r4, #12

10003cbe <l11_2>:
10003cbe:	46a4      	mov	ip, r4
10003cc0:	0d1c      	lsrs	r4, r3, #20
10003cc2:	1e67      	subs	r7, r4, #1
10003cc4:	053f      	lsls	r7, r7, #20
10003cc6:	1bdb      	subs	r3, r3, r7
10003cc8:	0ae7      	lsrs	r7, r4, #11
10003cca:	0564      	lsls	r4, r4, #21
10003ccc:	0d64      	lsrs	r4, r4, #21
10003cce:	d002      	beq.n	10003cd6 <l12_1>
10003cd0:	1c65      	adds	r5, r4, #1
10003cd2:	0aed      	lsrs	r5, r5, #11
10003cd4:	d004      	beq.n	10003ce0 <l12_2>

10003cd6 <l12_1>:
10003cd6:	2200      	movs	r2, #0
10003cd8:	2301      	movs	r3, #1
10003cda:	051b      	lsls	r3, r3, #20
10003cdc:	3c80      	subs	r4, #128	; 0x80
10003cde:	0324      	lsls	r4, r4, #12

10003ce0 <l12_2>:
10003ce0:	4077      	eors	r7, r6
10003ce2:	4464      	add	r4, ip
10003ce4:	b497      	push	{r0, r1, r2, r4, r7}
10003ce6:	b284      	uxth	r4, r0
10003ce8:	b296      	uxth	r6, r2
10003cea:	4374      	muls	r4, r6
10003cec:	0c07      	lsrs	r7, r0, #16
10003cee:	437e      	muls	r6, r7
10003cf0:	0c15      	lsrs	r5, r2, #16
10003cf2:	436f      	muls	r7, r5
10003cf4:	b280      	uxth	r0, r0
10003cf6:	4368      	muls	r0, r5
10003cf8:	1836      	adds	r6, r6, r0
10003cfa:	d302      	bcc.n	10003d02 <l13_1>
10003cfc:	2001      	movs	r0, #1
10003cfe:	0400      	lsls	r0, r0, #16
10003d00:	183f      	adds	r7, r7, r0

10003d02 <l13_1>:
10003d02:	0430      	lsls	r0, r6, #16
10003d04:	0c35      	lsrs	r5, r6, #16
10003d06:	1900      	adds	r0, r0, r4
10003d08:	417d      	adcs	r5, r7
10003d0a:	4684      	mov	ip, r0
10003d0c:	b288      	uxth	r0, r1
10003d0e:	b29a      	uxth	r2, r3
10003d10:	4350      	muls	r0, r2
10003d12:	0c0c      	lsrs	r4, r1, #16
10003d14:	4362      	muls	r2, r4
10003d16:	0c1f      	lsrs	r7, r3, #16
10003d18:	437c      	muls	r4, r7
10003d1a:	b28e      	uxth	r6, r1
10003d1c:	437e      	muls	r6, r7
10003d1e:	1992      	adds	r2, r2, r6
10003d20:	d302      	bcc.n	10003d28 <l14_1>
10003d22:	2601      	movs	r6, #1
10003d24:	0436      	lsls	r6, r6, #16
10003d26:	19a4      	adds	r4, r4, r6

10003d28 <l14_1>:
10003d28:	0416      	lsls	r6, r2, #16
10003d2a:	0c17      	lsrs	r7, r2, #16
10003d2c:	1836      	adds	r6, r6, r0
10003d2e:	4167      	adcs	r7, r4
10003d30:	bc01      	pop	{r0}
10003d32:	b281      	uxth	r1, r0
10003d34:	b29a      	uxth	r2, r3
10003d36:	4351      	muls	r1, r2
10003d38:	0c04      	lsrs	r4, r0, #16
10003d3a:	4362      	muls	r2, r4
10003d3c:	0c1b      	lsrs	r3, r3, #16
10003d3e:	435c      	muls	r4, r3
10003d40:	b280      	uxth	r0, r0
10003d42:	4358      	muls	r0, r3
10003d44:	1812      	adds	r2, r2, r0
10003d46:	d302      	bcc.n	10003d4e <l15_1>
10003d48:	2001      	movs	r0, #1
10003d4a:	0400      	lsls	r0, r0, #16
10003d4c:	1824      	adds	r4, r4, r0

10003d4e <l15_1>:
10003d4e:	0410      	lsls	r0, r2, #16
10003d50:	0c13      	lsrs	r3, r2, #16
10003d52:	1840      	adds	r0, r0, r1
10003d54:	4163      	adcs	r3, r4
10003d56:	182d      	adds	r5, r5, r0
10003d58:	415e      	adcs	r6, r3
10003d5a:	2000      	movs	r0, #0
10003d5c:	4147      	adcs	r7, r0
10003d5e:	bc06      	pop	{r1, r2}
10003d60:	b288      	uxth	r0, r1
10003d62:	b293      	uxth	r3, r2
10003d64:	4358      	muls	r0, r3
10003d66:	0c0c      	lsrs	r4, r1, #16
10003d68:	4363      	muls	r3, r4
10003d6a:	0c12      	lsrs	r2, r2, #16
10003d6c:	4354      	muls	r4, r2
10003d6e:	b289      	uxth	r1, r1
10003d70:	4351      	muls	r1, r2
10003d72:	185b      	adds	r3, r3, r1
10003d74:	d302      	bcc.n	10003d7c <l16_1>
10003d76:	2101      	movs	r1, #1
10003d78:	0409      	lsls	r1, r1, #16
10003d7a:	1864      	adds	r4, r4, r1

10003d7c <l16_1>:
10003d7c:	0419      	lsls	r1, r3, #16
10003d7e:	0c1a      	lsrs	r2, r3, #16
10003d80:	1809      	adds	r1, r1, r0
10003d82:	4162      	adcs	r2, r4
10003d84:	186d      	adds	r5, r5, r1
10003d86:	4156      	adcs	r6, r2
10003d88:	2000      	movs	r0, #0
10003d8a:	4147      	adcs	r7, r0
10003d8c:	bc18      	pop	{r3, r4}
10003d8e:	02f9      	lsls	r1, r7, #11
10003d90:	0d72      	lsrs	r2, r6, #21
10003d92:	4311      	orrs	r1, r2
10003d94:	02f0      	lsls	r0, r6, #11
10003d96:	0d6a      	lsrs	r2, r5, #21
10003d98:	4310      	orrs	r0, r2
10003d9a:	02ed      	lsls	r5, r5, #11
10003d9c:	0d0a      	lsrs	r2, r1, #20
10003d9e:	d103      	bne.n	10003da8 <l16_1+0x2c>
10003da0:	196d      	adds	r5, r5, r5
10003da2:	4140      	adcs	r0, r0
10003da4:	4149      	adcs	r1, r1
10003da6:	3b01      	subs	r3, #1
10003da8:	4e12      	ldr	r6, [pc, #72]	; (10003df4 <dm_1+0xa>)
10003daa:	1b9b      	subs	r3, r3, r6
10003dac:	0076      	lsls	r6, r6, #1
10003dae:	42b3      	cmp	r3, r6
10003db0:	d20e      	bcs.n	10003dd0 <dm_0>
10003db2:	006d      	lsls	r5, r5, #1
10003db4:	d307      	bcc.n	10003dc6 <l16_1+0x4a>
10003db6:	3001      	adds	r0, #1
10003db8:	2600      	movs	r6, #0
10003dba:	4171      	adcs	r1, r6
10003dbc:	4666      	mov	r6, ip
10003dbe:	4335      	orrs	r5, r6
10003dc0:	d101      	bne.n	10003dc6 <l16_1+0x4a>
10003dc2:	0840      	lsrs	r0, r0, #1
10003dc4:	0040      	lsls	r0, r0, #1
10003dc6:	051b      	lsls	r3, r3, #20
10003dc8:	18c9      	adds	r1, r1, r3

10003dca <dm_2>:
10003dca:	07e4      	lsls	r4, r4, #31
10003dcc:	4421      	add	r1, r4
10003dce:	bdf0      	pop	{r4, r5, r6, r7, pc}

10003dd0 <dm_0>:
10003dd0:	da0b      	bge.n	10003dea <dm_1>
10003dd2:	3301      	adds	r3, #1
10003dd4:	d106      	bne.n	10003de4 <dm_0+0x14>
10003dd6:	3001      	adds	r0, #1
10003dd8:	d104      	bne.n	10003de4 <dm_0+0x14>
10003dda:	3101      	adds	r1, #1
10003ddc:	0d4f      	lsrs	r7, r1, #21
10003dde:	d001      	beq.n	10003de4 <dm_0+0x14>
10003de0:	0849      	lsrs	r1, r1, #1
10003de2:	e7f2      	b.n	10003dca <dm_2>
10003de4:	07e1      	lsls	r1, r4, #31
10003de6:	2000      	movs	r0, #0
10003de8:	bdf0      	pop	{r4, r5, r6, r7, pc}

10003dea <dm_1>:
10003dea:	3601      	adds	r6, #1
10003dec:	0531      	lsls	r1, r6, #20
10003dee:	2000      	movs	r0, #0
10003df0:	e7eb      	b.n	10003dca <dm_2>
10003df2:	0000      	.short	0x0000
10003df4:	000003ff 	.word	0x000003ff

10003df8 <ddiv_shim>:
10003df8:	b5f0      	push	{r4, r5, r6, r7, lr}

10003dfa <ddiv0>:
10003dfa:	0d1c      	lsrs	r4, r3, #20
10003dfc:	1e67      	subs	r7, r4, #1
10003dfe:	053f      	lsls	r7, r7, #20
10003e00:	1bdb      	subs	r3, r3, r7
10003e02:	0ae7      	lsrs	r7, r4, #11
10003e04:	0564      	lsls	r4, r4, #21
10003e06:	0d64      	lsrs	r4, r4, #21
10003e08:	d002      	beq.n	10003e10 <l19_1>
10003e0a:	1c66      	adds	r6, r4, #1
10003e0c:	0af6      	lsrs	r6, r6, #11
10003e0e:	d004      	beq.n	10003e1a <l19_2>

10003e10 <l19_1>:
10003e10:	2200      	movs	r2, #0
10003e12:	2301      	movs	r3, #1
10003e14:	051b      	lsls	r3, r3, #20
10003e16:	3c80      	subs	r4, #128	; 0x80
10003e18:	0324      	lsls	r4, r4, #12

10003e1a <l19_2>:
10003e1a:	25d0      	movs	r5, #208	; 0xd0
10003e1c:	062d      	lsls	r5, r5, #24
10003e1e:	2600      	movs	r6, #0
10003e20:	43f6      	mvns	r6, r6
10003e22:	662e      	str	r6, [r5, #96]	; 0x60
10003e24:	091e      	lsrs	r6, r3, #4
10003e26:	666e      	str	r6, [r5, #100]	; 0x64
10003e28:	0fce      	lsrs	r6, r1, #31
10003e2a:	19f6      	adds	r6, r6, r7
10003e2c:	46b4      	mov	ip, r6
10003e2e:	0049      	lsls	r1, r1, #1
10003e30:	0d4f      	lsrs	r7, r1, #21
10003e32:	d002      	beq.n	10003e3a <l19_2+0x20>
10003e34:	1c7e      	adds	r6, r7, #1
10003e36:	0af6      	lsrs	r6, r6, #11
10003e38:	d003      	beq.n	10003e42 <l19_2+0x28>
10003e3a:	2000      	movs	r0, #0
10003e3c:	2100      	movs	r1, #0
10003e3e:	3f40      	subs	r7, #64	; 0x40
10003e40:	033f      	lsls	r7, r7, #12
10003e42:	1b3e      	subs	r6, r7, r4
10003e44:	00b6      	lsls	r6, r6, #2
10003e46:	44b4      	add	ip, r6
10003e48:	3f01      	subs	r7, #1
10003e4a:	057f      	lsls	r7, r7, #21
10003e4c:	1bc9      	subs	r1, r1, r7
10003e4e:	0849      	lsrs	r1, r1, #1
10003e50:	6f2e      	ldr	r6, [r5, #112]	; 0x70
10003e52:	3601      	adds	r6, #1
10003e54:	0876      	lsrs	r6, r6, #1
10003e56:	029c      	lsls	r4, r3, #10
10003e58:	0d95      	lsrs	r5, r2, #22
10003e5a:	4325      	orrs	r5, r4
10003e5c:	4375      	muls	r5, r6
10003e5e:	13ed      	asrs	r5, r5, #15
10003e60:	4375      	muls	r5, r6
10003e62:	13ad      	asrs	r5, r5, #14
10003e64:	3501      	adds	r5, #1
10003e66:	106d      	asrs	r5, r5, #1
10003e68:	03f6      	lsls	r6, r6, #15
10003e6a:	1b76      	subs	r6, r6, r5
10003e6c:	b40c      	push	{r2, r3}
10003e6e:	02cc      	lsls	r4, r1, #11
10003e70:	0d45      	lsrs	r5, r0, #21
10003e72:	432c      	orrs	r4, r5
10003e74:	b2a2      	uxth	r2, r4
10003e76:	b2b3      	uxth	r3, r6
10003e78:	435a      	muls	r2, r3
10003e7a:	0c27      	lsrs	r7, r4, #16
10003e7c:	437b      	muls	r3, r7
10003e7e:	0c35      	lsrs	r5, r6, #16
10003e80:	436f      	muls	r7, r5
10003e82:	b2a4      	uxth	r4, r4
10003e84:	436c      	muls	r4, r5
10003e86:	191b      	adds	r3, r3, r4
10003e88:	d302      	bcc.n	10003e90 <l20_1>
10003e8a:	2401      	movs	r4, #1
10003e8c:	0424      	lsls	r4, r4, #16
10003e8e:	193f      	adds	r7, r7, r4

10003e90 <l20_1>:
10003e90:	041c      	lsls	r4, r3, #16
10003e92:	0c1d      	lsrs	r5, r3, #16
10003e94:	18a4      	adds	r4, r4, r2
10003e96:	417d      	adcs	r5, r7
10003e98:	1924      	adds	r4, r4, r4
10003e9a:	416d      	adcs	r5, r5
10003e9c:	9a00      	ldr	r2, [sp, #0]
10003e9e:	b291      	uxth	r1, r2
10003ea0:	b2ac      	uxth	r4, r5
10003ea2:	4361      	muls	r1, r4
10003ea4:	0c17      	lsrs	r7, r2, #16
10003ea6:	437c      	muls	r4, r7
10003ea8:	0c2b      	lsrs	r3, r5, #16
10003eaa:	435f      	muls	r7, r3
10003eac:	b292      	uxth	r2, r2
10003eae:	435a      	muls	r2, r3
10003eb0:	18a4      	adds	r4, r4, r2
10003eb2:	d302      	bcc.n	10003eba <l21_1>
10003eb4:	2201      	movs	r2, #1
10003eb6:	0412      	lsls	r2, r2, #16
10003eb8:	18bf      	adds	r7, r7, r2

10003eba <l21_1>:
10003eba:	0422      	lsls	r2, r4, #16
10003ebc:	0c23      	lsrs	r3, r4, #16
10003ebe:	1852      	adds	r2, r2, r1
10003ec0:	417b      	adcs	r3, r7
10003ec2:	9c01      	ldr	r4, [sp, #4]
10003ec4:	436c      	muls	r4, r5
10003ec6:	191b      	adds	r3, r3, r4
10003ec8:	0e52      	lsrs	r2, r2, #25
10003eca:	01d9      	lsls	r1, r3, #7
10003ecc:	430a      	orrs	r2, r1
10003ece:	0144      	lsls	r4, r0, #5
10003ed0:	1aa0      	subs	r0, r4, r2
10003ed2:	b281      	uxth	r1, r0
10003ed4:	b2b2      	uxth	r2, r6
10003ed6:	4351      	muls	r1, r2
10003ed8:	1403      	asrs	r3, r0, #16
10003eda:	435a      	muls	r2, r3
10003edc:	0c36      	lsrs	r6, r6, #16
10003ede:	4373      	muls	r3, r6
10003ee0:	b287      	uxth	r7, r0
10003ee2:	4377      	muls	r7, r6
10003ee4:	17d6      	asrs	r6, r2, #31
10003ee6:	19d2      	adds	r2, r2, r7
10003ee8:	2700      	movs	r7, #0
10003eea:	417e      	adcs	r6, r7
10003eec:	0436      	lsls	r6, r6, #16
10003eee:	199b      	adds	r3, r3, r6
10003ef0:	0417      	lsls	r7, r2, #16
10003ef2:	0c16      	lsrs	r6, r2, #16
10003ef4:	187f      	adds	r7, r7, r1
10003ef6:	415e      	adcs	r6, r3
10003ef8:	1673      	asrs	r3, r6, #25
10003efa:	18ed      	adds	r5, r5, r3
10003efc:	01f3      	lsls	r3, r6, #7
10003efe:	2600      	movs	r6, #0
10003f00:	3380      	adds	r3, #128	; 0x80
10003f02:	4175      	adcs	r5, r6
10003f04:	0fa9      	lsrs	r1, r5, #30
10003f06:	d106      	bne.n	10003f16 <dd_0>
10003f08:	0064      	lsls	r4, r4, #1
10003f0a:	0a69      	lsrs	r1, r5, #9
10003f0c:	05e8      	lsls	r0, r5, #23
10003f0e:	0a5b      	lsrs	r3, r3, #9
10003f10:	4318      	orrs	r0, r3
10003f12:	d209      	bcs.n	10003f28 <dd_1>
10003f14:	e02f      	b.n	10003f76 <dd_2>

10003f16 <dd_0>:
10003f16:	2204      	movs	r2, #4
10003f18:	4494      	add	ip, r2
10003f1a:	3380      	adds	r3, #128	; 0x80
10003f1c:	4175      	adcs	r5, r6
10003f1e:	0aa9      	lsrs	r1, r5, #10
10003f20:	05a8      	lsls	r0, r5, #22
10003f22:	0a9b      	lsrs	r3, r3, #10
10003f24:	4318      	orrs	r0, r3
10003f26:	d326      	bcc.n	10003f76 <dd_2>

10003f28 <dd_1>:
10003f28:	4140      	adcs	r0, r0
10003f2a:	4149      	adcs	r1, r1
10003f2c:	0424      	lsls	r4, r4, #16
10003f2e:	9a00      	ldr	r2, [sp, #0]
10003f30:	9b01      	ldr	r3, [sp, #4]
10003f32:	000d      	movs	r5, r1
10003f34:	4355      	muls	r5, r2
10003f36:	1b64      	subs	r4, r4, r5
10003f38:	4343      	muls	r3, r0
10003f3a:	1ae4      	subs	r4, r4, r3
10003f3c:	b295      	uxth	r5, r2
10003f3e:	b286      	uxth	r6, r0
10003f40:	4375      	muls	r5, r6
10003f42:	0c17      	lsrs	r7, r2, #16
10003f44:	437e      	muls	r6, r7
10003f46:	0c03      	lsrs	r3, r0, #16
10003f48:	435f      	muls	r7, r3
10003f4a:	b292      	uxth	r2, r2
10003f4c:	435a      	muls	r2, r3
10003f4e:	18b6      	adds	r6, r6, r2
10003f50:	d302      	bcc.n	10003f58 <l23_1>
10003f52:	2201      	movs	r2, #1
10003f54:	0412      	lsls	r2, r2, #16
10003f56:	18bf      	adds	r7, r7, r2

10003f58 <l23_1>:
10003f58:	0432      	lsls	r2, r6, #16
10003f5a:	0c33      	lsrs	r3, r6, #16
10003f5c:	1952      	adds	r2, r2, r5
10003f5e:	417b      	adcs	r3, r7
10003f60:	4252      	negs	r2, r2
10003f62:	419c      	sbcs	r4, r3
10003f64:	2c00      	cmp	r4, #0
10003f66:	d402      	bmi.n	10003f6e <l23_1+0x16>
10003f68:	2200      	movs	r2, #0
10003f6a:	3001      	adds	r0, #1
10003f6c:	4151      	adcs	r1, r2
10003f6e:	0840      	lsrs	r0, r0, #1
10003f70:	07ca      	lsls	r2, r1, #31
10003f72:	4310      	orrs	r0, r2
10003f74:	0849      	lsrs	r1, r1, #1

10003f76 <dd_2>:
10003f76:	b002      	add	sp, #8
10003f78:	4662      	mov	r2, ip
10003f7a:	07d7      	lsls	r7, r2, #31
10003f7c:	1092      	asrs	r2, r2, #2
10003f7e:	4b08      	ldr	r3, [pc, #32]	; (10003fa0 <dd_4+0x6>)
10003f80:	18d2      	adds	r2, r2, r3
10003f82:	4b08      	ldr	r3, [pc, #32]	; (10003fa4 <dd_4+0xa>)
10003f84:	429a      	cmp	r2, r3
10003f86:	d203      	bcs.n	10003f90 <dd_3>
10003f88:	0512      	lsls	r2, r2, #20
10003f8a:	1889      	adds	r1, r1, r2

10003f8c <dd_5>:
10003f8c:	19c9      	adds	r1, r1, r7
10003f8e:	bdf0      	pop	{r4, r5, r6, r7, pc}

10003f90 <dd_3>:
10003f90:	2000      	movs	r0, #0
10003f92:	2a00      	cmp	r2, #0
10003f94:	dc01      	bgt.n	10003f9a <dd_4>
10003f96:	0039      	movs	r1, r7
10003f98:	bdf0      	pop	{r4, r5, r6, r7, pc}

10003f9a <dd_4>:
10003f9a:	3301      	adds	r3, #1
10003f9c:	0519      	lsls	r1, r3, #20
10003f9e:	e7f5      	b.n	10003f8c <dd_5>
10003fa0:	000003fd 	.word	0x000003fd
10003fa4:	000007fe 	.word	0x000007fe

10003fa8 <double2uint_shim>:
10003fa8:	2200      	movs	r2, #0

10003faa <double2ufix_shim>:
10003faa:	b500      	push	{lr}
10003fac:	3220      	adds	r2, #32
10003fae:	f000 f804 	bl	10003fba <double2ufix64_shim>
10003fb2:	0008      	movs	r0, r1
10003fb4:	bd00      	pop	{pc}
	...

10003fb8 <double2uint64_shim>:
10003fb8:	2200      	movs	r2, #0

10003fba <double2ufix64_shim>:
10003fba:	150b      	asrs	r3, r1, #20
10003fbc:	d40a      	bmi.n	10003fd4 <ret_dzero>

10003fbe <d2fix>:
10003fbe:	b510      	push	{r4, lr}
10003fc0:	4694      	mov	ip, r2
10003fc2:	f000 f85f 	bl	10004084 <dunpacks>
10003fc6:	1414      	asrs	r4, r2, #16
10003fc8:	3401      	adds	r4, #1
10003fca:	da00      	bge.n	10003fce <d2fix+0x10>
10003fcc:	2100      	movs	r1, #0
10003fce:	17cb      	asrs	r3, r1, #31
10003fd0:	4c14      	ldr	r4, [pc, #80]	; (10004024 <d2fix_a+0x4a>)
10003fd2:	4720      	bx	r4

10003fd4 <ret_dzero>:
10003fd4:	2000      	movs	r0, #0
10003fd6:	2100      	movs	r1, #0
10003fd8:	4770      	bx	lr

10003fda <d2fix_a>:
10003fda:	4462      	add	r2, ip
10003fdc:	3a34      	subs	r2, #52	; 0x34
10003fde:	d40c      	bmi.n	10003ffa <d2fix_a+0x20>
10003fe0:	2a0c      	cmp	r2, #12
10003fe2:	da07      	bge.n	10003ff4 <d2fix_a+0x1a>
10003fe4:	0004      	movs	r4, r0
10003fe6:	4091      	lsls	r1, r2
10003fe8:	4090      	lsls	r0, r2
10003fea:	4252      	negs	r2, r2
10003fec:	3220      	adds	r2, #32
10003fee:	40d4      	lsrs	r4, r2
10003ff0:	4321      	orrs	r1, r4
10003ff2:	bd10      	pop	{r4, pc}
10003ff4:	43d8      	mvns	r0, r3
10003ff6:	43d9      	mvns	r1, r3
10003ff8:	bd10      	pop	{r4, pc}
10003ffa:	3220      	adds	r2, #32
10003ffc:	d407      	bmi.n	1000400e <d2fix_a+0x34>
10003ffe:	460c      	mov	r4, r1
10004000:	4094      	lsls	r4, r2
10004002:	4252      	negs	r2, r2
10004004:	3220      	adds	r2, #32
10004006:	4111      	asrs	r1, r2
10004008:	40d0      	lsrs	r0, r2
1000400a:	4320      	orrs	r0, r4
1000400c:	bd10      	pop	{r4, pc}
1000400e:	0008      	movs	r0, r1
10004010:	17c9      	asrs	r1, r1, #31
10004012:	3220      	adds	r2, #32
10004014:	d403      	bmi.n	1000401e <d2fix_a+0x44>
10004016:	4252      	negs	r2, r2
10004018:	3220      	adds	r2, #32
1000401a:	4110      	asrs	r0, r2
1000401c:	bd10      	pop	{r4, pc}
1000401e:	0018      	movs	r0, r3
10004020:	0019      	movs	r1, r3
10004022:	bd10      	pop	{r4, pc}
10004024:	10003fdb 	.word	0x10003fdb

10004028 <double2float_shim>:
10004028:	004a      	lsls	r2, r1, #1
1000402a:	0d52      	lsrs	r2, r2, #21
1000402c:	4b14      	ldr	r3, [pc, #80]	; (10004080 <double2float_shim+0x58>)
1000402e:	1ad2      	subs	r2, r2, r3
10004030:	dd13      	ble.n	1000405a <double2float_shim+0x32>
10004032:	2aff      	cmp	r2, #255	; 0xff
10004034:	da1e      	bge.n	10004074 <double2float_shim+0x4c>
10004036:	05d2      	lsls	r2, r2, #23
10004038:	0fcb      	lsrs	r3, r1, #31
1000403a:	07db      	lsls	r3, r3, #31
1000403c:	431a      	orrs	r2, r3
1000403e:	00c3      	lsls	r3, r0, #3
10004040:	0f40      	lsrs	r0, r0, #29
10004042:	0309      	lsls	r1, r1, #12
10004044:	0a49      	lsrs	r1, r1, #9
10004046:	4308      	orrs	r0, r1
10004048:	4310      	orrs	r0, r2
1000404a:	005b      	lsls	r3, r3, #1
1000404c:	d301      	bcc.n	10004052 <double2float_shim+0x2a>
1000404e:	d001      	beq.n	10004054 <double2float_shim+0x2c>
10004050:	3001      	adds	r0, #1
10004052:	4770      	bx	lr
10004054:	0843      	lsrs	r3, r0, #1
10004056:	d2fb      	bcs.n	10004050 <double2float_shim+0x28>
10004058:	4770      	bx	lr
1000405a:	d002      	beq.n	10004062 <double2float_shim+0x3a>
1000405c:	0fc8      	lsrs	r0, r1, #31
1000405e:	07c0      	lsls	r0, r0, #31
10004060:	4770      	bx	lr
10004062:	030a      	lsls	r2, r1, #12
10004064:	1312      	asrs	r2, r2, #12
10004066:	3201      	adds	r2, #1
10004068:	d1f8      	bne.n	1000405c <double2float_shim+0x34>
1000406a:	0f42      	lsrs	r2, r0, #29
1000406c:	2a07      	cmp	r2, #7
1000406e:	d1f5      	bne.n	1000405c <double2float_shim+0x34>
10004070:	2201      	movs	r2, #1
10004072:	e000      	b.n	10004076 <double2float_shim+0x4e>
10004074:	22ff      	movs	r2, #255	; 0xff
10004076:	0fc8      	lsrs	r0, r1, #31
10004078:	0200      	lsls	r0, r0, #8
1000407a:	1880      	adds	r0, r0, r2
1000407c:	05c0      	lsls	r0, r0, #23
1000407e:	4770      	bx	lr
10004080:	00000380 	.word	0x00000380

10004084 <dunpacks>:
10004084:	0d0a      	lsrs	r2, r1, #20
10004086:	0fcc      	lsrs	r4, r1, #31
10004088:	1e53      	subs	r3, r2, #1
1000408a:	051b      	lsls	r3, r3, #20
1000408c:	1ac9      	subs	r1, r1, r3
1000408e:	0552      	lsls	r2, r2, #21
10004090:	d303      	bcc.n	1000409a <l59_1>
10004092:	43c9      	mvns	r1, r1
10004094:	4240      	negs	r0, r0
10004096:	d300      	bcc.n	1000409a <l59_1>
10004098:	3101      	adds	r1, #1

1000409a <l59_1>:
1000409a:	0d52      	lsrs	r2, r2, #21
1000409c:	d003      	beq.n	100040a6 <l59_2>
1000409e:	1c53      	adds	r3, r2, #1
100040a0:	0adb      	lsrs	r3, r3, #11
100040a2:	d007      	beq.n	100040b4 <l59_3>
100040a4:	1b12      	subs	r2, r2, r4

100040a6 <l59_2>:
100040a6:	2000      	movs	r0, #0
100040a8:	0064      	lsls	r4, r4, #1
100040aa:	1c61      	adds	r1, r4, #1
100040ac:	0789      	lsls	r1, r1, #30
100040ae:	1289      	asrs	r1, r1, #10
100040b0:	3a80      	subs	r2, #128	; 0x80
100040b2:	0312      	lsls	r2, r2, #12

100040b4 <l59_3>:
100040b4:	4b01      	ldr	r3, [pc, #4]	; (100040bc <l59_3+0x8>)
100040b6:	1ad2      	subs	r2, r2, r3
100040b8:	4770      	bx	lr
100040ba:	0000      	.short	0x0000
100040bc:	000003ff 	.word	0x000003ff

100040c0 <__wrap___aeabi_lmul>:
100040c0:	4351      	muls	r1, r2
100040c2:	4343      	muls	r3, r0
100040c4:	18c9      	adds	r1, r1, r3
100040c6:	468c      	mov	ip, r1
100040c8:	0c11      	lsrs	r1, r2, #16
100040ca:	b283      	uxth	r3, r0
100040cc:	434b      	muls	r3, r1
100040ce:	b410      	push	{r4}
100040d0:	0c04      	lsrs	r4, r0, #16
100040d2:	4361      	muls	r1, r4
100040d4:	b292      	uxth	r2, r2
100040d6:	b280      	uxth	r0, r0
100040d8:	4350      	muls	r0, r2
100040da:	4362      	muls	r2, r4
100040dc:	041c      	lsls	r4, r3, #16
100040de:	0c1b      	lsrs	r3, r3, #16
100040e0:	1900      	adds	r0, r0, r4
100040e2:	bc10      	pop	{r4}
100040e4:	4159      	adcs	r1, r3
100040e6:	0413      	lsls	r3, r2, #16
100040e8:	0c12      	lsrs	r2, r2, #16
100040ea:	18c0      	adds	r0, r0, r3
100040ec:	4151      	adcs	r1, r2
100040ee:	4461      	add	r1, ip
100040f0:	4770      	bx	lr
	...

100040f4 <__wrap___aeabi_frsub>:
100040f4:	4048      	eors	r0, r1
100040f6:	4041      	eors	r1, r0
100040f8:	4048      	eors	r0, r1

100040fa <__wrap___aeabi_fsub>:
100040fa:	2300      	movs	r3, #0
100040fc:	469c      	mov	ip, r3
100040fe:	4b11      	ldr	r3, [pc, #68]	; (10004144 <__wrap___aeabi_fmul+0xa>)
10004100:	685b      	ldr	r3, [r3, #4]
10004102:	4718      	bx	r3

10004104 <__wrap___aeabi_fadd>:
10004104:	2300      	movs	r3, #0
10004106:	469c      	mov	ip, r3
10004108:	4b0e      	ldr	r3, [pc, #56]	; (10004144 <__wrap___aeabi_fmul+0xa>)
1000410a:	681b      	ldr	r3, [r3, #0]
1000410c:	4718      	bx	r3

1000410e <__wrap___aeabi_fdiv>:
1000410e:	4a0e      	ldr	r2, [pc, #56]	; (10004148 <__wrap___aeabi_fmul+0xe>)
10004110:	6f93      	ldr	r3, [r2, #120]	; 0x78
10004112:	089b      	lsrs	r3, r3, #2
10004114:	d204      	bcs.n	10004120 <fdiv_save_state>

10004116 <fdiv_shim_call>:
10004116:	2300      	movs	r3, #0
10004118:	469c      	mov	ip, r3
1000411a:	4b0a      	ldr	r3, [pc, #40]	; (10004144 <__wrap___aeabi_fmul+0xa>)
1000411c:	68db      	ldr	r3, [r3, #12]
1000411e:	4718      	bx	r3

10004120 <fdiv_save_state>:
10004120:	b5f0      	push	{r4, r5, r6, r7, lr}
10004122:	6e14      	ldr	r4, [r2, #96]	; 0x60
10004124:	6e55      	ldr	r5, [r2, #100]	; 0x64
10004126:	6f57      	ldr	r7, [r2, #116]	; 0x74
10004128:	6f16      	ldr	r6, [r2, #112]	; 0x70
1000412a:	f7ff fff4 	bl	10004116 <fdiv_shim_call>
1000412e:	4a06      	ldr	r2, [pc, #24]	; (10004148 <__wrap___aeabi_fmul+0xe>)
10004130:	6614      	str	r4, [r2, #96]	; 0x60
10004132:	6655      	str	r5, [r2, #100]	; 0x64
10004134:	6757      	str	r7, [r2, #116]	; 0x74
10004136:	6716      	str	r6, [r2, #112]	; 0x70
10004138:	bdf0      	pop	{r4, r5, r6, r7, pc}

1000413a <__wrap___aeabi_fmul>:
1000413a:	2300      	movs	r3, #0
1000413c:	469c      	mov	ip, r3
1000413e:	4b01      	ldr	r3, [pc, #4]	; (10004144 <__wrap___aeabi_fmul+0xa>)
10004140:	689b      	ldr	r3, [r3, #8]
10004142:	4718      	bx	r3
10004144:	20000fd8 	.word	0x20000fd8
10004148:	d0000000 	.word	0xd0000000

1000414c <__wrap___aeabi_i2f>:
1000414c:	0fc1      	lsrs	r1, r0, #31
1000414e:	07c9      	lsls	r1, r1, #31
10004150:	d500      	bpl.n	10004154 <__wrap___aeabi_i2f+0x8>
10004152:	4240      	negs	r0, r0
10004154:	2800      	cmp	r0, #0
10004156:	d017      	beq.n	10004188 <__aeabi_i2f_main+0x30>

10004158 <__aeabi_i2f_main>:
10004158:	46f4      	mov	ip, lr
1000415a:	b403      	push	{r0, r1}
1000415c:	4b0b      	ldr	r3, [pc, #44]	; (1000418c <__aeabi_i2f_main+0x34>)
1000415e:	681b      	ldr	r3, [r3, #0]
10004160:	4798      	blx	r3
10004162:	bc06      	pop	{r1, r2}
10004164:	4081      	lsls	r1, r0
10004166:	389e      	subs	r0, #158	; 0x9e
10004168:	4240      	negs	r0, r0
1000416a:	3180      	adds	r1, #128	; 0x80
1000416c:	d207      	bcs.n	1000417e <__aeabi_i2f_main+0x26>
1000416e:	060b      	lsls	r3, r1, #24
10004170:	d007      	beq.n	10004182 <__aeabi_i2f_main+0x2a>
10004172:	0049      	lsls	r1, r1, #1
10004174:	0a49      	lsrs	r1, r1, #9
10004176:	05c0      	lsls	r0, r0, #23
10004178:	4310      	orrs	r0, r2
1000417a:	4308      	orrs	r0, r1
1000417c:	4760      	bx	ip
1000417e:	3001      	adds	r0, #1
10004180:	e7f8      	b.n	10004174 <__aeabi_i2f_main+0x1c>
10004182:	0a49      	lsrs	r1, r1, #9
10004184:	0289      	lsls	r1, r1, #10
10004186:	e7f5      	b.n	10004174 <__aeabi_i2f_main+0x1c>
10004188:	4770      	bx	lr
1000418a:	0000      	.short	0x0000
1000418c:	20000fd4 	.word	0x20000fd4

10004190 <__wrap___aeabi_f2d>:
10004190:	4b03      	ldr	r3, [pc, #12]	; (100041a0 <__wrap___aeabi_f2d+0x10>)
10004192:	6fdb      	ldr	r3, [r3, #124]	; 0x7c
10004194:	46fc      	mov	ip, pc
10004196:	4718      	bx	r3
10004198:	42d5df7c 	.word	0x42d5df7c
1000419c:	00001000 	.word	0x00001000
100041a0:	20000fd8 	.word	0x20000fd8

100041a4 <__aeabi_float_init>:
100041a4:	b570      	push	{r4, r5, r6, lr}
100041a6:	2313      	movs	r3, #19
100041a8:	781d      	ldrb	r5, [r3, #0]
100041aa:	482a      	ldr	r0, [pc, #168]	; (10004254 <__aeabi_float_init+0xb0>)
100041ac:	f7ff f8c6 	bl	1000333c <rom_data_lookup>
100041b0:	0004      	movs	r4, r0
100041b2:	2d01      	cmp	r5, #1
100041b4:	d011      	beq.n	100041da <__aeabi_float_init+0x36>
100041b6:	2d01      	cmp	r5, #1
100041b8:	dd09      	ble.n	100041ce <__aeabi_float_init+0x2a>
100041ba:	1ea3      	subs	r3, r4, #2
100041bc:	781b      	ldrb	r3, [r3, #0]
100041be:	009b      	lsls	r3, r3, #2
100041c0:	2b7f      	cmp	r3, #127	; 0x7f
100041c2:	dd40      	ble.n	10004246 <__aeabi_float_init+0xa2>
100041c4:	2280      	movs	r2, #128	; 0x80
100041c6:	0021      	movs	r1, r4
100041c8:	4823      	ldr	r0, [pc, #140]	; (10004258 <__aeabi_float_init+0xb4>)
100041ca:	f000 f8bf 	bl	1000434c <__wrap___aeabi_memcpy>
100041ce:	4823      	ldr	r0, [pc, #140]	; (1000425c <__aeabi_float_init+0xb8>)
100041d0:	f7ff f8ac 	bl	1000332c <rom_func_lookup>
100041d4:	4b22      	ldr	r3, [pc, #136]	; (10004260 <__aeabi_float_init+0xbc>)
100041d6:	6018      	str	r0, [r3, #0]
100041d8:	bd70      	pop	{r4, r5, r6, pc}
100041da:	2254      	movs	r2, #84	; 0x54
100041dc:	0001      	movs	r1, r0
100041de:	481e      	ldr	r0, [pc, #120]	; (10004258 <__aeabi_float_init+0xb4>)
100041e0:	f000 f8b4 	bl	1000434c <__wrap___aeabi_memcpy>
100041e4:	4b1f      	ldr	r3, [pc, #124]	; (10004264 <__aeabi_float_init+0xc0>)
100041e6:	881a      	ldrh	r2, [r3, #0]
100041e8:	4b1f      	ldr	r3, [pc, #124]	; (10004268 <__aeabi_float_init+0xc4>)
100041ea:	429a      	cmp	r2, r3
100041ec:	d11c      	bne.n	10004228 <__aeabi_float_init+0x84>
100041ee:	23a7      	movs	r3, #167	; 0xa7
100041f0:	019b      	lsls	r3, r3, #6
100041f2:	881a      	ldrh	r2, [r3, #0]
100041f4:	4b1d      	ldr	r3, [pc, #116]	; (1000426c <__aeabi_float_init+0xc8>)
100041f6:	429a      	cmp	r2, r3
100041f8:	d116      	bne.n	10004228 <__aeabi_float_init+0x84>
100041fa:	4b1d      	ldr	r3, [pc, #116]	; (10004270 <__aeabi_float_init+0xcc>)
100041fc:	881a      	ldrh	r2, [r3, #0]
100041fe:	4b1d      	ldr	r3, [pc, #116]	; (10004274 <__aeabi_float_init+0xd0>)
10004200:	429a      	cmp	r2, r3
10004202:	d111      	bne.n	10004228 <__aeabi_float_init+0x84>
10004204:	4b1c      	ldr	r3, [pc, #112]	; (10004278 <__aeabi_float_init+0xd4>)
10004206:	881a      	ldrh	r2, [r3, #0]
10004208:	2394      	movs	r3, #148	; 0x94
1000420a:	019b      	lsls	r3, r3, #6
1000420c:	429a      	cmp	r2, r3
1000420e:	d10b      	bne.n	10004228 <__aeabi_float_init+0x84>
10004210:	4b1a      	ldr	r3, [pc, #104]	; (1000427c <__aeabi_float_init+0xd8>)
10004212:	881a      	ldrh	r2, [r3, #0]
10004214:	4b1a      	ldr	r3, [pc, #104]	; (10004280 <__aeabi_float_init+0xdc>)
10004216:	429a      	cmp	r2, r3
10004218:	d106      	bne.n	10004228 <__aeabi_float_init+0x84>
1000421a:	4b1a      	ldr	r3, [pc, #104]	; (10004284 <__aeabi_float_init+0xe0>)
1000421c:	681a      	ldr	r2, [r3, #0]
1000421e:	4b1a      	ldr	r3, [pc, #104]	; (10004288 <__aeabi_float_init+0xe4>)
10004220:	429a      	cmp	r2, r3
10004222:	d101      	bne.n	10004228 <__aeabi_float_init+0x84>
10004224:	2315      	movs	r3, #21
10004226:	e007      	b.n	10004238 <__aeabi_float_init+0x94>
10004228:	4818      	ldr	r0, [pc, #96]	; (1000428c <__aeabi_float_init+0xe8>)
1000422a:	f7fd ffbf 	bl	100021ac <panic>
1000422e:	0099      	lsls	r1, r3, #2
10004230:	4817      	ldr	r0, [pc, #92]	; (10004290 <__aeabi_float_init+0xec>)
10004232:	4a09      	ldr	r2, [pc, #36]	; (10004258 <__aeabi_float_init+0xb4>)
10004234:	5088      	str	r0, [r1, r2]
10004236:	3301      	adds	r3, #1
10004238:	2b1f      	cmp	r3, #31
1000423a:	d9f8      	bls.n	1000422e <__aeabi_float_init+0x8a>
1000423c:	4a14      	ldr	r2, [pc, #80]	; (10004290 <__aeabi_float_init+0xec>)
1000423e:	4b06      	ldr	r3, [pc, #24]	; (10004258 <__aeabi_float_init+0xb4>)
10004240:	621a      	str	r2, [r3, #32]
10004242:	61da      	str	r2, [r3, #28]
10004244:	e7b7      	b.n	100041b6 <__aeabi_float_init+0x12>
10004246:	4b13      	ldr	r3, [pc, #76]	; (10004294 <__aeabi_float_init+0xf0>)
10004248:	4a13      	ldr	r2, [pc, #76]	; (10004298 <__aeabi_float_init+0xf4>)
1000424a:	2142      	movs	r1, #66	; 0x42
1000424c:	4813      	ldr	r0, [pc, #76]	; (1000429c <__aeabi_float_init+0xf8>)
1000424e:	f7fd ff13 	bl	10002078 <__assert_func>
10004252:	46c0      	nop			; (mov r8, r8)
10004254:	00004653 	.word	0x00004653
10004258:	20000fd8 	.word	0x20000fd8
1000425c:	0000334c 	.word	0x0000334c
10004260:	20000fd4 	.word	0x20000fd4
10004264:	000029ee 	.word	0x000029ee
10004268:	00000fc4 	.word	0x00000fc4
1000426c:	00000dc2 	.word	0x00000dc2
10004270:	00002b96 	.word	0x00002b96
10004274:	0000b5c0 	.word	0x0000b5c0
10004278:	00002b18 	.word	0x00002b18
1000427c:	00002acc 	.word	0x00002acc
10004280:	0000b510 	.word	0x0000b510
10004284:	00002cfc 	.word	0x00002cfc
10004288:	6487ed51 	.word	0x6487ed51
1000428c:	100073e4 	.word	0x100073e4
10004290:	100042a1 	.word	0x100042a1
10004294:	10008174 	.word	0x10008174
10004298:	100081e4 	.word	0x100081e4
1000429c:	100081a8 	.word	0x100081a8

100042a0 <float_table_shim_on_use_helper>:
100042a0:	b507      	push	{r0, r1, r2, lr}
100042a2:	4660      	mov	r0, ip
100042a4:	2800      	cmp	r0, #0
100042a6:	d100      	bne.n	100042aa <float_table_shim_on_use_helper+0xa>
100042a8:	be00      	bkpt	0x0000
100042aa:	8801      	ldrh	r1, [r0, #0]
100042ac:	0a0a      	lsrs	r2, r1, #8
100042ae:	3002      	adds	r0, #2
100042b0:	2adf      	cmp	r2, #223	; 0xdf
100042b2:	d1fa      	bne.n	100042aa <float_table_shim_on_use_helper+0xa>
100042b4:	b2c9      	uxtb	r1, r1
100042b6:	0882      	lsrs	r2, r0, #2
100042b8:	d304      	bcc.n	100042c4 <float_table_shim_on_use_helper+0x24>
100042ba:	8802      	ldrh	r2, [r0, #0]
100042bc:	8840      	ldrh	r0, [r0, #2]
100042be:	0400      	lsls	r0, r0, #16
100042c0:	4310      	orrs	r0, r2
100042c2:	e000      	b.n	100042c6 <float_table_shim_on_use_helper+0x26>
100042c4:	6800      	ldr	r0, [r0, #0]
100042c6:	4a02      	ldr	r2, [pc, #8]	; (100042d0 <float_table_shim_on_use_helper+0x30>)
100042c8:	5050      	str	r0, [r2, r1]
100042ca:	9003      	str	r0, [sp, #12]
100042cc:	bd07      	pop	{r0, r1, r2, pc}
100042ce:	0000      	.short	0x0000
100042d0:	20000fd8 	.word	0x20000fd8

100042d4 <float2double_shim>:
100042d4:	0fc3      	lsrs	r3, r0, #31
100042d6:	07db      	lsls	r3, r3, #31
100042d8:	0041      	lsls	r1, r0, #1
100042da:	0e0a      	lsrs	r2, r1, #24
100042dc:	d007      	beq.n	100042ee <float2double_shim+0x1a>
100042de:	2aff      	cmp	r2, #255	; 0xff
100042e0:	d008      	beq.n	100042f4 <float2double_shim+0x20>
100042e2:	0909      	lsrs	r1, r1, #4
100042e4:	4a05      	ldr	r2, [pc, #20]	; (100042fc <float2double_shim+0x28>)
100042e6:	1889      	adds	r1, r1, r2
100042e8:	4319      	orrs	r1, r3
100042ea:	0740      	lsls	r0, r0, #29
100042ec:	4770      	bx	lr
100042ee:	0019      	movs	r1, r3
100042f0:	2000      	movs	r0, #0
100042f2:	4770      	bx	lr
100042f4:	4902      	ldr	r1, [pc, #8]	; (10004300 <float2double_shim+0x2c>)
100042f6:	18c9      	adds	r1, r1, r3
100042f8:	e7fa      	b.n	100042f0 <float2double_shim+0x1c>
100042fa:	0000      	.short	0x0000
100042fc:	38000000 	.word	0x38000000
10004300:	7ff00000 	.word	0x7ff00000

10004304 <__wrap_malloc>:
10004304:	b510      	push	{r4, lr}
10004306:	0004      	movs	r4, r0
10004308:	f002 fbdc 	bl	10006ac4 <malloc>
1000430c:	2800      	cmp	r0, #0
1000430e:	d004      	beq.n	1000431a <__wrap_malloc+0x16>
10004310:	1904      	adds	r4, r0, r4
10004312:	4b03      	ldr	r3, [pc, #12]	; (10004320 <__wrap_malloc+0x1c>)
10004314:	429c      	cmp	r4, r3
10004316:	d800      	bhi.n	1000431a <__wrap_malloc+0x16>
10004318:	bd10      	pop	{r4, pc}
1000431a:	4802      	ldr	r0, [pc, #8]	; (10004324 <__wrap_malloc+0x20>)
1000431c:	f7fd ff46 	bl	100021ac <panic>
10004320:	20040000 	.word	0x20040000
10004324:	100081f8 	.word	0x100081f8

10004328 <__wrap_free>:
10004328:	b510      	push	{r4, lr}
1000432a:	f002 fbd5 	bl	10006ad8 <free>
1000432e:	bd10      	pop	{r4, pc}

10004330 <__aeabi_mem_init>:
10004330:	4801      	ldr	r0, [pc, #4]	; (10004338 <__aeabi_mem_init+0x8>)
10004332:	2104      	movs	r1, #4
10004334:	4b01      	ldr	r3, [pc, #4]	; (1000433c <__aeabi_mem_init+0xc>)
10004336:	4718      	bx	r3
10004338:	200002c0 	.word	0x200002c0
1000433c:	1000334d 	.word	0x1000334d

10004340 <__wrap_memset>:
10004340:	4b01      	ldr	r3, [pc, #4]	; (10004348 <__wrap_memset+0x8>)
10004342:	681b      	ldr	r3, [r3, #0]
10004344:	4718      	bx	r3
10004346:	0000      	.short	0x0000
10004348:	200002c0 	.word	0x200002c0

1000434c <__wrap___aeabi_memcpy>:
1000434c:	4b01      	ldr	r3, [pc, #4]	; (10004354 <__wrap___aeabi_memcpy+0x8>)
1000434e:	685b      	ldr	r3, [r3, #4]
10004350:	4718      	bx	r3
10004352:	0000      	.short	0x0000
10004354:	200002c0 	.word	0x200002c0

10004358 <stdio_out_chars_no_crlf>:
10004358:	b510      	push	{r4, lr}
1000435a:	0003      	movs	r3, r0
1000435c:	0008      	movs	r0, r1
1000435e:	0011      	movs	r1, r2
10004360:	681b      	ldr	r3, [r3, #0]
10004362:	4798      	blx	r3
10004364:	bd10      	pop	{r4, pc}
	...

10004368 <stdio_out_chars_crlf>:
10004368:	b5f8      	push	{r3, r4, r5, r6, r7, lr}
1000436a:	0007      	movs	r7, r0
1000436c:	000d      	movs	r5, r1
1000436e:	0016      	movs	r6, r2
10004370:	7d43      	ldrb	r3, [r0, #21]
10004372:	2b00      	cmp	r3, #0
10004374:	d002      	beq.n	1000437c <stdio_out_chars_crlf+0x14>
10004376:	2400      	movs	r4, #0
10004378:	2000      	movs	r0, #0
1000437a:	e00c      	b.n	10004396 <stdio_out_chars_crlf+0x2e>
1000437c:	6803      	ldr	r3, [r0, #0]
1000437e:	0011      	movs	r1, r2
10004380:	0028      	movs	r0, r5
10004382:	4798      	blx	r3
10004384:	e02d      	b.n	100043e2 <stdio_out_chars_crlf+0x7a>
10004386:	7d3b      	ldrb	r3, [r7, #20]
10004388:	e010      	b.n	100043ac <stdio_out_chars_crlf+0x44>
1000438a:	2102      	movs	r1, #2
1000438c:	4815      	ldr	r0, [pc, #84]	; (100043e4 <stdio_out_chars_crlf+0x7c>)
1000438e:	683b      	ldr	r3, [r7, #0]
10004390:	4798      	blx	r3
10004392:	1c60      	adds	r0, r4, #1
10004394:	3401      	adds	r4, #1
10004396:	42b4      	cmp	r4, r6
10004398:	da14      	bge.n	100043c4 <stdio_out_chars_crlf+0x5c>
1000439a:	2c00      	cmp	r4, #0
1000439c:	ddf3      	ble.n	10004386 <stdio_out_chars_crlf+0x1e>
1000439e:	192b      	adds	r3, r5, r4
100043a0:	3b01      	subs	r3, #1
100043a2:	781b      	ldrb	r3, [r3, #0]
100043a4:	3b0d      	subs	r3, #13
100043a6:	425a      	negs	r2, r3
100043a8:	4153      	adcs	r3, r2
100043aa:	b2db      	uxtb	r3, r3
100043ac:	5d2a      	ldrb	r2, [r5, r4]
100043ae:	2a0a      	cmp	r2, #10
100043b0:	d1f0      	bne.n	10004394 <stdio_out_chars_crlf+0x2c>
100043b2:	2b00      	cmp	r3, #0
100043b4:	d1ee      	bne.n	10004394 <stdio_out_chars_crlf+0x2c>
100043b6:	42a0      	cmp	r0, r4
100043b8:	dae7      	bge.n	1000438a <stdio_out_chars_crlf+0x22>
100043ba:	1a21      	subs	r1, r4, r0
100043bc:	1828      	adds	r0, r5, r0
100043be:	683b      	ldr	r3, [r7, #0]
100043c0:	4798      	blx	r3
100043c2:	e7e2      	b.n	1000438a <stdio_out_chars_crlf+0x22>
100043c4:	42b0      	cmp	r0, r6
100043c6:	da03      	bge.n	100043d0 <stdio_out_chars_crlf+0x68>
100043c8:	1a31      	subs	r1, r6, r0
100043ca:	1828      	adds	r0, r5, r0
100043cc:	683b      	ldr	r3, [r7, #0]
100043ce:	4798      	blx	r3
100043d0:	2e00      	cmp	r6, #0
100043d2:	dd06      	ble.n	100043e2 <stdio_out_chars_crlf+0x7a>
100043d4:	19ad      	adds	r5, r5, r6
100043d6:	3d01      	subs	r5, #1
100043d8:	782b      	ldrb	r3, [r5, #0]
100043da:	3b0d      	subs	r3, #13
100043dc:	425a      	negs	r2, r3
100043de:	4153      	adcs	r3, r2
100043e0:	753b      	strb	r3, [r7, #20]
100043e2:	bdf8      	pop	{r3, r4, r5, r6, r7, pc}
100043e4:	1000828c 	.word	0x1000828c

100043e8 <stdio_stack_buffer_flush>:
100043e8:	b570      	push	{r4, r5, r6, lr}
100043ea:	0005      	movs	r5, r0
100043ec:	6803      	ldr	r3, [r0, #0]
100043ee:	2b00      	cmp	r3, #0
100043f0:	d016      	beq.n	10004420 <stdio_stack_buffer_flush+0x38>
100043f2:	4b0c      	ldr	r3, [pc, #48]	; (10004424 <stdio_stack_buffer_flush+0x3c>)
100043f4:	681c      	ldr	r4, [r3, #0]
100043f6:	e005      	b.n	10004404 <stdio_stack_buffer_flush+0x1c>
100043f8:	0029      	movs	r1, r5
100043fa:	c904      	ldmia	r1!, {r2}
100043fc:	0020      	movs	r0, r4
100043fe:	f7ff ffb3 	bl	10004368 <stdio_out_chars_crlf>
10004402:	6924      	ldr	r4, [r4, #16]
10004404:	2c00      	cmp	r4, #0
10004406:	d009      	beq.n	1000441c <stdio_stack_buffer_flush+0x34>
10004408:	6823      	ldr	r3, [r4, #0]
1000440a:	2b00      	cmp	r3, #0
1000440c:	d0f9      	beq.n	10004402 <stdio_stack_buffer_flush+0x1a>
1000440e:	4b06      	ldr	r3, [pc, #24]	; (10004428 <stdio_stack_buffer_flush+0x40>)
10004410:	681b      	ldr	r3, [r3, #0]
10004412:	2b00      	cmp	r3, #0
10004414:	d0f0      	beq.n	100043f8 <stdio_stack_buffer_flush+0x10>
10004416:	42a3      	cmp	r3, r4
10004418:	d1f3      	bne.n	10004402 <stdio_stack_buffer_flush+0x1a>
1000441a:	e7ed      	b.n	100043f8 <stdio_stack_buffer_flush+0x10>
1000441c:	2300      	movs	r3, #0
1000441e:	602b      	str	r3, [r5, #0]
10004420:	bd70      	pop	{r4, r5, r6, pc}
10004422:	46c0      	nop			; (mov r8, r8)
10004424:	20000eb4 	.word	0x20000eb4
10004428:	20000ebc 	.word	0x20000ebc

1000442c <stdio_buffered_printer>:
1000442c:	b570      	push	{r4, r5, r6, lr}
1000442e:	0005      	movs	r5, r0
10004430:	000c      	movs	r4, r1
10004432:	680b      	ldr	r3, [r1, #0]
10004434:	2b80      	cmp	r3, #128	; 0x80
10004436:	d005      	beq.n	10004444 <stdio_buffered_printer+0x18>
10004438:	6821      	ldr	r1, [r4, #0]
1000443a:	1c4b      	adds	r3, r1, #1
1000443c:	6023      	str	r3, [r4, #0]
1000443e:	1864      	adds	r4, r4, r1
10004440:	7125      	strb	r5, [r4, #4]
10004442:	bd70      	pop	{r4, r5, r6, pc}
10004444:	0008      	movs	r0, r1
10004446:	f7ff ffcf 	bl	100043e8 <stdio_stack_buffer_flush>
1000444a:	e7f5      	b.n	10004438 <stdio_buffered_printer+0xc>

1000444c <stdout_serialize_begin>:
1000444c:	b510      	push	{r4, lr}
1000444e:	f7fd f899 	bl	10001584 <time_us_64>
10004452:	0002      	movs	r2, r0
10004454:	1e0b      	subs	r3, r1, #0
10004456:	db0b      	blt.n	10004470 <stdout_serialize_begin+0x24>
10004458:	480d      	ldr	r0, [pc, #52]	; (10004490 <stdout_serialize_begin+0x44>)
1000445a:	2100      	movs	r1, #0
1000445c:	1812      	adds	r2, r2, r0
1000445e:	414b      	adcs	r3, r1
10004460:	2b00      	cmp	r3, #0
10004462:	db0b      	blt.n	1000447c <stdout_serialize_begin+0x30>
10004464:	2b00      	cmp	r3, #0
10004466:	db0d      	blt.n	10004484 <stdout_serialize_begin+0x38>
10004468:	480a      	ldr	r0, [pc, #40]	; (10004494 <stdout_serialize_begin+0x48>)
1000446a:	f002 ffa1 	bl	100073b0 <__mutex_try_enter_block_until_veneer>
1000446e:	bd10      	pop	{r4, pc}
10004470:	4b09      	ldr	r3, [pc, #36]	; (10004498 <stdout_serialize_begin+0x4c>)
10004472:	4a0a      	ldr	r2, [pc, #40]	; (1000449c <stdout_serialize_begin+0x50>)
10004474:	213f      	movs	r1, #63	; 0x3f
10004476:	480a      	ldr	r0, [pc, #40]	; (100044a0 <stdout_serialize_begin+0x54>)
10004478:	f7fd fdfe 	bl	10002078 <__assert_func>
1000447c:	2201      	movs	r2, #1
1000447e:	4252      	negs	r2, r2
10004480:	4b08      	ldr	r3, [pc, #32]	; (100044a4 <stdout_serialize_begin+0x58>)
10004482:	e7ef      	b.n	10004464 <stdout_serialize_begin+0x18>
10004484:	4b04      	ldr	r3, [pc, #16]	; (10004498 <stdout_serialize_begin+0x4c>)
10004486:	4a05      	ldr	r2, [pc, #20]	; (1000449c <stdout_serialize_begin+0x50>)
10004488:	213f      	movs	r1, #63	; 0x3f
1000448a:	4805      	ldr	r0, [pc, #20]	; (100044a0 <stdout_serialize_begin+0x54>)
1000448c:	f7fd fdf4 	bl	10002078 <__assert_func>
10004490:	000f4240 	.word	0x000f4240
10004494:	20000b30 	.word	0x20000b30
10004498:	100076cc 	.word	0x100076cc
1000449c:	10008274 	.word	0x10008274
100044a0:	100076e8 	.word	0x100076e8
100044a4:	7fffffff 	.word	0x7fffffff

100044a8 <stdout_serialize_end>:
100044a8:	b510      	push	{r4, lr}
100044aa:	4802      	ldr	r0, [pc, #8]	; (100044b4 <stdout_serialize_end+0xc>)
100044ac:	f002 ff68 	bl	10007380 <__mutex_exit_veneer>
100044b0:	bd10      	pop	{r4, pc}
100044b2:	46c0      	nop			; (mov r8, r8)
100044b4:	20000b30 	.word	0x20000b30

100044b8 <stdio_put_string>:
100044b8:	b5f0      	push	{r4, r5, r6, r7, lr}
100044ba:	46ce      	mov	lr, r9
100044bc:	4647      	mov	r7, r8
100044be:	b580      	push	{r7, lr}
100044c0:	b083      	sub	sp, #12
100044c2:	0006      	movs	r6, r0
100044c4:	000d      	movs	r5, r1
100044c6:	4690      	mov	r8, r2
100044c8:	001c      	movs	r4, r3
100044ca:	f7ff ffbf 	bl	1000444c <stdout_serialize_begin>
100044ce:	4681      	mov	r9, r0
100044d0:	1c6b      	adds	r3, r5, #1
100044d2:	d005      	beq.n	100044e0 <stdio_put_string+0x28>
100044d4:	2c00      	cmp	r4, #0
100044d6:	d008      	beq.n	100044ea <stdio_put_string+0x32>
100044d8:	4f19      	ldr	r7, [pc, #100]	; (10004540 <stdio_put_string+0x88>)
100044da:	4b1a      	ldr	r3, [pc, #104]	; (10004544 <stdio_put_string+0x8c>)
100044dc:	681c      	ldr	r4, [r3, #0]
100044de:	e007      	b.n	100044f0 <stdio_put_string+0x38>
100044e0:	0030      	movs	r0, r6
100044e2:	f002 fde7 	bl	100070b4 <strlen>
100044e6:	0005      	movs	r5, r0
100044e8:	e7f4      	b.n	100044d4 <stdio_put_string+0x1c>
100044ea:	4f17      	ldr	r7, [pc, #92]	; (10004548 <stdio_put_string+0x90>)
100044ec:	e7f5      	b.n	100044da <stdio_put_string+0x22>
100044ee:	6924      	ldr	r4, [r4, #16]
100044f0:	2c00      	cmp	r4, #0
100044f2:	d017      	beq.n	10004524 <stdio_put_string+0x6c>
100044f4:	6823      	ldr	r3, [r4, #0]
100044f6:	2b00      	cmp	r3, #0
100044f8:	d0f9      	beq.n	100044ee <stdio_put_string+0x36>
100044fa:	4b14      	ldr	r3, [pc, #80]	; (1000454c <stdio_put_string+0x94>)
100044fc:	681b      	ldr	r3, [r3, #0]
100044fe:	2b00      	cmp	r3, #0
10004500:	d001      	beq.n	10004506 <stdio_put_string+0x4e>
10004502:	42a3      	cmp	r3, r4
10004504:	d1f3      	bne.n	100044ee <stdio_put_string+0x36>
10004506:	002a      	movs	r2, r5
10004508:	0031      	movs	r1, r6
1000450a:	0020      	movs	r0, r4
1000450c:	47b8      	blx	r7
1000450e:	4643      	mov	r3, r8
10004510:	2b00      	cmp	r3, #0
10004512:	d0ec      	beq.n	100044ee <stdio_put_string+0x36>
10004514:	466b      	mov	r3, sp
10004516:	1dd9      	adds	r1, r3, #7
10004518:	230a      	movs	r3, #10
1000451a:	700b      	strb	r3, [r1, #0]
1000451c:	2201      	movs	r2, #1
1000451e:	0020      	movs	r0, r4
10004520:	47b8      	blx	r7
10004522:	e7e4      	b.n	100044ee <stdio_put_string+0x36>
10004524:	464b      	mov	r3, r9
10004526:	2b00      	cmp	r3, #0
10004528:	d107      	bne.n	1000453a <stdio_put_string+0x82>
1000452a:	1e6b      	subs	r3, r5, #1
1000452c:	419d      	sbcs	r5, r3
1000452e:	b2e8      	uxtb	r0, r5
10004530:	b003      	add	sp, #12
10004532:	bcc0      	pop	{r6, r7}
10004534:	46b9      	mov	r9, r7
10004536:	46b0      	mov	r8, r6
10004538:	bdf0      	pop	{r4, r5, r6, r7, pc}
1000453a:	f7ff ffb5 	bl	100044a8 <stdout_serialize_end>
1000453e:	e7f4      	b.n	1000452a <stdio_put_string+0x72>
10004540:	10004359 	.word	0x10004359
10004544:	20000eb4 	.word	0x20000eb4
10004548:	10004369 	.word	0x10004369
1000454c:	20000ebc 	.word	0x20000ebc

10004550 <stdio_set_driver_enabled>:
10004550:	4a09      	ldr	r2, [pc, #36]	; (10004578 <stdio_set_driver_enabled+0x28>)
10004552:	e001      	b.n	10004558 <stdio_set_driver_enabled+0x8>
10004554:	3310      	adds	r3, #16
10004556:	001a      	movs	r2, r3
10004558:	6813      	ldr	r3, [r2, #0]
1000455a:	2b00      	cmp	r3, #0
1000455c:	d008      	beq.n	10004570 <stdio_set_driver_enabled+0x20>
1000455e:	4283      	cmp	r3, r0
10004560:	d1f8      	bne.n	10004554 <stdio_set_driver_enabled+0x4>
10004562:	2900      	cmp	r1, #0
10004564:	d107      	bne.n	10004576 <stdio_set_driver_enabled+0x26>
10004566:	6903      	ldr	r3, [r0, #16]
10004568:	6013      	str	r3, [r2, #0]
1000456a:	2300      	movs	r3, #0
1000456c:	6103      	str	r3, [r0, #16]
1000456e:	e002      	b.n	10004576 <stdio_set_driver_enabled+0x26>
10004570:	2900      	cmp	r1, #0
10004572:	d000      	beq.n	10004576 <stdio_set_driver_enabled+0x26>
10004574:	6010      	str	r0, [r2, #0]
10004576:	4770      	bx	lr
10004578:	20000eb4 	.word	0x20000eb4

1000457c <stdio_flush>:
1000457c:	b510      	push	{r4, lr}
1000457e:	4b06      	ldr	r3, [pc, #24]	; (10004598 <stdio_flush+0x1c>)
10004580:	681c      	ldr	r4, [r3, #0]
10004582:	e001      	b.n	10004588 <stdio_flush+0xc>
10004584:	4798      	blx	r3
10004586:	6924      	ldr	r4, [r4, #16]
10004588:	2c00      	cmp	r4, #0
1000458a:	d003      	beq.n	10004594 <stdio_flush+0x18>
1000458c:	6863      	ldr	r3, [r4, #4]
1000458e:	2b00      	cmp	r3, #0
10004590:	d1f8      	bne.n	10004584 <stdio_flush+0x8>
10004592:	e7f8      	b.n	10004586 <stdio_flush+0xa>
10004594:	bd10      	pop	{r4, pc}
10004596:	46c0      	nop			; (mov r8, r8)
10004598:	20000eb4 	.word	0x20000eb4

1000459c <__wrap_puts>:
1000459c:	b570      	push	{r4, r5, r6, lr}
1000459e:	0005      	movs	r5, r0
100045a0:	f002 fd88 	bl	100070b4 <strlen>
100045a4:	0004      	movs	r4, r0
100045a6:	2300      	movs	r3, #0
100045a8:	2201      	movs	r2, #1
100045aa:	0001      	movs	r1, r0
100045ac:	0028      	movs	r0, r5
100045ae:	f7ff ff83 	bl	100044b8 <stdio_put_string>
100045b2:	f7ff ffe3 	bl	1000457c <stdio_flush>
100045b6:	0020      	movs	r0, r4
100045b8:	bd70      	pop	{r4, r5, r6, pc}
	...

100045bc <__wrap_vprintf>:
100045bc:	b570      	push	{r4, r5, r6, lr}
100045be:	b0a2      	sub	sp, #136	; 0x88
100045c0:	0004      	movs	r4, r0
100045c2:	000e      	movs	r6, r1
100045c4:	f7ff ff42 	bl	1000444c <stdout_serialize_begin>
100045c8:	0005      	movs	r5, r0
100045ca:	2300      	movs	r3, #0
100045cc:	9301      	str	r3, [sp, #4]
100045ce:	0033      	movs	r3, r6
100045d0:	0022      	movs	r2, r4
100045d2:	a901      	add	r1, sp, #4
100045d4:	4808      	ldr	r0, [pc, #32]	; (100045f8 <__wrap_vprintf+0x3c>)
100045d6:	f7fe fe91 	bl	100032fc <vfctprintf>
100045da:	0004      	movs	r4, r0
100045dc:	a801      	add	r0, sp, #4
100045de:	f7ff ff03 	bl	100043e8 <stdio_stack_buffer_flush>
100045e2:	f7ff ffcb 	bl	1000457c <stdio_flush>
100045e6:	2d00      	cmp	r5, #0
100045e8:	d102      	bne.n	100045f0 <__wrap_vprintf+0x34>
100045ea:	0020      	movs	r0, r4
100045ec:	b022      	add	sp, #136	; 0x88
100045ee:	bd70      	pop	{r4, r5, r6, pc}
100045f0:	f7ff ff5a 	bl	100044a8 <stdout_serialize_end>
100045f4:	e7f9      	b.n	100045ea <__wrap_vprintf+0x2e>
100045f6:	46c0      	nop			; (mov r8, r8)
100045f8:	1000442d 	.word	0x1000442d

100045fc <__wrap_printf>:
100045fc:	b40f      	push	{r0, r1, r2, r3}
100045fe:	b500      	push	{lr}
10004600:	b083      	sub	sp, #12
10004602:	a904      	add	r1, sp, #16
10004604:	c901      	ldmia	r1!, {r0}
10004606:	9101      	str	r1, [sp, #4]
10004608:	f7ff ffd8 	bl	100045bc <__wrap_vprintf>
1000460c:	b003      	add	sp, #12
1000460e:	bc08      	pop	{r3}
10004610:	b004      	add	sp, #16
10004612:	4718      	bx	r3

10004614 <stdio_init_all>:
10004614:	b510      	push	{r4, lr}
10004616:	f000 f8f9 	bl	1000480c <stdio_uart_init>
1000461a:	2001      	movs	r0, #1
1000461c:	bd10      	pop	{r4, pc}
	...

10004620 <stdio_uart_out_chars>:
10004620:	b5f0      	push	{r4, r5, r6, r7, lr}
10004622:	b083      	sub	sp, #12
10004624:	0005      	movs	r5, r0
10004626:	000e      	movs	r6, r1
10004628:	2400      	movs	r4, #0
1000462a:	e00f      	b.n	1000464c <stdio_uart_out_chars+0x2c>
1000462c:	466b      	mov	r3, sp
1000462e:	1dd9      	adds	r1, r3, #7
10004630:	230d      	movs	r3, #13
10004632:	700b      	strb	r3, [r1, #0]
10004634:	2000      	movs	r0, #0
10004636:	2800      	cmp	r0, #0
10004638:	d116      	bne.n	10004668 <stdio_uart_out_chars+0x48>
1000463a:	6993      	ldr	r3, [r2, #24]
1000463c:	069b      	lsls	r3, r3, #26
1000463e:	d4fc      	bmi.n	1000463a <stdio_uart_out_chars+0x1a>
10004640:	780b      	ldrb	r3, [r1, #0]
10004642:	6013      	str	r3, [r2, #0]
10004644:	3001      	adds	r0, #1
10004646:	3101      	adds	r1, #1
10004648:	e7f5      	b.n	10004636 <stdio_uart_out_chars+0x16>
1000464a:	3401      	adds	r4, #1
1000464c:	42b4      	cmp	r4, r6
1000464e:	da19      	bge.n	10004684 <stdio_uart_out_chars+0x64>
10004650:	4b0d      	ldr	r3, [pc, #52]	; (10004688 <stdio_uart_out_chars+0x68>)
10004652:	681a      	ldr	r2, [r3, #0]
10004654:	5d2f      	ldrb	r7, [r5, r4]
10004656:	4b0d      	ldr	r3, [pc, #52]	; (1000468c <stdio_uart_out_chars+0x6c>)
10004658:	18d3      	adds	r3, r2, r3
1000465a:	4259      	negs	r1, r3
1000465c:	414b      	adcs	r3, r1
1000465e:	005b      	lsls	r3, r3, #1
10004660:	490b      	ldr	r1, [pc, #44]	; (10004690 <stdio_uart_out_chars+0x70>)
10004662:	5e5b      	ldrsh	r3, [r3, r1]
10004664:	42bb      	cmp	r3, r7
10004666:	d0e1      	beq.n	1000462c <stdio_uart_out_chars+0xc>
10004668:	466b      	mov	r3, sp
1000466a:	1dd9      	adds	r1, r3, #7
1000466c:	700f      	strb	r7, [r1, #0]
1000466e:	2000      	movs	r0, #0
10004670:	2800      	cmp	r0, #0
10004672:	d1ea      	bne.n	1000464a <stdio_uart_out_chars+0x2a>
10004674:	6993      	ldr	r3, [r2, #24]
10004676:	069b      	lsls	r3, r3, #26
10004678:	d4fc      	bmi.n	10004674 <stdio_uart_out_chars+0x54>
1000467a:	780b      	ldrb	r3, [r1, #0]
1000467c:	6013      	str	r3, [r2, #0]
1000467e:	3001      	adds	r0, #1
10004680:	3101      	adds	r1, #1
10004682:	e7f5      	b.n	10004670 <stdio_uart_out_chars+0x50>
10004684:	b003      	add	sp, #12
10004686:	bdf0      	pop	{r4, r5, r6, r7, pc}
10004688:	200010f0 	.word	0x200010f0
1000468c:	bffc8000 	.word	0xbffc8000
10004690:	200010ec 	.word	0x200010ec

10004694 <stdio_uart_in_chars>:
10004694:	b5f0      	push	{r4, r5, r6, r7, lr}
10004696:	b083      	sub	sp, #12
10004698:	0006      	movs	r6, r0
1000469a:	000f      	movs	r7, r1
1000469c:	2500      	movs	r5, #0
1000469e:	e004      	b.n	100046aa <stdio_uart_in_chars+0x16>
100046a0:	466b      	mov	r3, sp
100046a2:	3307      	adds	r3, #7
100046a4:	781b      	ldrb	r3, [r3, #0]
100046a6:	702b      	strb	r3, [r5, #0]
100046a8:	0025      	movs	r5, r4
100046aa:	42bd      	cmp	r5, r7
100046ac:	da15      	bge.n	100046da <stdio_uart_in_chars+0x46>
100046ae:	4b17      	ldr	r3, [pc, #92]	; (1000470c <stdio_uart_in_chars+0x78>)
100046b0:	681a      	ldr	r2, [r3, #0]
100046b2:	6993      	ldr	r3, [r2, #24]
100046b4:	2410      	movs	r4, #16
100046b6:	0021      	movs	r1, r4
100046b8:	4019      	ands	r1, r3
100046ba:	421c      	tst	r4, r3
100046bc:	d10d      	bne.n	100046da <stdio_uart_in_chars+0x46>
100046be:	1c6c      	adds	r4, r5, #1
100046c0:	1975      	adds	r5, r6, r5
100046c2:	466b      	mov	r3, sp
100046c4:	1dd8      	adds	r0, r3, #7
100046c6:	2900      	cmp	r1, #0
100046c8:	d1ea      	bne.n	100046a0 <stdio_uart_in_chars+0xc>
100046ca:	6993      	ldr	r3, [r2, #24]
100046cc:	06db      	lsls	r3, r3, #27
100046ce:	d4fc      	bmi.n	100046ca <stdio_uart_in_chars+0x36>
100046d0:	6813      	ldr	r3, [r2, #0]
100046d2:	7003      	strb	r3, [r0, #0]
100046d4:	3101      	adds	r1, #1
100046d6:	3001      	adds	r0, #1
100046d8:	e7f5      	b.n	100046c6 <stdio_uart_in_chars+0x32>
100046da:	4b0d      	ldr	r3, [pc, #52]	; (10004710 <stdio_uart_in_chars+0x7c>)
100046dc:	681b      	ldr	r3, [r3, #0]
100046de:	2b00      	cmp	r3, #0
100046e0:	d00c      	beq.n	100046fc <stdio_uart_in_chars+0x68>
100046e2:	4b0a      	ldr	r3, [pc, #40]	; (1000470c <stdio_uart_in_chars+0x78>)
100046e4:	681a      	ldr	r2, [r3, #0]
100046e6:	2350      	movs	r3, #80	; 0x50
100046e8:	6393      	str	r3, [r2, #56]	; 0x38
100046ea:	0011      	movs	r1, r2
100046ec:	3134      	adds	r1, #52	; 0x34
100046ee:	6b53      	ldr	r3, [r2, #52]	; 0x34
100046f0:	2238      	movs	r2, #56	; 0x38
100046f2:	401a      	ands	r2, r3
100046f4:	2380      	movs	r3, #128	; 0x80
100046f6:	015b      	lsls	r3, r3, #5
100046f8:	430b      	orrs	r3, r1
100046fa:	601a      	str	r2, [r3, #0]
100046fc:	2d00      	cmp	r5, #0
100046fe:	d002      	beq.n	10004706 <stdio_uart_in_chars+0x72>
10004700:	0028      	movs	r0, r5
10004702:	b003      	add	sp, #12
10004704:	bdf0      	pop	{r4, r5, r6, r7, pc}
10004706:	3d03      	subs	r5, #3
10004708:	e7fa      	b.n	10004700 <stdio_uart_in_chars+0x6c>
1000470a:	46c0      	nop			; (mov r8, r8)
1000470c:	200010f0 	.word	0x200010f0
10004710:	20000e44 	.word	0x20000e44

10004714 <on_uart_rx>:
10004714:	b510      	push	{r4, lr}
10004716:	4b06      	ldr	r3, [pc, #24]	; (10004730 <on_uart_rx+0x1c>)
10004718:	681b      	ldr	r3, [r3, #0]
1000471a:	2b00      	cmp	r3, #0
1000471c:	d006      	beq.n	1000472c <on_uart_rx+0x18>
1000471e:	4a05      	ldr	r2, [pc, #20]	; (10004734 <on_uart_rx+0x20>)
10004720:	6812      	ldr	r2, [r2, #0]
10004722:	2100      	movs	r1, #0
10004724:	6391      	str	r1, [r2, #56]	; 0x38
10004726:	4a04      	ldr	r2, [pc, #16]	; (10004738 <on_uart_rx+0x24>)
10004728:	6810      	ldr	r0, [r2, #0]
1000472a:	4798      	blx	r3
1000472c:	bd10      	pop	{r4, pc}
1000472e:	46c0      	nop			; (mov r8, r8)
10004730:	20000e44 	.word	0x20000e44
10004734:	200010f0 	.word	0x200010f0
10004738:	20000e48 	.word	0x20000e48

1000473c <stdio_uart_set_chars_available_callback>:
1000473c:	b570      	push	{r4, r5, r6, lr}
1000473e:	0004      	movs	r4, r0
10004740:	000e      	movs	r6, r1
10004742:	4b1c      	ldr	r3, [pc, #112]	; (100047b4 <stdio_uart_set_chars_available_callback+0x78>)
10004744:	681b      	ldr	r3, [r3, #0]
10004746:	4a1c      	ldr	r2, [pc, #112]	; (100047b8 <stdio_uart_set_chars_available_callback+0x7c>)
10004748:	1898      	adds	r0, r3, r2
1000474a:	4242      	negs	r2, r0
1000474c:	4150      	adcs	r0, r2
1000474e:	3014      	adds	r0, #20
10004750:	0005      	movs	r5, r0
10004752:	2c00      	cmp	r4, #0
10004754:	d003      	beq.n	1000475e <stdio_uart_set_chars_available_callback+0x22>
10004756:	4a19      	ldr	r2, [pc, #100]	; (100047bc <stdio_uart_set_chars_available_callback+0x80>)
10004758:	6812      	ldr	r2, [r2, #0]
1000475a:	2a00      	cmp	r2, #0
1000475c:	d006      	beq.n	1000476c <stdio_uart_set_chars_available_callback+0x30>
1000475e:	2c00      	cmp	r4, #0
10004760:	d019      	beq.n	10004796 <stdio_uart_set_chars_available_callback+0x5a>
10004762:	4b16      	ldr	r3, [pc, #88]	; (100047bc <stdio_uart_set_chars_available_callback+0x80>)
10004764:	601c      	str	r4, [r3, #0]
10004766:	4b16      	ldr	r3, [pc, #88]	; (100047c0 <stdio_uart_set_chars_available_callback+0x84>)
10004768:	601e      	str	r6, [r3, #0]
1000476a:	bd70      	pop	{r4, r5, r6, pc}
1000476c:	4915      	ldr	r1, [pc, #84]	; (100047c4 <stdio_uart_set_chars_available_callback+0x88>)
1000476e:	f7fb ff5f 	bl	10000630 <irq_set_exclusive_handler>
10004772:	2101      	movs	r1, #1
10004774:	0028      	movs	r0, r5
10004776:	f7fb ff4b 	bl	10000610 <irq_set_enabled>
1000477a:	4b0e      	ldr	r3, [pc, #56]	; (100047b4 <stdio_uart_set_chars_available_callback+0x78>)
1000477c:	681a      	ldr	r2, [r3, #0]
1000477e:	2350      	movs	r3, #80	; 0x50
10004780:	6393      	str	r3, [r2, #56]	; 0x38
10004782:	0011      	movs	r1, r2
10004784:	3134      	adds	r1, #52	; 0x34
10004786:	6b53      	ldr	r3, [r2, #52]	; 0x34
10004788:	2238      	movs	r2, #56	; 0x38
1000478a:	401a      	ands	r2, r3
1000478c:	2380      	movs	r3, #128	; 0x80
1000478e:	015b      	lsls	r3, r3, #5
10004790:	430b      	orrs	r3, r1
10004792:	601a      	str	r2, [r3, #0]
10004794:	e7e5      	b.n	10004762 <stdio_uart_set_chars_available_callback+0x26>
10004796:	4a09      	ldr	r2, [pc, #36]	; (100047bc <stdio_uart_set_chars_available_callback+0x80>)
10004798:	6812      	ldr	r2, [r2, #0]
1000479a:	2a00      	cmp	r2, #0
1000479c:	d0e1      	beq.n	10004762 <stdio_uart_set_chars_available_callback+0x26>
1000479e:	2200      	movs	r2, #0
100047a0:	639a      	str	r2, [r3, #56]	; 0x38
100047a2:	2100      	movs	r1, #0
100047a4:	0028      	movs	r0, r5
100047a6:	f7fb ff33 	bl	10000610 <irq_set_enabled>
100047aa:	4906      	ldr	r1, [pc, #24]	; (100047c4 <stdio_uart_set_chars_available_callback+0x88>)
100047ac:	0028      	movs	r0, r5
100047ae:	f7fb ff69 	bl	10000684 <irq_remove_handler>
100047b2:	e7d6      	b.n	10004762 <stdio_uart_set_chars_available_callback+0x26>
100047b4:	200010f0 	.word	0x200010f0
100047b8:	bffc8000 	.word	0xbffc8000
100047bc:	20000e44 	.word	0x20000e44
100047c0:	20000e48 	.word	0x20000e48
100047c4:	10004715 	.word	0x10004715

100047c8 <stdio_uart_init_full>:
100047c8:	b570      	push	{r4, r5, r6, lr}
100047ca:	000d      	movs	r5, r1
100047cc:	001c      	movs	r4, r3
100047ce:	4b0d      	ldr	r3, [pc, #52]	; (10004804 <stdio_uart_init_full+0x3c>)
100047d0:	6018      	str	r0, [r3, #0]
100047d2:	2a00      	cmp	r2, #0
100047d4:	da0b      	bge.n	100047ee <stdio_uart_init_full+0x26>
100047d6:	2c00      	cmp	r4, #0
100047d8:	da0e      	bge.n	100047f8 <stdio_uart_init_full+0x30>
100047da:	4b0a      	ldr	r3, [pc, #40]	; (10004804 <stdio_uart_init_full+0x3c>)
100047dc:	6818      	ldr	r0, [r3, #0]
100047de:	0029      	movs	r1, r5
100047e0:	f7fd fa2e 	bl	10001c40 <uart_init>
100047e4:	2101      	movs	r1, #1
100047e6:	4808      	ldr	r0, [pc, #32]	; (10004808 <stdio_uart_init_full+0x40>)
100047e8:	f7ff feb2 	bl	10004550 <stdio_set_driver_enabled>
100047ec:	bd70      	pop	{r4, r5, r6, pc}
100047ee:	2102      	movs	r1, #2
100047f0:	0010      	movs	r0, r2
100047f2:	f7fb fe1d 	bl	10000430 <gpio_set_function>
100047f6:	e7ee      	b.n	100047d6 <stdio_uart_init_full+0xe>
100047f8:	2102      	movs	r1, #2
100047fa:	0020      	movs	r0, r4
100047fc:	f7fb fe18 	bl	10000430 <gpio_set_function>
10004800:	e7eb      	b.n	100047da <stdio_uart_init_full+0x12>
10004802:	46c0      	nop			; (mov r8, r8)
10004804:	200010f0 	.word	0x200010f0
10004808:	200002d0 	.word	0x200002d0

1000480c <stdio_uart_init>:
1000480c:	b510      	push	{r4, lr}
1000480e:	4b06      	ldr	r3, [pc, #24]	; (10004828 <stdio_uart_init+0x1c>)
10004810:	781b      	ldrb	r3, [r3, #0]
10004812:	4b06      	ldr	r3, [pc, #24]	; (1000482c <stdio_uart_init+0x20>)
10004814:	781b      	ldrb	r3, [r3, #0]
10004816:	21e1      	movs	r1, #225	; 0xe1
10004818:	2301      	movs	r3, #1
1000481a:	2200      	movs	r2, #0
1000481c:	0249      	lsls	r1, r1, #9
1000481e:	4804      	ldr	r0, [pc, #16]	; (10004830 <stdio_uart_init+0x24>)
10004820:	f7ff ffd2 	bl	100047c8 <stdio_uart_init_full>
10004824:	bd10      	pop	{r4, pc}
10004826:	46c0      	nop			; (mov r8, r8)
10004828:	1000832c 	.word	0x1000832c
1000482c:	10008330 	.word	0x10008330
10004830:	40034000 	.word	0x40034000

10004834 <adc_init>:
10004834:	2301      	movs	r3, #1
10004836:	4a08      	ldr	r2, [pc, #32]	; (10004858 <adc_init+0x24>)
10004838:	6013      	str	r3, [r2, #0]
1000483a:	4a08      	ldr	r2, [pc, #32]	; (1000485c <adc_init+0x28>)
1000483c:	6013      	str	r3, [r2, #0]
1000483e:	4b08      	ldr	r3, [pc, #32]	; (10004860 <adc_init+0x2c>)
10004840:	689a      	ldr	r2, [r3, #8]
10004842:	2301      	movs	r3, #1
10004844:	4393      	bics	r3, r2
10004846:	d1fa      	bne.n	1000483e <adc_init+0xa>
10004848:	4b06      	ldr	r3, [pc, #24]	; (10004864 <adc_init+0x30>)
1000484a:	2201      	movs	r2, #1
1000484c:	601a      	str	r2, [r3, #0]
1000484e:	4b05      	ldr	r3, [pc, #20]	; (10004864 <adc_init+0x30>)
10004850:	681b      	ldr	r3, [r3, #0]
10004852:	05db      	lsls	r3, r3, #23
10004854:	d5fb      	bpl.n	1000484e <adc_init+0x1a>
10004856:	4770      	bx	lr
10004858:	4000e000 	.word	0x4000e000
1000485c:	4000f000 	.word	0x4000f000
10004860:	4000c000 	.word	0x4000c000
10004864:	4004c000 	.word	0x4004c000

10004868 <prvTaskIsTaskSuspended>:
10004868:	4b08      	ldr	r3, [pc, #32]	; (1000488c <prvTaskIsTaskSuspended+0x24>)
1000486a:	6942      	ldr	r2, [r0, #20]
1000486c:	429a      	cmp	r2, r3
1000486e:	d001      	beq.n	10004874 <prvTaskIsTaskSuspended+0xc>
10004870:	2000      	movs	r0, #0
10004872:	4770      	bx	lr
10004874:	6a82      	ldr	r2, [r0, #40]	; 0x28
10004876:	3314      	adds	r3, #20
10004878:	429a      	cmp	r2, r3
1000487a:	d003      	beq.n	10004884 <prvTaskIsTaskSuspended+0x1c>
1000487c:	2a00      	cmp	r2, #0
1000487e:	d003      	beq.n	10004888 <prvTaskIsTaskSuspended+0x20>
10004880:	2000      	movs	r0, #0
10004882:	e7f6      	b.n	10004872 <prvTaskIsTaskSuspended+0xa>
10004884:	2000      	movs	r0, #0
10004886:	e7f4      	b.n	10004872 <prvTaskIsTaskSuspended+0xa>
10004888:	2001      	movs	r0, #1
1000488a:	e7f2      	b.n	10004872 <prvTaskIsTaskSuspended+0xa>
1000488c:	20000c6c 	.word	0x20000c6c

10004890 <prvResetNextTaskUnblockTime>:
10004890:	4b07      	ldr	r3, [pc, #28]	; (100048b0 <prvResetNextTaskUnblockTime+0x20>)
10004892:	6a9b      	ldr	r3, [r3, #40]	; 0x28
10004894:	681b      	ldr	r3, [r3, #0]
10004896:	2b00      	cmp	r3, #0
10004898:	d104      	bne.n	100048a4 <prvResetNextTaskUnblockTime+0x14>
1000489a:	4b05      	ldr	r3, [pc, #20]	; (100048b0 <prvResetNextTaskUnblockTime+0x20>)
1000489c:	2201      	movs	r2, #1
1000489e:	4252      	negs	r2, r2
100048a0:	62da      	str	r2, [r3, #44]	; 0x2c
100048a2:	4770      	bx	lr
100048a4:	4b02      	ldr	r3, [pc, #8]	; (100048b0 <prvResetNextTaskUnblockTime+0x20>)
100048a6:	6a9a      	ldr	r2, [r3, #40]	; 0x28
100048a8:	68d2      	ldr	r2, [r2, #12]
100048aa:	6812      	ldr	r2, [r2, #0]
100048ac:	62da      	str	r2, [r3, #44]	; 0x2c
100048ae:	e7f8      	b.n	100048a2 <prvResetNextTaskUnblockTime+0x12>
100048b0:	20000c6c 	.word	0x20000c6c

100048b4 <prvDeleteTCB>:
100048b4:	b510      	push	{r4, lr}
100048b6:	0004      	movs	r4, r0
100048b8:	6b00      	ldr	r0, [r0, #48]	; 0x30
100048ba:	f001 fb63 	bl	10005f84 <vPortFree>
100048be:	0020      	movs	r0, r4
100048c0:	f001 fb60 	bl	10005f84 <vPortFree>
100048c4:	bd10      	pop	{r4, pc}

100048c6 <prvInitialiseNewTask>:
100048c6:	b5f0      	push	{r4, r5, r6, r7, lr}
100048c8:	46de      	mov	lr, fp
100048ca:	4657      	mov	r7, sl
100048cc:	464e      	mov	r6, r9
100048ce:	b5c0      	push	{r6, r7, lr}
100048d0:	4682      	mov	sl, r0
100048d2:	469b      	mov	fp, r3
100048d4:	9e08      	ldr	r6, [sp, #32]
100048d6:	9f0a      	ldr	r7, [sp, #40]	; 0x28
100048d8:	4b1c      	ldr	r3, [pc, #112]	; (1000494c <prvInitialiseNewTask+0x86>)
100048da:	469c      	mov	ip, r3
100048dc:	4462      	add	r2, ip
100048de:	0092      	lsls	r2, r2, #2
100048e0:	6b3b      	ldr	r3, [r7, #48]	; 0x30
100048e2:	469c      	mov	ip, r3
100048e4:	4462      	add	r2, ip
100048e6:	2307      	movs	r3, #7
100048e8:	439a      	bics	r2, r3
100048ea:	4691      	mov	r9, r2
100048ec:	2900      	cmp	r1, #0
100048ee:	d00e      	beq.n	1000490e <prvInitialiseNewTask+0x48>
100048f0:	2400      	movs	r4, #0
100048f2:	2c0f      	cmp	r4, #15
100048f4:	d808      	bhi.n	10004908 <prvInitialiseNewTask+0x42>
100048f6:	5d0b      	ldrb	r3, [r1, r4]
100048f8:	193d      	adds	r5, r7, r4
100048fa:	3534      	adds	r5, #52	; 0x34
100048fc:	702b      	strb	r3, [r5, #0]
100048fe:	5d0b      	ldrb	r3, [r1, r4]
10004900:	2b00      	cmp	r3, #0
10004902:	d001      	beq.n	10004908 <prvInitialiseNewTask+0x42>
10004904:	3401      	adds	r4, #1
10004906:	e7f4      	b.n	100048f2 <prvInitialiseNewTask+0x2c>
10004908:	2343      	movs	r3, #67	; 0x43
1000490a:	2200      	movs	r2, #0
1000490c:	54fa      	strb	r2, [r7, r3]
1000490e:	2e04      	cmp	r6, #4
10004910:	d900      	bls.n	10004914 <prvInitialiseNewTask+0x4e>
10004912:	2604      	movs	r6, #4
10004914:	62fe      	str	r6, [r7, #44]	; 0x2c
10004916:	1d38      	adds	r0, r7, #4
10004918:	f001 fc13 	bl	10006142 <vListInitialiseItem>
1000491c:	0038      	movs	r0, r7
1000491e:	3018      	adds	r0, #24
10004920:	f001 fc0f 	bl	10006142 <vListInitialiseItem>
10004924:	613f      	str	r7, [r7, #16]
10004926:	2305      	movs	r3, #5
10004928:	1b9e      	subs	r6, r3, r6
1000492a:	61be      	str	r6, [r7, #24]
1000492c:	627f      	str	r7, [r7, #36]	; 0x24
1000492e:	465a      	mov	r2, fp
10004930:	4651      	mov	r1, sl
10004932:	4648      	mov	r0, r9
10004934:	f001 fb56 	bl	10005fe4 <pxPortInitialiseStack>
10004938:	6038      	str	r0, [r7, #0]
1000493a:	9b09      	ldr	r3, [sp, #36]	; 0x24
1000493c:	2b00      	cmp	r3, #0
1000493e:	d000      	beq.n	10004942 <prvInitialiseNewTask+0x7c>
10004940:	601f      	str	r7, [r3, #0]
10004942:	bce0      	pop	{r5, r6, r7}
10004944:	46bb      	mov	fp, r7
10004946:	46b2      	mov	sl, r6
10004948:	46a9      	mov	r9, r5
1000494a:	bdf0      	pop	{r4, r5, r6, r7, pc}
1000494c:	3fffffff 	.word	0x3fffffff

10004950 <prvInitialiseTaskLists>:
10004950:	b5f8      	push	{r3, r4, r5, r6, r7, lr}
10004952:	2400      	movs	r4, #0
10004954:	e008      	b.n	10004968 <prvInitialiseTaskLists+0x18>
10004956:	4812      	ldr	r0, [pc, #72]	; (100049a0 <prvInitialiseTaskLists+0x50>)
10004958:	00a3      	lsls	r3, r4, #2
1000495a:	191b      	adds	r3, r3, r4
1000495c:	009a      	lsls	r2, r3, #2
1000495e:	3030      	adds	r0, #48	; 0x30
10004960:	1880      	adds	r0, r0, r2
10004962:	f001 fbe3 	bl	1000612c <vListInitialise>
10004966:	3401      	adds	r4, #1
10004968:	2c04      	cmp	r4, #4
1000496a:	d9f4      	bls.n	10004956 <prvInitialiseTaskLists+0x6>
1000496c:	4c0d      	ldr	r4, [pc, #52]	; (100049a4 <prvInitialiseTaskLists+0x54>)
1000496e:	0027      	movs	r7, r4
10004970:	3714      	adds	r7, #20
10004972:	0038      	movs	r0, r7
10004974:	f001 fbda 	bl	1000612c <vListInitialise>
10004978:	0026      	movs	r6, r4
1000497a:	3628      	adds	r6, #40	; 0x28
1000497c:	0030      	movs	r0, r6
1000497e:	f001 fbd5 	bl	1000612c <vListInitialise>
10004982:	4d07      	ldr	r5, [pc, #28]	; (100049a0 <prvInitialiseTaskLists+0x50>)
10004984:	0028      	movs	r0, r5
10004986:	3014      	adds	r0, #20
10004988:	f001 fbd0 	bl	1000612c <vListInitialise>
1000498c:	0020      	movs	r0, r4
1000498e:	303c      	adds	r0, #60	; 0x3c
10004990:	f001 fbcc 	bl	1000612c <vListInitialise>
10004994:	0028      	movs	r0, r5
10004996:	f001 fbc9 	bl	1000612c <vListInitialise>
1000499a:	62af      	str	r7, [r5, #40]	; 0x28
1000499c:	6526      	str	r6, [r4, #80]	; 0x50
1000499e:	bdf8      	pop	{r3, r4, r5, r6, r7, pc}
100049a0:	20000c6c 	.word	0x20000c6c
100049a4:	20000cec 	.word	0x20000cec

100049a8 <prvAddNewTaskToReadyList>:
100049a8:	b570      	push	{r4, r5, r6, lr}
100049aa:	0004      	movs	r4, r0
100049ac:	f001 fb38 	bl	10006020 <vPortEnterCritical>
100049b0:	4b27      	ldr	r3, [pc, #156]	; (10004a50 <prvAddNewTaskToReadyList+0xa8>)
100049b2:	6d5a      	ldr	r2, [r3, #84]	; 0x54
100049b4:	3201      	adds	r2, #1
100049b6:	655a      	str	r2, [r3, #84]	; 0x54
100049b8:	6d9b      	ldr	r3, [r3, #88]	; 0x58
100049ba:	2b00      	cmp	r3, #0
100049bc:	d00c      	beq.n	100049d8 <prvAddNewTaskToReadyList+0x30>
100049be:	4b24      	ldr	r3, [pc, #144]	; (10004a50 <prvAddNewTaskToReadyList+0xa8>)
100049c0:	6ddb      	ldr	r3, [r3, #92]	; 0x5c
100049c2:	2b00      	cmp	r3, #0
100049c4:	d10d      	bne.n	100049e2 <prvAddNewTaskToReadyList+0x3a>
100049c6:	4b22      	ldr	r3, [pc, #136]	; (10004a50 <prvAddNewTaskToReadyList+0xa8>)
100049c8:	6d9b      	ldr	r3, [r3, #88]	; 0x58
100049ca:	6adb      	ldr	r3, [r3, #44]	; 0x2c
100049cc:	6ae2      	ldr	r2, [r4, #44]	; 0x2c
100049ce:	4293      	cmp	r3, r2
100049d0:	d807      	bhi.n	100049e2 <prvAddNewTaskToReadyList+0x3a>
100049d2:	4b1f      	ldr	r3, [pc, #124]	; (10004a50 <prvAddNewTaskToReadyList+0xa8>)
100049d4:	659c      	str	r4, [r3, #88]	; 0x58
100049d6:	e004      	b.n	100049e2 <prvAddNewTaskToReadyList+0x3a>
100049d8:	4b1d      	ldr	r3, [pc, #116]	; (10004a50 <prvAddNewTaskToReadyList+0xa8>)
100049da:	659c      	str	r4, [r3, #88]	; 0x58
100049dc:	6d5b      	ldr	r3, [r3, #84]	; 0x54
100049de:	2b01      	cmp	r3, #1
100049e0:	d02f      	beq.n	10004a42 <prvAddNewTaskToReadyList+0x9a>
100049e2:	4a1b      	ldr	r2, [pc, #108]	; (10004a50 <prvAddNewTaskToReadyList+0xa8>)
100049e4:	6e13      	ldr	r3, [r2, #96]	; 0x60
100049e6:	3301      	adds	r3, #1
100049e8:	6613      	str	r3, [r2, #96]	; 0x60
100049ea:	6ae3      	ldr	r3, [r4, #44]	; 0x2c
100049ec:	6e52      	ldr	r2, [r2, #100]	; 0x64
100049ee:	4293      	cmp	r3, r2
100049f0:	d901      	bls.n	100049f6 <prvAddNewTaskToReadyList+0x4e>
100049f2:	4a17      	ldr	r2, [pc, #92]	; (10004a50 <prvAddNewTaskToReadyList+0xa8>)
100049f4:	6653      	str	r3, [r2, #100]	; 0x64
100049f6:	4917      	ldr	r1, [pc, #92]	; (10004a54 <prvAddNewTaskToReadyList+0xac>)
100049f8:	009a      	lsls	r2, r3, #2
100049fa:	18d2      	adds	r2, r2, r3
100049fc:	0092      	lsls	r2, r2, #2
100049fe:	188a      	adds	r2, r1, r2
10004a00:	6b53      	ldr	r3, [r2, #52]	; 0x34
10004a02:	60a3      	str	r3, [r4, #8]
10004a04:	6898      	ldr	r0, [r3, #8]
10004a06:	60e0      	str	r0, [r4, #12]
10004a08:	1d22      	adds	r2, r4, #4
10004a0a:	6042      	str	r2, [r0, #4]
10004a0c:	609a      	str	r2, [r3, #8]
10004a0e:	6ae0      	ldr	r0, [r4, #44]	; 0x2c
10004a10:	000a      	movs	r2, r1
10004a12:	3230      	adds	r2, #48	; 0x30
10004a14:	0083      	lsls	r3, r0, #2
10004a16:	181d      	adds	r5, r3, r0
10004a18:	00ad      	lsls	r5, r5, #2
10004a1a:	1952      	adds	r2, r2, r5
10004a1c:	6162      	str	r2, [r4, #20]
10004a1e:	194a      	adds	r2, r1, r5
10004a20:	6b12      	ldr	r2, [r2, #48]	; 0x30
10004a22:	3201      	adds	r2, #1
10004a24:	194b      	adds	r3, r1, r5
10004a26:	631a      	str	r2, [r3, #48]	; 0x30
10004a28:	f001 fb06 	bl	10006038 <vPortExitCritical>
10004a2c:	4b08      	ldr	r3, [pc, #32]	; (10004a50 <prvAddNewTaskToReadyList+0xa8>)
10004a2e:	6ddb      	ldr	r3, [r3, #92]	; 0x5c
10004a30:	2b00      	cmp	r3, #0
10004a32:	d005      	beq.n	10004a40 <prvAddNewTaskToReadyList+0x98>
10004a34:	4b06      	ldr	r3, [pc, #24]	; (10004a50 <prvAddNewTaskToReadyList+0xa8>)
10004a36:	6d9b      	ldr	r3, [r3, #88]	; 0x58
10004a38:	6ada      	ldr	r2, [r3, #44]	; 0x2c
10004a3a:	6ae3      	ldr	r3, [r4, #44]	; 0x2c
10004a3c:	429a      	cmp	r2, r3
10004a3e:	d303      	bcc.n	10004a48 <prvAddNewTaskToReadyList+0xa0>
10004a40:	bd70      	pop	{r4, r5, r6, pc}
10004a42:	f7ff ff85 	bl	10004950 <prvInitialiseTaskLists>
10004a46:	e7cc      	b.n	100049e2 <prvAddNewTaskToReadyList+0x3a>
10004a48:	f001 fade 	bl	10006008 <vPortYield>
10004a4c:	e7f8      	b.n	10004a40 <prvAddNewTaskToReadyList+0x98>
10004a4e:	46c0      	nop			; (mov r8, r8)
10004a50:	20000cec 	.word	0x20000cec
10004a54:	20000c6c 	.word	0x20000c6c

10004a58 <prvCheckTasksWaitingTermination>:
10004a58:	b570      	push	{r4, r5, r6, lr}
10004a5a:	e012      	b.n	10004a82 <prvCheckTasksWaitingTermination+0x2a>
10004a5c:	f001 fae0 	bl	10006020 <vPortEnterCritical>
10004a60:	4c0a      	ldr	r4, [pc, #40]	; (10004a8c <prvCheckTasksWaitingTermination+0x34>)
10004a62:	6ca3      	ldr	r3, [r4, #72]	; 0x48
10004a64:	68dd      	ldr	r5, [r3, #12]
10004a66:	1d28      	adds	r0, r5, #4
10004a68:	f001 fb90 	bl	1000618c <uxListRemove>
10004a6c:	6d63      	ldr	r3, [r4, #84]	; 0x54
10004a6e:	3b01      	subs	r3, #1
10004a70:	6563      	str	r3, [r4, #84]	; 0x54
10004a72:	6ea3      	ldr	r3, [r4, #104]	; 0x68
10004a74:	3b01      	subs	r3, #1
10004a76:	66a3      	str	r3, [r4, #104]	; 0x68
10004a78:	f001 fade 	bl	10006038 <vPortExitCritical>
10004a7c:	0028      	movs	r0, r5
10004a7e:	f7ff ff19 	bl	100048b4 <prvDeleteTCB>
10004a82:	4b02      	ldr	r3, [pc, #8]	; (10004a8c <prvCheckTasksWaitingTermination+0x34>)
10004a84:	6e9b      	ldr	r3, [r3, #104]	; 0x68
10004a86:	2b00      	cmp	r3, #0
10004a88:	d1e8      	bne.n	10004a5c <prvCheckTasksWaitingTermination+0x4>
10004a8a:	bd70      	pop	{r4, r5, r6, pc}
10004a8c:	20000cec 	.word	0x20000cec

10004a90 <prvIdleTask>:
10004a90:	b510      	push	{r4, lr}
10004a92:	f7ff ffe1 	bl	10004a58 <prvCheckTasksWaitingTermination>
10004a96:	4b03      	ldr	r3, [pc, #12]	; (10004aa4 <prvIdleTask+0x14>)
10004a98:	6b1b      	ldr	r3, [r3, #48]	; 0x30
10004a9a:	2b01      	cmp	r3, #1
10004a9c:	d9f9      	bls.n	10004a92 <prvIdleTask+0x2>
10004a9e:	f001 fab3 	bl	10006008 <vPortYield>
10004aa2:	e7f6      	b.n	10004a92 <prvIdleTask+0x2>
10004aa4:	20000c6c 	.word	0x20000c6c

10004aa8 <prvAddCurrentTaskToDelayedList>:
10004aa8:	b570      	push	{r4, r5, r6, lr}
10004aaa:	0004      	movs	r4, r0
10004aac:	000d      	movs	r5, r1
10004aae:	4b1c      	ldr	r3, [pc, #112]	; (10004b20 <prvAddCurrentTaskToDelayedList+0x78>)
10004ab0:	6ede      	ldr	r6, [r3, #108]	; 0x6c
10004ab2:	6d98      	ldr	r0, [r3, #88]	; 0x58
10004ab4:	3004      	adds	r0, #4
10004ab6:	f001 fb69 	bl	1000618c <uxListRemove>
10004aba:	1c63      	adds	r3, r4, #1
10004abc:	d00c      	beq.n	10004ad8 <prvAddCurrentTaskToDelayedList+0x30>
10004abe:	1934      	adds	r4, r6, r4
10004ac0:	4b17      	ldr	r3, [pc, #92]	; (10004b20 <prvAddCurrentTaskToDelayedList+0x78>)
10004ac2:	6d9b      	ldr	r3, [r3, #88]	; 0x58
10004ac4:	605c      	str	r4, [r3, #4]
10004ac6:	42a6      	cmp	r6, r4
10004ac8:	d91c      	bls.n	10004b04 <prvAddCurrentTaskToDelayedList+0x5c>
10004aca:	4b15      	ldr	r3, [pc, #84]	; (10004b20 <prvAddCurrentTaskToDelayedList+0x78>)
10004acc:	6d18      	ldr	r0, [r3, #80]	; 0x50
10004ace:	6d99      	ldr	r1, [r3, #88]	; 0x58
10004ad0:	3104      	adds	r1, #4
10004ad2:	f001 fb44 	bl	1000615e <vListInsert>
10004ad6:	bd70      	pop	{r4, r5, r6, pc}
10004ad8:	2d00      	cmp	r5, #0
10004ada:	d0f0      	beq.n	10004abe <prvAddCurrentTaskToDelayedList+0x16>
10004adc:	4a11      	ldr	r2, [pc, #68]	; (10004b24 <prvAddCurrentTaskToDelayedList+0x7c>)
10004ade:	6851      	ldr	r1, [r2, #4]
10004ae0:	4b0f      	ldr	r3, [pc, #60]	; (10004b20 <prvAddCurrentTaskToDelayedList+0x78>)
10004ae2:	6d98      	ldr	r0, [r3, #88]	; 0x58
10004ae4:	6081      	str	r1, [r0, #8]
10004ae6:	6d98      	ldr	r0, [r3, #88]	; 0x58
10004ae8:	688c      	ldr	r4, [r1, #8]
10004aea:	60c4      	str	r4, [r0, #12]
10004aec:	6d98      	ldr	r0, [r3, #88]	; 0x58
10004aee:	3004      	adds	r0, #4
10004af0:	6060      	str	r0, [r4, #4]
10004af2:	6d98      	ldr	r0, [r3, #88]	; 0x58
10004af4:	3004      	adds	r0, #4
10004af6:	6088      	str	r0, [r1, #8]
10004af8:	6d9b      	ldr	r3, [r3, #88]	; 0x58
10004afa:	615a      	str	r2, [r3, #20]
10004afc:	6813      	ldr	r3, [r2, #0]
10004afe:	3301      	adds	r3, #1
10004b00:	6013      	str	r3, [r2, #0]
10004b02:	e7e8      	b.n	10004ad6 <prvAddCurrentTaskToDelayedList+0x2e>
10004b04:	4d07      	ldr	r5, [pc, #28]	; (10004b24 <prvAddCurrentTaskToDelayedList+0x7c>)
10004b06:	6aa8      	ldr	r0, [r5, #40]	; 0x28
10004b08:	4b05      	ldr	r3, [pc, #20]	; (10004b20 <prvAddCurrentTaskToDelayedList+0x78>)
10004b0a:	6d99      	ldr	r1, [r3, #88]	; 0x58
10004b0c:	3104      	adds	r1, #4
10004b0e:	f001 fb26 	bl	1000615e <vListInsert>
10004b12:	6aeb      	ldr	r3, [r5, #44]	; 0x2c
10004b14:	42a3      	cmp	r3, r4
10004b16:	d9de      	bls.n	10004ad6 <prvAddCurrentTaskToDelayedList+0x2e>
10004b18:	4b02      	ldr	r3, [pc, #8]	; (10004b24 <prvAddCurrentTaskToDelayedList+0x7c>)
10004b1a:	62dc      	str	r4, [r3, #44]	; 0x2c
10004b1c:	e7db      	b.n	10004ad6 <prvAddCurrentTaskToDelayedList+0x2e>
10004b1e:	46c0      	nop			; (mov r8, r8)
10004b20:	20000cec 	.word	0x20000cec
10004b24:	20000c6c 	.word	0x20000c6c

10004b28 <xTaskCreate>:
10004b28:	b5f0      	push	{r4, r5, r6, r7, lr}
10004b2a:	b087      	sub	sp, #28
10004b2c:	9004      	str	r0, [sp, #16]
10004b2e:	9105      	str	r1, [sp, #20]
10004b30:	0016      	movs	r6, r2
10004b32:	001f      	movs	r7, r3
10004b34:	0090      	lsls	r0, r2, #2
10004b36:	f001 fa19 	bl	10005f6c <pvPortMalloc>
10004b3a:	1e04      	subs	r4, r0, #0
10004b3c:	d021      	beq.n	10004b82 <xTaskCreate+0x5a>
10004b3e:	2068      	movs	r0, #104	; 0x68
10004b40:	f001 fa14 	bl	10005f6c <pvPortMalloc>
10004b44:	1e05      	subs	r5, r0, #0
10004b46:	d018      	beq.n	10004b7a <xTaskCreate+0x52>
10004b48:	2268      	movs	r2, #104	; 0x68
10004b4a:	2100      	movs	r1, #0
10004b4c:	f7ff fbf8 	bl	10004340 <__wrap_memset>
10004b50:	632c      	str	r4, [r5, #48]	; 0x30
10004b52:	2d00      	cmp	r5, #0
10004b54:	d019      	beq.n	10004b8a <xTaskCreate+0x62>
10004b56:	2300      	movs	r3, #0
10004b58:	9303      	str	r3, [sp, #12]
10004b5a:	9502      	str	r5, [sp, #8]
10004b5c:	9b0d      	ldr	r3, [sp, #52]	; 0x34
10004b5e:	9301      	str	r3, [sp, #4]
10004b60:	9b0c      	ldr	r3, [sp, #48]	; 0x30
10004b62:	9300      	str	r3, [sp, #0]
10004b64:	003b      	movs	r3, r7
10004b66:	0032      	movs	r2, r6
10004b68:	9905      	ldr	r1, [sp, #20]
10004b6a:	9804      	ldr	r0, [sp, #16]
10004b6c:	f7ff feab 	bl	100048c6 <prvInitialiseNewTask>
10004b70:	0028      	movs	r0, r5
10004b72:	f7ff ff19 	bl	100049a8 <prvAddNewTaskToReadyList>
10004b76:	2001      	movs	r0, #1
10004b78:	e005      	b.n	10004b86 <xTaskCreate+0x5e>
10004b7a:	0020      	movs	r0, r4
10004b7c:	f001 fa02 	bl	10005f84 <vPortFree>
10004b80:	e7e7      	b.n	10004b52 <xTaskCreate+0x2a>
10004b82:	2001      	movs	r0, #1
10004b84:	4240      	negs	r0, r0
10004b86:	b007      	add	sp, #28
10004b88:	bdf0      	pop	{r4, r5, r6, r7, pc}
10004b8a:	2001      	movs	r0, #1
10004b8c:	4240      	negs	r0, r0
10004b8e:	e7fa      	b.n	10004b86 <xTaskCreate+0x5e>

10004b90 <vTaskDelete>:
10004b90:	b570      	push	{r4, r5, r6, lr}
10004b92:	0004      	movs	r4, r0
10004b94:	f001 fa44 	bl	10006020 <vPortEnterCritical>
10004b98:	2c00      	cmp	r4, #0
10004b9a:	d029      	beq.n	10004bf0 <vTaskDelete+0x60>
10004b9c:	1d25      	adds	r5, r4, #4
10004b9e:	0028      	movs	r0, r5
10004ba0:	f001 faf4 	bl	1000618c <uxListRemove>
10004ba4:	6aa3      	ldr	r3, [r4, #40]	; 0x28
10004ba6:	2b00      	cmp	r3, #0
10004ba8:	d003      	beq.n	10004bb2 <vTaskDelete+0x22>
10004baa:	0020      	movs	r0, r4
10004bac:	3018      	adds	r0, #24
10004bae:	f001 faed 	bl	1000618c <uxListRemove>
10004bb2:	4b17      	ldr	r3, [pc, #92]	; (10004c10 <vTaskDelete+0x80>)
10004bb4:	6e1a      	ldr	r2, [r3, #96]	; 0x60
10004bb6:	3201      	adds	r2, #1
10004bb8:	661a      	str	r2, [r3, #96]	; 0x60
10004bba:	6d9b      	ldr	r3, [r3, #88]	; 0x58
10004bbc:	42a3      	cmp	r3, r4
10004bbe:	d01a      	beq.n	10004bf6 <vTaskDelete+0x66>
10004bc0:	4a13      	ldr	r2, [pc, #76]	; (10004c10 <vTaskDelete+0x80>)
10004bc2:	6d53      	ldr	r3, [r2, #84]	; 0x54
10004bc4:	3b01      	subs	r3, #1
10004bc6:	6553      	str	r3, [r2, #84]	; 0x54
10004bc8:	f7ff fe62 	bl	10004890 <prvResetNextTaskUnblockTime>
10004bcc:	f001 fa34 	bl	10006038 <vPortExitCritical>
10004bd0:	4b0f      	ldr	r3, [pc, #60]	; (10004c10 <vTaskDelete+0x80>)
10004bd2:	6d9b      	ldr	r3, [r3, #88]	; 0x58
10004bd4:	42a3      	cmp	r3, r4
10004bd6:	d002      	beq.n	10004bde <vTaskDelete+0x4e>
10004bd8:	0020      	movs	r0, r4
10004bda:	f7ff fe6b 	bl	100048b4 <prvDeleteTCB>
10004bde:	4b0c      	ldr	r3, [pc, #48]	; (10004c10 <vTaskDelete+0x80>)
10004be0:	6ddb      	ldr	r3, [r3, #92]	; 0x5c
10004be2:	2b00      	cmp	r3, #0
10004be4:	d003      	beq.n	10004bee <vTaskDelete+0x5e>
10004be6:	4b0a      	ldr	r3, [pc, #40]	; (10004c10 <vTaskDelete+0x80>)
10004be8:	6d9b      	ldr	r3, [r3, #88]	; 0x58
10004bea:	42a3      	cmp	r3, r4
10004bec:	d00d      	beq.n	10004c0a <vTaskDelete+0x7a>
10004bee:	bd70      	pop	{r4, r5, r6, pc}
10004bf0:	4b07      	ldr	r3, [pc, #28]	; (10004c10 <vTaskDelete+0x80>)
10004bf2:	6d9c      	ldr	r4, [r3, #88]	; 0x58
10004bf4:	e7d2      	b.n	10004b9c <vTaskDelete+0xc>
10004bf6:	4e06      	ldr	r6, [pc, #24]	; (10004c10 <vTaskDelete+0x80>)
10004bf8:	0030      	movs	r0, r6
10004bfa:	303c      	adds	r0, #60	; 0x3c
10004bfc:	0029      	movs	r1, r5
10004bfe:	f001 faa3 	bl	10006148 <vListInsertEnd>
10004c02:	6eb3      	ldr	r3, [r6, #104]	; 0x68
10004c04:	3301      	adds	r3, #1
10004c06:	66b3      	str	r3, [r6, #104]	; 0x68
10004c08:	e7e0      	b.n	10004bcc <vTaskDelete+0x3c>
10004c0a:	f001 f9fd 	bl	10006008 <vPortYield>
10004c0e:	e7ee      	b.n	10004bee <vTaskDelete+0x5e>
10004c10:	20000cec 	.word	0x20000cec

10004c14 <uxTaskPriorityGet>:
10004c14:	b510      	push	{r4, lr}
10004c16:	0004      	movs	r4, r0
10004c18:	f001 fa02 	bl	10006020 <vPortEnterCritical>
10004c1c:	2c00      	cmp	r4, #0
10004c1e:	d004      	beq.n	10004c2a <uxTaskPriorityGet+0x16>
10004c20:	6ae4      	ldr	r4, [r4, #44]	; 0x2c
10004c22:	f001 fa09 	bl	10006038 <vPortExitCritical>
10004c26:	0020      	movs	r0, r4
10004c28:	bd10      	pop	{r4, pc}
10004c2a:	4b01      	ldr	r3, [pc, #4]	; (10004c30 <uxTaskPriorityGet+0x1c>)
10004c2c:	6d9c      	ldr	r4, [r3, #88]	; 0x58
10004c2e:	e7f7      	b.n	10004c20 <uxTaskPriorityGet+0xc>
10004c30:	20000cec 	.word	0x20000cec

10004c34 <uxTaskPriorityGetFromISR>:
10004c34:	b510      	push	{r4, lr}
10004c36:	0004      	movs	r4, r0
10004c38:	f001 fa08 	bl	1000604c <ulSetInterruptMaskFromISR>
10004c3c:	2c00      	cmp	r4, #0
10004c3e:	d004      	beq.n	10004c4a <uxTaskPriorityGetFromISR+0x16>
10004c40:	6ae4      	ldr	r4, [r4, #44]	; 0x2c
10004c42:	f001 fa07 	bl	10006054 <vClearInterruptMaskFromISR>
10004c46:	0020      	movs	r0, r4
10004c48:	bd10      	pop	{r4, pc}
10004c4a:	4b01      	ldr	r3, [pc, #4]	; (10004c50 <uxTaskPriorityGetFromISR+0x1c>)
10004c4c:	6d9c      	ldr	r4, [r3, #88]	; 0x58
10004c4e:	e7f7      	b.n	10004c40 <uxTaskPriorityGetFromISR+0xc>
10004c50:	20000cec 	.word	0x20000cec

10004c54 <vTaskPrioritySet>:
10004c54:	b570      	push	{r4, r5, r6, lr}
10004c56:	0004      	movs	r4, r0
10004c58:	000d      	movs	r5, r1
10004c5a:	2904      	cmp	r1, #4
10004c5c:	d900      	bls.n	10004c60 <vTaskPrioritySet+0xc>
10004c5e:	2504      	movs	r5, #4
10004c60:	f001 f9de 	bl	10006020 <vPortEnterCritical>
10004c64:	2c00      	cmp	r4, #0
10004c66:	d00e      	beq.n	10004c86 <vTaskPrioritySet+0x32>
10004c68:	6ae3      	ldr	r3, [r4, #44]	; 0x2c
10004c6a:	429d      	cmp	r5, r3
10004c6c:	d026      	beq.n	10004cbc <vTaskPrioritySet+0x68>
10004c6e:	d90d      	bls.n	10004c8c <vTaskPrioritySet+0x38>
10004c70:	4a2a      	ldr	r2, [pc, #168]	; (10004d1c <vTaskPrioritySet+0xc8>)
10004c72:	6d92      	ldr	r2, [r2, #88]	; 0x58
10004c74:	42a2      	cmp	r2, r4
10004c76:	d024      	beq.n	10004cc2 <vTaskPrioritySet+0x6e>
10004c78:	4a28      	ldr	r2, [pc, #160]	; (10004d1c <vTaskPrioritySet+0xc8>)
10004c7a:	6d92      	ldr	r2, [r2, #88]	; 0x58
10004c7c:	6ad2      	ldr	r2, [r2, #44]	; 0x2c
10004c7e:	42aa      	cmp	r2, r5
10004c80:	d921      	bls.n	10004cc6 <vTaskPrioritySet+0x72>
10004c82:	2600      	movs	r6, #0
10004c84:	e007      	b.n	10004c96 <vTaskPrioritySet+0x42>
10004c86:	4b25      	ldr	r3, [pc, #148]	; (10004d1c <vTaskPrioritySet+0xc8>)
10004c88:	6d9c      	ldr	r4, [r3, #88]	; 0x58
10004c8a:	e7ed      	b.n	10004c68 <vTaskPrioritySet+0x14>
10004c8c:	4a23      	ldr	r2, [pc, #140]	; (10004d1c <vTaskPrioritySet+0xc8>)
10004c8e:	6d92      	ldr	r2, [r2, #88]	; 0x58
10004c90:	42a2      	cmp	r2, r4
10004c92:	d01a      	beq.n	10004cca <vTaskPrioritySet+0x76>
10004c94:	2600      	movs	r6, #0
10004c96:	62e5      	str	r5, [r4, #44]	; 0x2c
10004c98:	69a2      	ldr	r2, [r4, #24]
10004c9a:	2a00      	cmp	r2, #0
10004c9c:	db02      	blt.n	10004ca4 <vTaskPrioritySet+0x50>
10004c9e:	2105      	movs	r1, #5
10004ca0:	1b4d      	subs	r5, r1, r5
10004ca2:	61a5      	str	r5, [r4, #24]
10004ca4:	4a1e      	ldr	r2, [pc, #120]	; (10004d20 <vTaskPrioritySet+0xcc>)
10004ca6:	0099      	lsls	r1, r3, #2
10004ca8:	18c9      	adds	r1, r1, r3
10004caa:	0089      	lsls	r1, r1, #2
10004cac:	0013      	movs	r3, r2
10004cae:	3330      	adds	r3, #48	; 0x30
10004cb0:	185b      	adds	r3, r3, r1
10004cb2:	6962      	ldr	r2, [r4, #20]
10004cb4:	429a      	cmp	r2, r3
10004cb6:	d00a      	beq.n	10004cce <vTaskPrioritySet+0x7a>
10004cb8:	2e00      	cmp	r6, #0
10004cba:	d12c      	bne.n	10004d16 <vTaskPrioritySet+0xc2>
10004cbc:	f001 f9bc 	bl	10006038 <vPortExitCritical>
10004cc0:	bd70      	pop	{r4, r5, r6, pc}
10004cc2:	2600      	movs	r6, #0
10004cc4:	e7e7      	b.n	10004c96 <vTaskPrioritySet+0x42>
10004cc6:	2601      	movs	r6, #1
10004cc8:	e7e5      	b.n	10004c96 <vTaskPrioritySet+0x42>
10004cca:	2601      	movs	r6, #1
10004ccc:	e7e3      	b.n	10004c96 <vTaskPrioritySet+0x42>
10004cce:	1d25      	adds	r5, r4, #4
10004cd0:	0028      	movs	r0, r5
10004cd2:	f001 fa5b 	bl	1000618c <uxListRemove>
10004cd6:	6ae3      	ldr	r3, [r4, #44]	; 0x2c
10004cd8:	4a10      	ldr	r2, [pc, #64]	; (10004d1c <vTaskPrioritySet+0xc8>)
10004cda:	6e52      	ldr	r2, [r2, #100]	; 0x64
10004cdc:	4293      	cmp	r3, r2
10004cde:	d901      	bls.n	10004ce4 <vTaskPrioritySet+0x90>
10004ce0:	4a0e      	ldr	r2, [pc, #56]	; (10004d1c <vTaskPrioritySet+0xc8>)
10004ce2:	6653      	str	r3, [r2, #100]	; 0x64
10004ce4:	490e      	ldr	r1, [pc, #56]	; (10004d20 <vTaskPrioritySet+0xcc>)
10004ce6:	009a      	lsls	r2, r3, #2
10004ce8:	18d2      	adds	r2, r2, r3
10004cea:	0092      	lsls	r2, r2, #2
10004cec:	188a      	adds	r2, r1, r2
10004cee:	6b53      	ldr	r3, [r2, #52]	; 0x34
10004cf0:	60a3      	str	r3, [r4, #8]
10004cf2:	689a      	ldr	r2, [r3, #8]
10004cf4:	60e2      	str	r2, [r4, #12]
10004cf6:	6055      	str	r5, [r2, #4]
10004cf8:	609d      	str	r5, [r3, #8]
10004cfa:	6ae0      	ldr	r0, [r4, #44]	; 0x2c
10004cfc:	000a      	movs	r2, r1
10004cfe:	3230      	adds	r2, #48	; 0x30
10004d00:	0083      	lsls	r3, r0, #2
10004d02:	181d      	adds	r5, r3, r0
10004d04:	00ad      	lsls	r5, r5, #2
10004d06:	1952      	adds	r2, r2, r5
10004d08:	6162      	str	r2, [r4, #20]
10004d0a:	194a      	adds	r2, r1, r5
10004d0c:	6b12      	ldr	r2, [r2, #48]	; 0x30
10004d0e:	3201      	adds	r2, #1
10004d10:	194b      	adds	r3, r1, r5
10004d12:	631a      	str	r2, [r3, #48]	; 0x30
10004d14:	e7d0      	b.n	10004cb8 <vTaskPrioritySet+0x64>
10004d16:	f001 f977 	bl	10006008 <vPortYield>
10004d1a:	e7cf      	b.n	10004cbc <vTaskPrioritySet+0x68>
10004d1c:	20000cec 	.word	0x20000cec
10004d20:	20000c6c 	.word	0x20000c6c

10004d24 <vTaskResume>:
10004d24:	b570      	push	{r4, r5, r6, lr}
10004d26:	0004      	movs	r4, r0
10004d28:	4b1d      	ldr	r3, [pc, #116]	; (10004da0 <vTaskResume+0x7c>)
10004d2a:	6d9b      	ldr	r3, [r3, #88]	; 0x58
10004d2c:	4283      	cmp	r3, r0
10004d2e:	d00a      	beq.n	10004d46 <vTaskResume+0x22>
10004d30:	2800      	cmp	r0, #0
10004d32:	d008      	beq.n	10004d46 <vTaskResume+0x22>
10004d34:	f001 f974 	bl	10006020 <vPortEnterCritical>
10004d38:	0020      	movs	r0, r4
10004d3a:	f7ff fd95 	bl	10004868 <prvTaskIsTaskSuspended>
10004d3e:	2800      	cmp	r0, #0
10004d40:	d102      	bne.n	10004d48 <vTaskResume+0x24>
10004d42:	f001 f979 	bl	10006038 <vPortExitCritical>
10004d46:	bd70      	pop	{r4, r5, r6, pc}
10004d48:	1d25      	adds	r5, r4, #4
10004d4a:	0028      	movs	r0, r5
10004d4c:	f001 fa1e 	bl	1000618c <uxListRemove>
10004d50:	6ae3      	ldr	r3, [r4, #44]	; 0x2c
10004d52:	4a13      	ldr	r2, [pc, #76]	; (10004da0 <vTaskResume+0x7c>)
10004d54:	6e52      	ldr	r2, [r2, #100]	; 0x64
10004d56:	4293      	cmp	r3, r2
10004d58:	d901      	bls.n	10004d5e <vTaskResume+0x3a>
10004d5a:	4a11      	ldr	r2, [pc, #68]	; (10004da0 <vTaskResume+0x7c>)
10004d5c:	6653      	str	r3, [r2, #100]	; 0x64
10004d5e:	4911      	ldr	r1, [pc, #68]	; (10004da4 <vTaskResume+0x80>)
10004d60:	009a      	lsls	r2, r3, #2
10004d62:	18d2      	adds	r2, r2, r3
10004d64:	0092      	lsls	r2, r2, #2
10004d66:	188a      	adds	r2, r1, r2
10004d68:	6b53      	ldr	r3, [r2, #52]	; 0x34
10004d6a:	60a3      	str	r3, [r4, #8]
10004d6c:	689a      	ldr	r2, [r3, #8]
10004d6e:	60e2      	str	r2, [r4, #12]
10004d70:	6055      	str	r5, [r2, #4]
10004d72:	609d      	str	r5, [r3, #8]
10004d74:	6ae0      	ldr	r0, [r4, #44]	; 0x2c
10004d76:	000a      	movs	r2, r1
10004d78:	3230      	adds	r2, #48	; 0x30
10004d7a:	0083      	lsls	r3, r0, #2
10004d7c:	181d      	adds	r5, r3, r0
10004d7e:	00ad      	lsls	r5, r5, #2
10004d80:	1952      	adds	r2, r2, r5
10004d82:	6162      	str	r2, [r4, #20]
10004d84:	194a      	adds	r2, r1, r5
10004d86:	6b12      	ldr	r2, [r2, #48]	; 0x30
10004d88:	3201      	adds	r2, #1
10004d8a:	194b      	adds	r3, r1, r5
10004d8c:	631a      	str	r2, [r3, #48]	; 0x30
10004d8e:	6ae2      	ldr	r2, [r4, #44]	; 0x2c
10004d90:	4b03      	ldr	r3, [pc, #12]	; (10004da0 <vTaskResume+0x7c>)
10004d92:	6d9b      	ldr	r3, [r3, #88]	; 0x58
10004d94:	6adb      	ldr	r3, [r3, #44]	; 0x2c
10004d96:	429a      	cmp	r2, r3
10004d98:	d3d3      	bcc.n	10004d42 <vTaskResume+0x1e>
10004d9a:	f001 f935 	bl	10006008 <vPortYield>
10004d9e:	e7d0      	b.n	10004d42 <vTaskResume+0x1e>
10004da0:	20000cec 	.word	0x20000cec
10004da4:	20000c6c 	.word	0x20000c6c

10004da8 <xTaskResumeFromISR>:
10004da8:	b5f8      	push	{r3, r4, r5, r6, r7, lr}
10004daa:	0004      	movs	r4, r0
10004dac:	f001 f94e 	bl	1000604c <ulSetInterruptMaskFromISR>
10004db0:	0006      	movs	r6, r0
10004db2:	0020      	movs	r0, r4
10004db4:	f7ff fd58 	bl	10004868 <prvTaskIsTaskSuspended>
10004db8:	1e05      	subs	r5, r0, #0
10004dba:	d030      	beq.n	10004e1e <xTaskResumeFromISR+0x76>
10004dbc:	4b1f      	ldr	r3, [pc, #124]	; (10004e3c <xTaskResumeFromISR+0x94>)
10004dbe:	6f1b      	ldr	r3, [r3, #112]	; 0x70
10004dc0:	2b00      	cmp	r3, #0
10004dc2:	d133      	bne.n	10004e2c <xTaskResumeFromISR+0x84>
10004dc4:	4b1d      	ldr	r3, [pc, #116]	; (10004e3c <xTaskResumeFromISR+0x94>)
10004dc6:	6d9b      	ldr	r3, [r3, #88]	; 0x58
10004dc8:	6adb      	ldr	r3, [r3, #44]	; 0x2c
10004dca:	6ae2      	ldr	r2, [r4, #44]	; 0x2c
10004dcc:	429a      	cmp	r2, r3
10004dce:	d32b      	bcc.n	10004e28 <xTaskResumeFromISR+0x80>
10004dd0:	4b1a      	ldr	r3, [pc, #104]	; (10004e3c <xTaskResumeFromISR+0x94>)
10004dd2:	2201      	movs	r2, #1
10004dd4:	675a      	str	r2, [r3, #116]	; 0x74
10004dd6:	2501      	movs	r5, #1
10004dd8:	1d27      	adds	r7, r4, #4
10004dda:	0038      	movs	r0, r7
10004ddc:	f001 f9d6 	bl	1000618c <uxListRemove>
10004de0:	6ae3      	ldr	r3, [r4, #44]	; 0x2c
10004de2:	4a16      	ldr	r2, [pc, #88]	; (10004e3c <xTaskResumeFromISR+0x94>)
10004de4:	6e52      	ldr	r2, [r2, #100]	; 0x64
10004de6:	4293      	cmp	r3, r2
10004de8:	d901      	bls.n	10004dee <xTaskResumeFromISR+0x46>
10004dea:	4a14      	ldr	r2, [pc, #80]	; (10004e3c <xTaskResumeFromISR+0x94>)
10004dec:	6653      	str	r3, [r2, #100]	; 0x64
10004dee:	4914      	ldr	r1, [pc, #80]	; (10004e40 <xTaskResumeFromISR+0x98>)
10004df0:	009a      	lsls	r2, r3, #2
10004df2:	18d2      	adds	r2, r2, r3
10004df4:	0092      	lsls	r2, r2, #2
10004df6:	188a      	adds	r2, r1, r2
10004df8:	6b53      	ldr	r3, [r2, #52]	; 0x34
10004dfa:	60a3      	str	r3, [r4, #8]
10004dfc:	689a      	ldr	r2, [r3, #8]
10004dfe:	60e2      	str	r2, [r4, #12]
10004e00:	6057      	str	r7, [r2, #4]
10004e02:	609f      	str	r7, [r3, #8]
10004e04:	6ae0      	ldr	r0, [r4, #44]	; 0x2c
10004e06:	000a      	movs	r2, r1
10004e08:	3230      	adds	r2, #48	; 0x30
10004e0a:	0083      	lsls	r3, r0, #2
10004e0c:	181f      	adds	r7, r3, r0
10004e0e:	00bf      	lsls	r7, r7, #2
10004e10:	19d2      	adds	r2, r2, r7
10004e12:	6162      	str	r2, [r4, #20]
10004e14:	19ca      	adds	r2, r1, r7
10004e16:	6b12      	ldr	r2, [r2, #48]	; 0x30
10004e18:	3201      	adds	r2, #1
10004e1a:	19cb      	adds	r3, r1, r7
10004e1c:	631a      	str	r2, [r3, #48]	; 0x30
10004e1e:	0030      	movs	r0, r6
10004e20:	f001 f918 	bl	10006054 <vClearInterruptMaskFromISR>
10004e24:	0028      	movs	r0, r5
10004e26:	bdf8      	pop	{r3, r4, r5, r6, r7, pc}
10004e28:	2500      	movs	r5, #0
10004e2a:	e7d5      	b.n	10004dd8 <xTaskResumeFromISR+0x30>
10004e2c:	0021      	movs	r1, r4
10004e2e:	3118      	adds	r1, #24
10004e30:	4803      	ldr	r0, [pc, #12]	; (10004e40 <xTaskResumeFromISR+0x98>)
10004e32:	3014      	adds	r0, #20
10004e34:	f001 f988 	bl	10006148 <vListInsertEnd>
10004e38:	2500      	movs	r5, #0
10004e3a:	e7f0      	b.n	10004e1e <xTaskResumeFromISR+0x76>
10004e3c:	20000cec 	.word	0x20000cec
10004e40:	20000c6c 	.word	0x20000c6c

10004e44 <vTaskStartScheduler>:
10004e44:	b500      	push	{lr}
10004e46:	b083      	sub	sp, #12
10004e48:	4b10      	ldr	r3, [pc, #64]	; (10004e8c <vTaskStartScheduler+0x48>)
10004e4a:	3378      	adds	r3, #120	; 0x78
10004e4c:	9301      	str	r3, [sp, #4]
10004e4e:	2300      	movs	r3, #0
10004e50:	9300      	str	r3, [sp, #0]
10004e52:	2280      	movs	r2, #128	; 0x80
10004e54:	490e      	ldr	r1, [pc, #56]	; (10004e90 <vTaskStartScheduler+0x4c>)
10004e56:	480f      	ldr	r0, [pc, #60]	; (10004e94 <vTaskStartScheduler+0x50>)
10004e58:	f7ff fe66 	bl	10004b28 <xTaskCreate>
10004e5c:	2801      	cmp	r0, #1
10004e5e:	d005      	beq.n	10004e6c <vTaskStartScheduler+0x28>
10004e60:	2801      	cmp	r0, #1
10004e62:	d006      	beq.n	10004e72 <vTaskStartScheduler+0x2e>
10004e64:	4b0c      	ldr	r3, [pc, #48]	; (10004e98 <vTaskStartScheduler+0x54>)
10004e66:	681b      	ldr	r3, [r3, #0]
10004e68:	b003      	add	sp, #12
10004e6a:	bd00      	pop	{pc}
10004e6c:	f000 ffc5 	bl	10005dfa <xTimerCreateTimerTask>
10004e70:	e7f6      	b.n	10004e60 <vTaskStartScheduler+0x1c>
10004e72:	b672      	cpsid	i
10004e74:	4b09      	ldr	r3, [pc, #36]	; (10004e9c <vTaskStartScheduler+0x58>)
10004e76:	2201      	movs	r2, #1
10004e78:	4252      	negs	r2, r2
10004e7a:	62da      	str	r2, [r3, #44]	; 0x2c
10004e7c:	4b03      	ldr	r3, [pc, #12]	; (10004e8c <vTaskStartScheduler+0x48>)
10004e7e:	3202      	adds	r2, #2
10004e80:	65da      	str	r2, [r3, #92]	; 0x5c
10004e82:	2200      	movs	r2, #0
10004e84:	66da      	str	r2, [r3, #108]	; 0x6c
10004e86:	f001 f933 	bl	100060f0 <xPortStartScheduler>
10004e8a:	e7eb      	b.n	10004e64 <vTaskStartScheduler+0x20>
10004e8c:	20000cec 	.word	0x20000cec
10004e90:	100082d0 	.word	0x100082d0
10004e94:	10004a91 	.word	0x10004a91
10004e98:	200002e8 	.word	0x200002e8
10004e9c:	20000c6c 	.word	0x20000c6c

10004ea0 <vTaskEndScheduler>:
10004ea0:	b510      	push	{r4, lr}
10004ea2:	b672      	cpsid	i
10004ea4:	4b02      	ldr	r3, [pc, #8]	; (10004eb0 <vTaskEndScheduler+0x10>)
10004ea6:	2200      	movs	r2, #0
10004ea8:	65da      	str	r2, [r3, #92]	; 0x5c
10004eaa:	f001 f8ac 	bl	10006006 <vPortEndScheduler>
10004eae:	bd10      	pop	{r4, pc}
10004eb0:	20000cec 	.word	0x20000cec

10004eb4 <vTaskSuspendAll>:
10004eb4:	4a02      	ldr	r2, [pc, #8]	; (10004ec0 <vTaskSuspendAll+0xc>)
10004eb6:	6f13      	ldr	r3, [r2, #112]	; 0x70
10004eb8:	3301      	adds	r3, #1
10004eba:	6713      	str	r3, [r2, #112]	; 0x70
10004ebc:	4770      	bx	lr
10004ebe:	46c0      	nop			; (mov r8, r8)
10004ec0:	20000cec 	.word	0x20000cec

10004ec4 <xTaskGetTickCount>:
10004ec4:	4b01      	ldr	r3, [pc, #4]	; (10004ecc <xTaskGetTickCount+0x8>)
10004ec6:	6ed8      	ldr	r0, [r3, #108]	; 0x6c
10004ec8:	4770      	bx	lr
10004eca:	46c0      	nop			; (mov r8, r8)
10004ecc:	20000cec 	.word	0x20000cec

10004ed0 <xTaskGetTickCountFromISR>:
10004ed0:	4b01      	ldr	r3, [pc, #4]	; (10004ed8 <xTaskGetTickCountFromISR+0x8>)
10004ed2:	6ed8      	ldr	r0, [r3, #108]	; 0x6c
10004ed4:	4770      	bx	lr
10004ed6:	46c0      	nop			; (mov r8, r8)
10004ed8:	20000cec 	.word	0x20000cec

10004edc <uxTaskGetNumberOfTasks>:
10004edc:	4b01      	ldr	r3, [pc, #4]	; (10004ee4 <uxTaskGetNumberOfTasks+0x8>)
10004ede:	6d58      	ldr	r0, [r3, #84]	; 0x54
10004ee0:	4770      	bx	lr
10004ee2:	46c0      	nop			; (mov r8, r8)
10004ee4:	20000cec 	.word	0x20000cec

10004ee8 <pcTaskGetName>:
10004ee8:	2800      	cmp	r0, #0
10004eea:	d001      	beq.n	10004ef0 <pcTaskGetName+0x8>
10004eec:	3034      	adds	r0, #52	; 0x34
10004eee:	4770      	bx	lr
10004ef0:	4b01      	ldr	r3, [pc, #4]	; (10004ef8 <pcTaskGetName+0x10>)
10004ef2:	6d98      	ldr	r0, [r3, #88]	; 0x58
10004ef4:	e7fa      	b.n	10004eec <pcTaskGetName+0x4>
10004ef6:	46c0      	nop			; (mov r8, r8)
10004ef8:	20000cec 	.word	0x20000cec

10004efc <xTaskIncrementTick>:
10004efc:	b5f8      	push	{r3, r4, r5, r6, r7, lr}
10004efe:	4b47      	ldr	r3, [pc, #284]	; (1000501c <xTaskIncrementTick+0x120>)
10004f00:	6f1b      	ldr	r3, [r3, #112]	; 0x70
10004f02:	2b00      	cmp	r3, #0
10004f04:	d000      	beq.n	10004f08 <xTaskIncrementTick+0xc>
10004f06:	e082      	b.n	1000500e <xTaskIncrementTick+0x112>
10004f08:	4b44      	ldr	r3, [pc, #272]	; (1000501c <xTaskIncrementTick+0x120>)
10004f0a:	6ede      	ldr	r6, [r3, #108]	; 0x6c
10004f0c:	3601      	adds	r6, #1
10004f0e:	66de      	str	r6, [r3, #108]	; 0x6c
10004f10:	2e00      	cmp	r6, #0
10004f12:	d00a      	beq.n	10004f2a <xTaskIncrementTick+0x2e>
10004f14:	4b42      	ldr	r3, [pc, #264]	; (10005020 <xTaskIncrementTick+0x124>)
10004f16:	6adb      	ldr	r3, [r3, #44]	; 0x2c
10004f18:	42b3      	cmp	r3, r6
10004f1a:	d911      	bls.n	10004f40 <xTaskIncrementTick+0x44>
10004f1c:	2000      	movs	r0, #0
10004f1e:	4b3f      	ldr	r3, [pc, #252]	; (1000501c <xTaskIncrementTick+0x120>)
10004f20:	6f5b      	ldr	r3, [r3, #116]	; 0x74
10004f22:	2b00      	cmp	r3, #0
10004f24:	d078      	beq.n	10005018 <xTaskIncrementTick+0x11c>
10004f26:	2001      	movs	r0, #1
10004f28:	e076      	b.n	10005018 <xTaskIncrementTick+0x11c>
10004f2a:	4a3d      	ldr	r2, [pc, #244]	; (10005020 <xTaskIncrementTick+0x124>)
10004f2c:	6a91      	ldr	r1, [r2, #40]	; 0x28
10004f2e:	6d18      	ldr	r0, [r3, #80]	; 0x50
10004f30:	6290      	str	r0, [r2, #40]	; 0x28
10004f32:	6519      	str	r1, [r3, #80]	; 0x50
10004f34:	6fda      	ldr	r2, [r3, #124]	; 0x7c
10004f36:	3201      	adds	r2, #1
10004f38:	67da      	str	r2, [r3, #124]	; 0x7c
10004f3a:	f7ff fca9 	bl	10004890 <prvResetNextTaskUnblockTime>
10004f3e:	e7e9      	b.n	10004f14 <xTaskIncrementTick+0x18>
10004f40:	2000      	movs	r0, #0
10004f42:	e039      	b.n	10004fb8 <xTaskIncrementTick+0xbc>
10004f44:	4b36      	ldr	r3, [pc, #216]	; (10005020 <xTaskIncrementTick+0x124>)
10004f46:	2201      	movs	r2, #1
10004f48:	4252      	negs	r2, r2
10004f4a:	62da      	str	r2, [r3, #44]	; 0x2c
10004f4c:	e7e7      	b.n	10004f1e <xTaskIncrementTick+0x22>
10004f4e:	4b34      	ldr	r3, [pc, #208]	; (10005020 <xTaskIncrementTick+0x124>)
10004f50:	62da      	str	r2, [r3, #44]	; 0x2c
10004f52:	e7e4      	b.n	10004f1e <xTaskIncrementTick+0x22>
10004f54:	68d9      	ldr	r1, [r3, #12]
10004f56:	6051      	str	r1, [r2, #4]
10004f58:	e044      	b.n	10004fe4 <xTaskIncrementTick+0xe8>
10004f5a:	2100      	movs	r1, #0
10004f5c:	6299      	str	r1, [r3, #40]	; 0x28
10004f5e:	6811      	ldr	r1, [r2, #0]
10004f60:	3901      	subs	r1, #1
10004f62:	6011      	str	r1, [r2, #0]
10004f64:	6ad9      	ldr	r1, [r3, #44]	; 0x2c
10004f66:	4a2d      	ldr	r2, [pc, #180]	; (1000501c <xTaskIncrementTick+0x120>)
10004f68:	6e52      	ldr	r2, [r2, #100]	; 0x64
10004f6a:	4291      	cmp	r1, r2
10004f6c:	d901      	bls.n	10004f72 <xTaskIncrementTick+0x76>
10004f6e:	4a2b      	ldr	r2, [pc, #172]	; (1000501c <xTaskIncrementTick+0x120>)
10004f70:	6651      	str	r1, [r2, #100]	; 0x64
10004f72:	4a2b      	ldr	r2, [pc, #172]	; (10005020 <xTaskIncrementTick+0x124>)
10004f74:	008c      	lsls	r4, r1, #2
10004f76:	1864      	adds	r4, r4, r1
10004f78:	00a1      	lsls	r1, r4, #2
10004f7a:	1851      	adds	r1, r2, r1
10004f7c:	6b49      	ldr	r1, [r1, #52]	; 0x34
10004f7e:	6099      	str	r1, [r3, #8]
10004f80:	688c      	ldr	r4, [r1, #8]
10004f82:	60dc      	str	r4, [r3, #12]
10004f84:	6065      	str	r5, [r4, #4]
10004f86:	608d      	str	r5, [r1, #8]
10004f88:	6adc      	ldr	r4, [r3, #44]	; 0x2c
10004f8a:	0015      	movs	r5, r2
10004f8c:	3530      	adds	r5, #48	; 0x30
10004f8e:	00a1      	lsls	r1, r4, #2
10004f90:	190f      	adds	r7, r1, r4
10004f92:	46bc      	mov	ip, r7
10004f94:	00bf      	lsls	r7, r7, #2
10004f96:	19ed      	adds	r5, r5, r7
10004f98:	615d      	str	r5, [r3, #20]
10004f9a:	4667      	mov	r7, ip
10004f9c:	00bd      	lsls	r5, r7, #2
10004f9e:	1955      	adds	r5, r2, r5
10004fa0:	6b2d      	ldr	r5, [r5, #48]	; 0x30
10004fa2:	3501      	adds	r5, #1
10004fa4:	00bc      	lsls	r4, r7, #2
10004fa6:	1912      	adds	r2, r2, r4
10004fa8:	6315      	str	r5, [r2, #48]	; 0x30
10004faa:	6ada      	ldr	r2, [r3, #44]	; 0x2c
10004fac:	4b1b      	ldr	r3, [pc, #108]	; (1000501c <xTaskIncrementTick+0x120>)
10004fae:	6d9b      	ldr	r3, [r3, #88]	; 0x58
10004fb0:	6adb      	ldr	r3, [r3, #44]	; 0x2c
10004fb2:	429a      	cmp	r2, r3
10004fb4:	d300      	bcc.n	10004fb8 <xTaskIncrementTick+0xbc>
10004fb6:	2001      	movs	r0, #1
10004fb8:	4b19      	ldr	r3, [pc, #100]	; (10005020 <xTaskIncrementTick+0x124>)
10004fba:	6a9b      	ldr	r3, [r3, #40]	; 0x28
10004fbc:	681b      	ldr	r3, [r3, #0]
10004fbe:	2b00      	cmp	r3, #0
10004fc0:	d0c0      	beq.n	10004f44 <xTaskIncrementTick+0x48>
10004fc2:	4b17      	ldr	r3, [pc, #92]	; (10005020 <xTaskIncrementTick+0x124>)
10004fc4:	6a9b      	ldr	r3, [r3, #40]	; 0x28
10004fc6:	68db      	ldr	r3, [r3, #12]
10004fc8:	68db      	ldr	r3, [r3, #12]
10004fca:	685a      	ldr	r2, [r3, #4]
10004fcc:	4296      	cmp	r6, r2
10004fce:	d3be      	bcc.n	10004f4e <xTaskIncrementTick+0x52>
10004fd0:	695a      	ldr	r2, [r3, #20]
10004fd2:	689c      	ldr	r4, [r3, #8]
10004fd4:	68d9      	ldr	r1, [r3, #12]
10004fd6:	60a1      	str	r1, [r4, #8]
10004fd8:	689c      	ldr	r4, [r3, #8]
10004fda:	604c      	str	r4, [r1, #4]
10004fdc:	1d1d      	adds	r5, r3, #4
10004fde:	6851      	ldr	r1, [r2, #4]
10004fe0:	42a9      	cmp	r1, r5
10004fe2:	d0b7      	beq.n	10004f54 <xTaskIncrementTick+0x58>
10004fe4:	2100      	movs	r1, #0
10004fe6:	6159      	str	r1, [r3, #20]
10004fe8:	6811      	ldr	r1, [r2, #0]
10004fea:	3901      	subs	r1, #1
10004fec:	6011      	str	r1, [r2, #0]
10004fee:	6a9a      	ldr	r2, [r3, #40]	; 0x28
10004ff0:	2a00      	cmp	r2, #0
10004ff2:	d0b7      	beq.n	10004f64 <xTaskIncrementTick+0x68>
10004ff4:	69dc      	ldr	r4, [r3, #28]
10004ff6:	6a19      	ldr	r1, [r3, #32]
10004ff8:	60a1      	str	r1, [r4, #8]
10004ffa:	69dc      	ldr	r4, [r3, #28]
10004ffc:	604c      	str	r4, [r1, #4]
10004ffe:	0019      	movs	r1, r3
10005000:	3118      	adds	r1, #24
10005002:	6854      	ldr	r4, [r2, #4]
10005004:	428c      	cmp	r4, r1
10005006:	d1a8      	bne.n	10004f5a <xTaskIncrementTick+0x5e>
10005008:	6a19      	ldr	r1, [r3, #32]
1000500a:	6051      	str	r1, [r2, #4]
1000500c:	e7a5      	b.n	10004f5a <xTaskIncrementTick+0x5e>
1000500e:	4a05      	ldr	r2, [pc, #20]	; (10005024 <xTaskIncrementTick+0x128>)
10005010:	6813      	ldr	r3, [r2, #0]
10005012:	3301      	adds	r3, #1
10005014:	6013      	str	r3, [r2, #0]
10005016:	2000      	movs	r0, #0
10005018:	bdf8      	pop	{r3, r4, r5, r6, r7, pc}
1000501a:	46c0      	nop			; (mov r8, r8)
1000501c:	20000cec 	.word	0x20000cec
10005020:	20000c6c 	.word	0x20000c6c
10005024:	20000d6c 	.word	0x20000d6c

10005028 <xTaskResumeAll>:
10005028:	b570      	push	{r4, r5, r6, lr}
1000502a:	f000 fff9 	bl	10006020 <vPortEnterCritical>
1000502e:	4b43      	ldr	r3, [pc, #268]	; (1000513c <xTaskResumeAll+0x114>)
10005030:	6f1a      	ldr	r2, [r3, #112]	; 0x70
10005032:	3a01      	subs	r2, #1
10005034:	671a      	str	r2, [r3, #112]	; 0x70
10005036:	6f1b      	ldr	r3, [r3, #112]	; 0x70
10005038:	2b00      	cmp	r3, #0
1000503a:	d17a      	bne.n	10005132 <xTaskResumeAll+0x10a>
1000503c:	4b3f      	ldr	r3, [pc, #252]	; (1000513c <xTaskResumeAll+0x114>)
1000503e:	6d5b      	ldr	r3, [r3, #84]	; 0x54
10005040:	2b00      	cmp	r3, #0
10005042:	d107      	bne.n	10005054 <xTaskResumeAll+0x2c>
10005044:	2400      	movs	r4, #0
10005046:	e075      	b.n	10005134 <xTaskResumeAll+0x10c>
10005048:	6a19      	ldr	r1, [r3, #32]
1000504a:	6051      	str	r1, [r2, #4]
1000504c:	e015      	b.n	1000507a <xTaskResumeAll+0x52>
1000504e:	68d9      	ldr	r1, [r3, #12]
10005050:	6051      	str	r1, [r2, #4]
10005052:	e021      	b.n	10005098 <xTaskResumeAll+0x70>
10005054:	2300      	movs	r3, #0
10005056:	4a3a      	ldr	r2, [pc, #232]	; (10005140 <xTaskResumeAll+0x118>)
10005058:	6952      	ldr	r2, [r2, #20]
1000505a:	2a00      	cmp	r2, #0
1000505c:	d04a      	beq.n	100050f4 <xTaskResumeAll+0xcc>
1000505e:	4b38      	ldr	r3, [pc, #224]	; (10005140 <xTaskResumeAll+0x118>)
10005060:	6a1b      	ldr	r3, [r3, #32]
10005062:	68db      	ldr	r3, [r3, #12]
10005064:	6a9a      	ldr	r2, [r3, #40]	; 0x28
10005066:	69d8      	ldr	r0, [r3, #28]
10005068:	6a19      	ldr	r1, [r3, #32]
1000506a:	6081      	str	r1, [r0, #8]
1000506c:	69d8      	ldr	r0, [r3, #28]
1000506e:	6048      	str	r0, [r1, #4]
10005070:	0019      	movs	r1, r3
10005072:	3118      	adds	r1, #24
10005074:	6850      	ldr	r0, [r2, #4]
10005076:	4288      	cmp	r0, r1
10005078:	d0e6      	beq.n	10005048 <xTaskResumeAll+0x20>
1000507a:	2100      	movs	r1, #0
1000507c:	6299      	str	r1, [r3, #40]	; 0x28
1000507e:	6811      	ldr	r1, [r2, #0]
10005080:	3901      	subs	r1, #1
10005082:	6011      	str	r1, [r2, #0]
10005084:	695a      	ldr	r2, [r3, #20]
10005086:	6898      	ldr	r0, [r3, #8]
10005088:	68d9      	ldr	r1, [r3, #12]
1000508a:	6081      	str	r1, [r0, #8]
1000508c:	6898      	ldr	r0, [r3, #8]
1000508e:	6048      	str	r0, [r1, #4]
10005090:	1d1c      	adds	r4, r3, #4
10005092:	6851      	ldr	r1, [r2, #4]
10005094:	42a1      	cmp	r1, r4
10005096:	d0da      	beq.n	1000504e <xTaskResumeAll+0x26>
10005098:	2100      	movs	r1, #0
1000509a:	6159      	str	r1, [r3, #20]
1000509c:	6811      	ldr	r1, [r2, #0]
1000509e:	3901      	subs	r1, #1
100050a0:	6011      	str	r1, [r2, #0]
100050a2:	6ada      	ldr	r2, [r3, #44]	; 0x2c
100050a4:	4925      	ldr	r1, [pc, #148]	; (1000513c <xTaskResumeAll+0x114>)
100050a6:	6e49      	ldr	r1, [r1, #100]	; 0x64
100050a8:	428a      	cmp	r2, r1
100050aa:	d901      	bls.n	100050b0 <xTaskResumeAll+0x88>
100050ac:	4923      	ldr	r1, [pc, #140]	; (1000513c <xTaskResumeAll+0x114>)
100050ae:	664a      	str	r2, [r1, #100]	; 0x64
100050b0:	4823      	ldr	r0, [pc, #140]	; (10005140 <xTaskResumeAll+0x118>)
100050b2:	0091      	lsls	r1, r2, #2
100050b4:	1889      	adds	r1, r1, r2
100050b6:	0089      	lsls	r1, r1, #2
100050b8:	1841      	adds	r1, r0, r1
100050ba:	6b4a      	ldr	r2, [r1, #52]	; 0x34
100050bc:	609a      	str	r2, [r3, #8]
100050be:	6891      	ldr	r1, [r2, #8]
100050c0:	60d9      	str	r1, [r3, #12]
100050c2:	604c      	str	r4, [r1, #4]
100050c4:	6094      	str	r4, [r2, #8]
100050c6:	6adc      	ldr	r4, [r3, #44]	; 0x2c
100050c8:	0001      	movs	r1, r0
100050ca:	3130      	adds	r1, #48	; 0x30
100050cc:	00a2      	lsls	r2, r4, #2
100050ce:	1915      	adds	r5, r2, r4
100050d0:	00ad      	lsls	r5, r5, #2
100050d2:	1949      	adds	r1, r1, r5
100050d4:	6159      	str	r1, [r3, #20]
100050d6:	1941      	adds	r1, r0, r5
100050d8:	6b09      	ldr	r1, [r1, #48]	; 0x30
100050da:	3101      	adds	r1, #1
100050dc:	1942      	adds	r2, r0, r5
100050de:	6311      	str	r1, [r2, #48]	; 0x30
100050e0:	4a16      	ldr	r2, [pc, #88]	; (1000513c <xTaskResumeAll+0x114>)
100050e2:	6d92      	ldr	r2, [r2, #88]	; 0x58
100050e4:	6ad2      	ldr	r2, [r2, #44]	; 0x2c
100050e6:	6ad9      	ldr	r1, [r3, #44]	; 0x2c
100050e8:	4291      	cmp	r1, r2
100050ea:	d3b4      	bcc.n	10005056 <xTaskResumeAll+0x2e>
100050ec:	4a13      	ldr	r2, [pc, #76]	; (1000513c <xTaskResumeAll+0x114>)
100050ee:	2101      	movs	r1, #1
100050f0:	6751      	str	r1, [r2, #116]	; 0x74
100050f2:	e7b0      	b.n	10005056 <xTaskResumeAll+0x2e>
100050f4:	2b00      	cmp	r3, #0
100050f6:	d001      	beq.n	100050fc <xTaskResumeAll+0xd4>
100050f8:	f7ff fbca 	bl	10004890 <prvResetNextTaskUnblockTime>
100050fc:	4b11      	ldr	r3, [pc, #68]	; (10005144 <xTaskResumeAll+0x11c>)
100050fe:	681c      	ldr	r4, [r3, #0]
10005100:	2c00      	cmp	r4, #0
10005102:	d10a      	bne.n	1000511a <xTaskResumeAll+0xf2>
10005104:	4b0d      	ldr	r3, [pc, #52]	; (1000513c <xTaskResumeAll+0x114>)
10005106:	6f5c      	ldr	r4, [r3, #116]	; 0x74
10005108:	2c00      	cmp	r4, #0
1000510a:	d013      	beq.n	10005134 <xTaskResumeAll+0x10c>
1000510c:	f000 ff7c 	bl	10006008 <vPortYield>
10005110:	2401      	movs	r4, #1
10005112:	e00f      	b.n	10005134 <xTaskResumeAll+0x10c>
10005114:	3c01      	subs	r4, #1
10005116:	2c00      	cmp	r4, #0
10005118:	d007      	beq.n	1000512a <xTaskResumeAll+0x102>
1000511a:	f7ff feef 	bl	10004efc <xTaskIncrementTick>
1000511e:	2800      	cmp	r0, #0
10005120:	d0f8      	beq.n	10005114 <xTaskResumeAll+0xec>
10005122:	4b06      	ldr	r3, [pc, #24]	; (1000513c <xTaskResumeAll+0x114>)
10005124:	2201      	movs	r2, #1
10005126:	675a      	str	r2, [r3, #116]	; 0x74
10005128:	e7f4      	b.n	10005114 <xTaskResumeAll+0xec>
1000512a:	4b06      	ldr	r3, [pc, #24]	; (10005144 <xTaskResumeAll+0x11c>)
1000512c:	2200      	movs	r2, #0
1000512e:	601a      	str	r2, [r3, #0]
10005130:	e7e8      	b.n	10005104 <xTaskResumeAll+0xdc>
10005132:	2400      	movs	r4, #0
10005134:	f000 ff80 	bl	10006038 <vPortExitCritical>
10005138:	0020      	movs	r0, r4
1000513a:	bd70      	pop	{r4, r5, r6, pc}
1000513c:	20000cec 	.word	0x20000cec
10005140:	20000c6c 	.word	0x20000c6c
10005144:	20000d6c 	.word	0x20000d6c

10005148 <xTaskDelayUntil>:
10005148:	b570      	push	{r4, r5, r6, lr}
1000514a:	0005      	movs	r5, r0
1000514c:	000c      	movs	r4, r1
1000514e:	f7ff feb1 	bl	10004eb4 <vTaskSuspendAll>
10005152:	4b14      	ldr	r3, [pc, #80]	; (100051a4 <xTaskDelayUntil+0x5c>)
10005154:	6ed8      	ldr	r0, [r3, #108]	; 0x6c
10005156:	682b      	ldr	r3, [r5, #0]
10005158:	191c      	adds	r4, r3, r4
1000515a:	4283      	cmp	r3, r0
1000515c:	d90b      	bls.n	10005176 <xTaskDelayUntil+0x2e>
1000515e:	42a3      	cmp	r3, r4
10005160:	d802      	bhi.n	10005168 <xTaskDelayUntil+0x20>
10005162:	602c      	str	r4, [r5, #0]
10005164:	2400      	movs	r4, #0
10005166:	e010      	b.n	1000518a <xTaskDelayUntil+0x42>
10005168:	42a0      	cmp	r0, r4
1000516a:	d302      	bcc.n	10005172 <xTaskDelayUntil+0x2a>
1000516c:	602c      	str	r4, [r5, #0]
1000516e:	2400      	movs	r4, #0
10005170:	e00b      	b.n	1000518a <xTaskDelayUntil+0x42>
10005172:	602c      	str	r4, [r5, #0]
10005174:	e004      	b.n	10005180 <xTaskDelayUntil+0x38>
10005176:	42a3      	cmp	r3, r4
10005178:	d801      	bhi.n	1000517e <xTaskDelayUntil+0x36>
1000517a:	42a0      	cmp	r0, r4
1000517c:	d20b      	bcs.n	10005196 <xTaskDelayUntil+0x4e>
1000517e:	602c      	str	r4, [r5, #0]
10005180:	1a20      	subs	r0, r4, r0
10005182:	2100      	movs	r1, #0
10005184:	f7ff fc90 	bl	10004aa8 <prvAddCurrentTaskToDelayedList>
10005188:	2401      	movs	r4, #1
1000518a:	f7ff ff4d 	bl	10005028 <xTaskResumeAll>
1000518e:	2800      	cmp	r0, #0
10005190:	d004      	beq.n	1000519c <xTaskDelayUntil+0x54>
10005192:	0020      	movs	r0, r4
10005194:	bd70      	pop	{r4, r5, r6, pc}
10005196:	602c      	str	r4, [r5, #0]
10005198:	2400      	movs	r4, #0
1000519a:	e7f6      	b.n	1000518a <xTaskDelayUntil+0x42>
1000519c:	f000 ff34 	bl	10006008 <vPortYield>
100051a0:	e7f7      	b.n	10005192 <xTaskDelayUntil+0x4a>
100051a2:	46c0      	nop			; (mov r8, r8)
100051a4:	20000cec 	.word	0x20000cec

100051a8 <vTaskDelay>:
100051a8:	b510      	push	{r4, lr}
100051aa:	1e04      	subs	r4, r0, #0
100051ac:	d009      	beq.n	100051c2 <vTaskDelay+0x1a>
100051ae:	f7ff fe81 	bl	10004eb4 <vTaskSuspendAll>
100051b2:	2100      	movs	r1, #0
100051b4:	0020      	movs	r0, r4
100051b6:	f7ff fc77 	bl	10004aa8 <prvAddCurrentTaskToDelayedList>
100051ba:	f7ff ff35 	bl	10005028 <xTaskResumeAll>
100051be:	2800      	cmp	r0, #0
100051c0:	d101      	bne.n	100051c6 <vTaskDelay+0x1e>
100051c2:	f000 ff21 	bl	10006008 <vPortYield>
100051c6:	bd10      	pop	{r4, pc}

100051c8 <xTaskCatchUpTicks>:
100051c8:	b510      	push	{r4, lr}
100051ca:	0004      	movs	r4, r0
100051cc:	f7ff fe72 	bl	10004eb4 <vTaskSuspendAll>
100051d0:	f000 ff26 	bl	10006020 <vPortEnterCritical>
100051d4:	4b04      	ldr	r3, [pc, #16]	; (100051e8 <xTaskCatchUpTicks+0x20>)
100051d6:	6818      	ldr	r0, [r3, #0]
100051d8:	1900      	adds	r0, r0, r4
100051da:	6018      	str	r0, [r3, #0]
100051dc:	f000 ff2c 	bl	10006038 <vPortExitCritical>
100051e0:	f7ff ff22 	bl	10005028 <xTaskResumeAll>
100051e4:	bd10      	pop	{r4, pc}
100051e6:	46c0      	nop			; (mov r8, r8)
100051e8:	20000d6c 	.word	0x20000d6c

100051ec <vTaskSwitchContext>:
100051ec:	b510      	push	{r4, lr}
100051ee:	4b1b      	ldr	r3, [pc, #108]	; (1000525c <vTaskSwitchContext+0x70>)
100051f0:	6f1b      	ldr	r3, [r3, #112]	; 0x70
100051f2:	2b00      	cmp	r3, #0
100051f4:	d003      	beq.n	100051fe <vTaskSwitchContext+0x12>
100051f6:	4b19      	ldr	r3, [pc, #100]	; (1000525c <vTaskSwitchContext+0x70>)
100051f8:	2201      	movs	r2, #1
100051fa:	675a      	str	r2, [r3, #116]	; 0x74
100051fc:	bd10      	pop	{r4, pc}
100051fe:	4b17      	ldr	r3, [pc, #92]	; (1000525c <vTaskSwitchContext+0x70>)
10005200:	2200      	movs	r2, #0
10005202:	675a      	str	r2, [r3, #116]	; 0x74
10005204:	6e5b      	ldr	r3, [r3, #100]	; 0x64
10005206:	e000      	b.n	1000520a <vTaskSwitchContext+0x1e>
10005208:	3b01      	subs	r3, #1
1000520a:	009a      	lsls	r2, r3, #2
1000520c:	18d2      	adds	r2, r2, r3
1000520e:	0091      	lsls	r1, r2, #2
10005210:	4a13      	ldr	r2, [pc, #76]	; (10005260 <vTaskSwitchContext+0x74>)
10005212:	1852      	adds	r2, r2, r1
10005214:	6b12      	ldr	r2, [r2, #48]	; 0x30
10005216:	2a00      	cmp	r2, #0
10005218:	d0f6      	beq.n	10005208 <vTaskSwitchContext+0x1c>
1000521a:	4a11      	ldr	r2, [pc, #68]	; (10005260 <vTaskSwitchContext+0x74>)
1000521c:	0099      	lsls	r1, r3, #2
1000521e:	18cc      	adds	r4, r1, r3
10005220:	00a0      	lsls	r0, r4, #2
10005222:	1810      	adds	r0, r2, r0
10005224:	6b44      	ldr	r4, [r0, #52]	; 0x34
10005226:	6864      	ldr	r4, [r4, #4]
10005228:	6344      	str	r4, [r0, #52]	; 0x34
1000522a:	3230      	adds	r2, #48	; 0x30
1000522c:	18c9      	adds	r1, r1, r3
1000522e:	0088      	lsls	r0, r1, #2
10005230:	3008      	adds	r0, #8
10005232:	1812      	adds	r2, r2, r0
10005234:	4294      	cmp	r4, r2
10005236:	d00a      	beq.n	1000524e <vTaskSwitchContext+0x62>
10005238:	009a      	lsls	r2, r3, #2
1000523a:	18d2      	adds	r2, r2, r3
1000523c:	0091      	lsls	r1, r2, #2
1000523e:	4a08      	ldr	r2, [pc, #32]	; (10005260 <vTaskSwitchContext+0x74>)
10005240:	1852      	adds	r2, r2, r1
10005242:	6b52      	ldr	r2, [r2, #52]	; 0x34
10005244:	68d1      	ldr	r1, [r2, #12]
10005246:	4a05      	ldr	r2, [pc, #20]	; (1000525c <vTaskSwitchContext+0x70>)
10005248:	6591      	str	r1, [r2, #88]	; 0x58
1000524a:	6653      	str	r3, [r2, #100]	; 0x64
1000524c:	e7d6      	b.n	100051fc <vTaskSwitchContext+0x10>
1000524e:	6860      	ldr	r0, [r4, #4]
10005250:	0089      	lsls	r1, r1, #2
10005252:	4a03      	ldr	r2, [pc, #12]	; (10005260 <vTaskSwitchContext+0x74>)
10005254:	1852      	adds	r2, r2, r1
10005256:	6350      	str	r0, [r2, #52]	; 0x34
10005258:	e7ee      	b.n	10005238 <vTaskSwitchContext+0x4c>
1000525a:	46c0      	nop			; (mov r8, r8)
1000525c:	20000cec 	.word	0x20000cec
10005260:	20000c6c 	.word	0x20000c6c

10005264 <vTaskSuspend>:
10005264:	b570      	push	{r4, r5, r6, lr}
10005266:	0004      	movs	r4, r0
10005268:	f000 feda 	bl	10006020 <vPortEnterCritical>
1000526c:	2c00      	cmp	r4, #0
1000526e:	d010      	beq.n	10005292 <vTaskSuspend+0x2e>
10005270:	1d25      	adds	r5, r4, #4
10005272:	0028      	movs	r0, r5
10005274:	f000 ff8a 	bl	1000618c <uxListRemove>
10005278:	6aa3      	ldr	r3, [r4, #40]	; 0x28
1000527a:	2b00      	cmp	r3, #0
1000527c:	d003      	beq.n	10005286 <vTaskSuspend+0x22>
1000527e:	0020      	movs	r0, r4
10005280:	3018      	adds	r0, #24
10005282:	f000 ff83 	bl	1000618c <uxListRemove>
10005286:	0029      	movs	r1, r5
10005288:	481d      	ldr	r0, [pc, #116]	; (10005300 <vTaskSuspend+0x9c>)
1000528a:	f000 ff5d 	bl	10006148 <vListInsertEnd>
1000528e:	2300      	movs	r3, #0
10005290:	e003      	b.n	1000529a <vTaskSuspend+0x36>
10005292:	4b1c      	ldr	r3, [pc, #112]	; (10005304 <vTaskSuspend+0xa0>)
10005294:	6d9c      	ldr	r4, [r3, #88]	; 0x58
10005296:	e7eb      	b.n	10005270 <vTaskSuspend+0xc>
10005298:	3301      	adds	r3, #1
1000529a:	2b02      	cmp	r3, #2
1000529c:	dc09      	bgt.n	100052b2 <vTaskSuspend+0x4e>
1000529e:	18e2      	adds	r2, r4, r3
100052a0:	3264      	adds	r2, #100	; 0x64
100052a2:	7812      	ldrb	r2, [r2, #0]
100052a4:	2a01      	cmp	r2, #1
100052a6:	d1f7      	bne.n	10005298 <vTaskSuspend+0x34>
100052a8:	18e2      	adds	r2, r4, r3
100052aa:	3264      	adds	r2, #100	; 0x64
100052ac:	2100      	movs	r1, #0
100052ae:	7011      	strb	r1, [r2, #0]
100052b0:	e7f2      	b.n	10005298 <vTaskSuspend+0x34>
100052b2:	f000 fec1 	bl	10006038 <vPortExitCritical>
100052b6:	4b13      	ldr	r3, [pc, #76]	; (10005304 <vTaskSuspend+0xa0>)
100052b8:	6ddb      	ldr	r3, [r3, #92]	; 0x5c
100052ba:	2b00      	cmp	r3, #0
100052bc:	d104      	bne.n	100052c8 <vTaskSuspend+0x64>
100052be:	4b11      	ldr	r3, [pc, #68]	; (10005304 <vTaskSuspend+0xa0>)
100052c0:	6d9b      	ldr	r3, [r3, #88]	; 0x58
100052c2:	42a3      	cmp	r3, r4
100052c4:	d007      	beq.n	100052d6 <vTaskSuspend+0x72>
100052c6:	bd70      	pop	{r4, r5, r6, pc}
100052c8:	f000 feaa 	bl	10006020 <vPortEnterCritical>
100052cc:	f7ff fae0 	bl	10004890 <prvResetNextTaskUnblockTime>
100052d0:	f000 feb2 	bl	10006038 <vPortExitCritical>
100052d4:	e7f3      	b.n	100052be <vTaskSuspend+0x5a>
100052d6:	4b0b      	ldr	r3, [pc, #44]	; (10005304 <vTaskSuspend+0xa0>)
100052d8:	6ddb      	ldr	r3, [r3, #92]	; 0x5c
100052da:	2b00      	cmp	r3, #0
100052dc:	d109      	bne.n	100052f2 <vTaskSuspend+0x8e>
100052de:	4b08      	ldr	r3, [pc, #32]	; (10005300 <vTaskSuspend+0x9c>)
100052e0:	681a      	ldr	r2, [r3, #0]
100052e2:	4b08      	ldr	r3, [pc, #32]	; (10005304 <vTaskSuspend+0xa0>)
100052e4:	6d5b      	ldr	r3, [r3, #84]	; 0x54
100052e6:	429a      	cmp	r2, r3
100052e8:	d106      	bne.n	100052f8 <vTaskSuspend+0x94>
100052ea:	4b06      	ldr	r3, [pc, #24]	; (10005304 <vTaskSuspend+0xa0>)
100052ec:	2200      	movs	r2, #0
100052ee:	659a      	str	r2, [r3, #88]	; 0x58
100052f0:	e7e9      	b.n	100052c6 <vTaskSuspend+0x62>
100052f2:	f000 fe89 	bl	10006008 <vPortYield>
100052f6:	e7e6      	b.n	100052c6 <vTaskSuspend+0x62>
100052f8:	f7ff ff78 	bl	100051ec <vTaskSwitchContext>
100052fc:	e7e3      	b.n	100052c6 <vTaskSuspend+0x62>
100052fe:	46c0      	nop			; (mov r8, r8)
10005300:	20000c6c 	.word	0x20000c6c
10005304:	20000cec 	.word	0x20000cec

10005308 <vTaskPlaceOnEventList>:
10005308:	b510      	push	{r4, lr}
1000530a:	000c      	movs	r4, r1
1000530c:	4b04      	ldr	r3, [pc, #16]	; (10005320 <vTaskPlaceOnEventList+0x18>)
1000530e:	6d99      	ldr	r1, [r3, #88]	; 0x58
10005310:	3118      	adds	r1, #24
10005312:	f000 ff24 	bl	1000615e <vListInsert>
10005316:	2101      	movs	r1, #1
10005318:	0020      	movs	r0, r4
1000531a:	f7ff fbc5 	bl	10004aa8 <prvAddCurrentTaskToDelayedList>
1000531e:	bd10      	pop	{r4, pc}
10005320:	20000cec 	.word	0x20000cec

10005324 <vTaskPlaceOnUnorderedEventList>:
10005324:	b570      	push	{r4, r5, r6, lr}
10005326:	0003      	movs	r3, r0
10005328:	0010      	movs	r0, r2
1000532a:	4c0d      	ldr	r4, [pc, #52]	; (10005360 <vTaskPlaceOnUnorderedEventList+0x3c>)
1000532c:	6da5      	ldr	r5, [r4, #88]	; 0x58
1000532e:	2280      	movs	r2, #128	; 0x80
10005330:	0612      	lsls	r2, r2, #24
10005332:	430a      	orrs	r2, r1
10005334:	61aa      	str	r2, [r5, #24]
10005336:	685a      	ldr	r2, [r3, #4]
10005338:	6da1      	ldr	r1, [r4, #88]	; 0x58
1000533a:	61ca      	str	r2, [r1, #28]
1000533c:	6da1      	ldr	r1, [r4, #88]	; 0x58
1000533e:	6895      	ldr	r5, [r2, #8]
10005340:	620d      	str	r5, [r1, #32]
10005342:	6da1      	ldr	r1, [r4, #88]	; 0x58
10005344:	3118      	adds	r1, #24
10005346:	6069      	str	r1, [r5, #4]
10005348:	6da1      	ldr	r1, [r4, #88]	; 0x58
1000534a:	3118      	adds	r1, #24
1000534c:	6091      	str	r1, [r2, #8]
1000534e:	6da2      	ldr	r2, [r4, #88]	; 0x58
10005350:	6293      	str	r3, [r2, #40]	; 0x28
10005352:	681a      	ldr	r2, [r3, #0]
10005354:	3201      	adds	r2, #1
10005356:	601a      	str	r2, [r3, #0]
10005358:	2101      	movs	r1, #1
1000535a:	f7ff fba5 	bl	10004aa8 <prvAddCurrentTaskToDelayedList>
1000535e:	bd70      	pop	{r4, r5, r6, pc}
10005360:	20000cec 	.word	0x20000cec

10005364 <vTaskPlaceOnEventListRestricted>:
10005364:	b570      	push	{r4, r5, r6, lr}
10005366:	0003      	movs	r3, r0
10005368:	0008      	movs	r0, r1
1000536a:	0011      	movs	r1, r2
1000536c:	685a      	ldr	r2, [r3, #4]
1000536e:	4c0c      	ldr	r4, [pc, #48]	; (100053a0 <vTaskPlaceOnEventListRestricted+0x3c>)
10005370:	6da5      	ldr	r5, [r4, #88]	; 0x58
10005372:	61ea      	str	r2, [r5, #28]
10005374:	6da5      	ldr	r5, [r4, #88]	; 0x58
10005376:	6896      	ldr	r6, [r2, #8]
10005378:	622e      	str	r6, [r5, #32]
1000537a:	6da5      	ldr	r5, [r4, #88]	; 0x58
1000537c:	3518      	adds	r5, #24
1000537e:	6075      	str	r5, [r6, #4]
10005380:	6da5      	ldr	r5, [r4, #88]	; 0x58
10005382:	3518      	adds	r5, #24
10005384:	6095      	str	r5, [r2, #8]
10005386:	6da2      	ldr	r2, [r4, #88]	; 0x58
10005388:	6293      	str	r3, [r2, #40]	; 0x28
1000538a:	681a      	ldr	r2, [r3, #0]
1000538c:	3201      	adds	r2, #1
1000538e:	601a      	str	r2, [r3, #0]
10005390:	2900      	cmp	r1, #0
10005392:	d001      	beq.n	10005398 <vTaskPlaceOnEventListRestricted+0x34>
10005394:	2001      	movs	r0, #1
10005396:	4240      	negs	r0, r0
10005398:	f7ff fb86 	bl	10004aa8 <prvAddCurrentTaskToDelayedList>
1000539c:	bd70      	pop	{r4, r5, r6, pc}
1000539e:	46c0      	nop			; (mov r8, r8)
100053a0:	20000cec 	.word	0x20000cec

100053a4 <xTaskRemoveFromEventList>:
100053a4:	b530      	push	{r4, r5, lr}
100053a6:	68c3      	ldr	r3, [r0, #12]
100053a8:	68db      	ldr	r3, [r3, #12]
100053aa:	6a9a      	ldr	r2, [r3, #40]	; 0x28
100053ac:	69d8      	ldr	r0, [r3, #28]
100053ae:	6a19      	ldr	r1, [r3, #32]
100053b0:	6081      	str	r1, [r0, #8]
100053b2:	69d8      	ldr	r0, [r3, #28]
100053b4:	6048      	str	r0, [r1, #4]
100053b6:	0018      	movs	r0, r3
100053b8:	3018      	adds	r0, #24
100053ba:	6851      	ldr	r1, [r2, #4]
100053bc:	4281      	cmp	r1, r0
100053be:	d041      	beq.n	10005444 <xTaskRemoveFromEventList+0xa0>
100053c0:	2100      	movs	r1, #0
100053c2:	6299      	str	r1, [r3, #40]	; 0x28
100053c4:	6811      	ldr	r1, [r2, #0]
100053c6:	3901      	subs	r1, #1
100053c8:	6011      	str	r1, [r2, #0]
100053ca:	4a29      	ldr	r2, [pc, #164]	; (10005470 <xTaskRemoveFromEventList+0xcc>)
100053cc:	6f12      	ldr	r2, [r2, #112]	; 0x70
100053ce:	2a00      	cmp	r2, #0
100053d0:	d13e      	bne.n	10005450 <xTaskRemoveFromEventList+0xac>
100053d2:	695a      	ldr	r2, [r3, #20]
100053d4:	6898      	ldr	r0, [r3, #8]
100053d6:	68d9      	ldr	r1, [r3, #12]
100053d8:	6081      	str	r1, [r0, #8]
100053da:	6898      	ldr	r0, [r3, #8]
100053dc:	6048      	str	r0, [r1, #4]
100053de:	1d1c      	adds	r4, r3, #4
100053e0:	6851      	ldr	r1, [r2, #4]
100053e2:	42a1      	cmp	r1, r4
100053e4:	d031      	beq.n	1000544a <xTaskRemoveFromEventList+0xa6>
100053e6:	2100      	movs	r1, #0
100053e8:	6159      	str	r1, [r3, #20]
100053ea:	6811      	ldr	r1, [r2, #0]
100053ec:	3901      	subs	r1, #1
100053ee:	6011      	str	r1, [r2, #0]
100053f0:	6ada      	ldr	r2, [r3, #44]	; 0x2c
100053f2:	491f      	ldr	r1, [pc, #124]	; (10005470 <xTaskRemoveFromEventList+0xcc>)
100053f4:	6e49      	ldr	r1, [r1, #100]	; 0x64
100053f6:	428a      	cmp	r2, r1
100053f8:	d901      	bls.n	100053fe <xTaskRemoveFromEventList+0x5a>
100053fa:	491d      	ldr	r1, [pc, #116]	; (10005470 <xTaskRemoveFromEventList+0xcc>)
100053fc:	664a      	str	r2, [r1, #100]	; 0x64
100053fe:	481d      	ldr	r0, [pc, #116]	; (10005474 <xTaskRemoveFromEventList+0xd0>)
10005400:	0091      	lsls	r1, r2, #2
10005402:	1889      	adds	r1, r1, r2
10005404:	0089      	lsls	r1, r1, #2
10005406:	1841      	adds	r1, r0, r1
10005408:	6b4a      	ldr	r2, [r1, #52]	; 0x34
1000540a:	609a      	str	r2, [r3, #8]
1000540c:	6891      	ldr	r1, [r2, #8]
1000540e:	60d9      	str	r1, [r3, #12]
10005410:	604c      	str	r4, [r1, #4]
10005412:	6094      	str	r4, [r2, #8]
10005414:	6adc      	ldr	r4, [r3, #44]	; 0x2c
10005416:	0001      	movs	r1, r0
10005418:	3130      	adds	r1, #48	; 0x30
1000541a:	00a2      	lsls	r2, r4, #2
1000541c:	1915      	adds	r5, r2, r4
1000541e:	00ad      	lsls	r5, r5, #2
10005420:	1949      	adds	r1, r1, r5
10005422:	6159      	str	r1, [r3, #20]
10005424:	1941      	adds	r1, r0, r5
10005426:	6b09      	ldr	r1, [r1, #48]	; 0x30
10005428:	3101      	adds	r1, #1
1000542a:	1942      	adds	r2, r0, r5
1000542c:	6311      	str	r1, [r2, #48]	; 0x30
1000542e:	6ada      	ldr	r2, [r3, #44]	; 0x2c
10005430:	4b0f      	ldr	r3, [pc, #60]	; (10005470 <xTaskRemoveFromEventList+0xcc>)
10005432:	6d9b      	ldr	r3, [r3, #88]	; 0x58
10005434:	6adb      	ldr	r3, [r3, #44]	; 0x2c
10005436:	429a      	cmp	r2, r3
10005438:	d918      	bls.n	1000546c <xTaskRemoveFromEventList+0xc8>
1000543a:	4b0d      	ldr	r3, [pc, #52]	; (10005470 <xTaskRemoveFromEventList+0xcc>)
1000543c:	2201      	movs	r2, #1
1000543e:	675a      	str	r2, [r3, #116]	; 0x74
10005440:	2001      	movs	r0, #1
10005442:	bd30      	pop	{r4, r5, pc}
10005444:	6a19      	ldr	r1, [r3, #32]
10005446:	6051      	str	r1, [r2, #4]
10005448:	e7ba      	b.n	100053c0 <xTaskRemoveFromEventList+0x1c>
1000544a:	68d9      	ldr	r1, [r3, #12]
1000544c:	6051      	str	r1, [r2, #4]
1000544e:	e7ca      	b.n	100053e6 <xTaskRemoveFromEventList+0x42>
10005450:	4a08      	ldr	r2, [pc, #32]	; (10005474 <xTaskRemoveFromEventList+0xd0>)
10005452:	6991      	ldr	r1, [r2, #24]
10005454:	61d9      	str	r1, [r3, #28]
10005456:	688c      	ldr	r4, [r1, #8]
10005458:	621c      	str	r4, [r3, #32]
1000545a:	6060      	str	r0, [r4, #4]
1000545c:	6088      	str	r0, [r1, #8]
1000545e:	0011      	movs	r1, r2
10005460:	3114      	adds	r1, #20
10005462:	6299      	str	r1, [r3, #40]	; 0x28
10005464:	6951      	ldr	r1, [r2, #20]
10005466:	3101      	adds	r1, #1
10005468:	6151      	str	r1, [r2, #20]
1000546a:	e7e0      	b.n	1000542e <xTaskRemoveFromEventList+0x8a>
1000546c:	2000      	movs	r0, #0
1000546e:	e7e8      	b.n	10005442 <xTaskRemoveFromEventList+0x9e>
10005470:	20000cec 	.word	0x20000cec
10005474:	20000c6c 	.word	0x20000c6c

10005478 <vTaskRemoveFromUnorderedEventList>:
10005478:	b530      	push	{r4, r5, lr}
1000547a:	2380      	movs	r3, #128	; 0x80
1000547c:	061b      	lsls	r3, r3, #24
1000547e:	430b      	orrs	r3, r1
10005480:	6003      	str	r3, [r0, #0]
10005482:	68c3      	ldr	r3, [r0, #12]
10005484:	6902      	ldr	r2, [r0, #16]
10005486:	6841      	ldr	r1, [r0, #4]
10005488:	6884      	ldr	r4, [r0, #8]
1000548a:	608c      	str	r4, [r1, #8]
1000548c:	6881      	ldr	r1, [r0, #8]
1000548e:	6844      	ldr	r4, [r0, #4]
10005490:	604c      	str	r4, [r1, #4]
10005492:	6851      	ldr	r1, [r2, #4]
10005494:	4281      	cmp	r1, r0
10005496:	d03c      	beq.n	10005512 <vTaskRemoveFromUnorderedEventList+0x9a>
10005498:	2100      	movs	r1, #0
1000549a:	6101      	str	r1, [r0, #16]
1000549c:	6811      	ldr	r1, [r2, #0]
1000549e:	3901      	subs	r1, #1
100054a0:	6011      	str	r1, [r2, #0]
100054a2:	695a      	ldr	r2, [r3, #20]
100054a4:	6898      	ldr	r0, [r3, #8]
100054a6:	68d9      	ldr	r1, [r3, #12]
100054a8:	6081      	str	r1, [r0, #8]
100054aa:	6898      	ldr	r0, [r3, #8]
100054ac:	6048      	str	r0, [r1, #4]
100054ae:	1d1c      	adds	r4, r3, #4
100054b0:	6851      	ldr	r1, [r2, #4]
100054b2:	42a1      	cmp	r1, r4
100054b4:	d030      	beq.n	10005518 <vTaskRemoveFromUnorderedEventList+0xa0>
100054b6:	2100      	movs	r1, #0
100054b8:	6159      	str	r1, [r3, #20]
100054ba:	6811      	ldr	r1, [r2, #0]
100054bc:	3901      	subs	r1, #1
100054be:	6011      	str	r1, [r2, #0]
100054c0:	6ada      	ldr	r2, [r3, #44]	; 0x2c
100054c2:	4917      	ldr	r1, [pc, #92]	; (10005520 <vTaskRemoveFromUnorderedEventList+0xa8>)
100054c4:	6e49      	ldr	r1, [r1, #100]	; 0x64
100054c6:	428a      	cmp	r2, r1
100054c8:	d901      	bls.n	100054ce <vTaskRemoveFromUnorderedEventList+0x56>
100054ca:	4915      	ldr	r1, [pc, #84]	; (10005520 <vTaskRemoveFromUnorderedEventList+0xa8>)
100054cc:	664a      	str	r2, [r1, #100]	; 0x64
100054ce:	4815      	ldr	r0, [pc, #84]	; (10005524 <vTaskRemoveFromUnorderedEventList+0xac>)
100054d0:	0091      	lsls	r1, r2, #2
100054d2:	1889      	adds	r1, r1, r2
100054d4:	0089      	lsls	r1, r1, #2
100054d6:	1841      	adds	r1, r0, r1
100054d8:	6b4a      	ldr	r2, [r1, #52]	; 0x34
100054da:	609a      	str	r2, [r3, #8]
100054dc:	6891      	ldr	r1, [r2, #8]
100054de:	60d9      	str	r1, [r3, #12]
100054e0:	604c      	str	r4, [r1, #4]
100054e2:	6094      	str	r4, [r2, #8]
100054e4:	6adc      	ldr	r4, [r3, #44]	; 0x2c
100054e6:	0001      	movs	r1, r0
100054e8:	3130      	adds	r1, #48	; 0x30
100054ea:	00a2      	lsls	r2, r4, #2
100054ec:	1915      	adds	r5, r2, r4
100054ee:	00ad      	lsls	r5, r5, #2
100054f0:	1949      	adds	r1, r1, r5
100054f2:	6159      	str	r1, [r3, #20]
100054f4:	1941      	adds	r1, r0, r5
100054f6:	6b09      	ldr	r1, [r1, #48]	; 0x30
100054f8:	3101      	adds	r1, #1
100054fa:	1942      	adds	r2, r0, r5
100054fc:	6311      	str	r1, [r2, #48]	; 0x30
100054fe:	6ada      	ldr	r2, [r3, #44]	; 0x2c
10005500:	4b07      	ldr	r3, [pc, #28]	; (10005520 <vTaskRemoveFromUnorderedEventList+0xa8>)
10005502:	6d9b      	ldr	r3, [r3, #88]	; 0x58
10005504:	6adb      	ldr	r3, [r3, #44]	; 0x2c
10005506:	429a      	cmp	r2, r3
10005508:	d902      	bls.n	10005510 <vTaskRemoveFromUnorderedEventList+0x98>
1000550a:	4b05      	ldr	r3, [pc, #20]	; (10005520 <vTaskRemoveFromUnorderedEventList+0xa8>)
1000550c:	2201      	movs	r2, #1
1000550e:	675a      	str	r2, [r3, #116]	; 0x74
10005510:	bd30      	pop	{r4, r5, pc}
10005512:	6881      	ldr	r1, [r0, #8]
10005514:	6051      	str	r1, [r2, #4]
10005516:	e7bf      	b.n	10005498 <vTaskRemoveFromUnorderedEventList+0x20>
10005518:	68d9      	ldr	r1, [r3, #12]
1000551a:	6051      	str	r1, [r2, #4]
1000551c:	e7cb      	b.n	100054b6 <vTaskRemoveFromUnorderedEventList+0x3e>
1000551e:	46c0      	nop			; (mov r8, r8)
10005520:	20000cec 	.word	0x20000cec
10005524:	20000c6c 	.word	0x20000c6c

10005528 <vTaskSetTimeOutState>:
10005528:	b510      	push	{r4, lr}
1000552a:	0004      	movs	r4, r0
1000552c:	f000 fd78 	bl	10006020 <vPortEnterCritical>
10005530:	4b03      	ldr	r3, [pc, #12]	; (10005540 <vTaskSetTimeOutState+0x18>)
10005532:	6fda      	ldr	r2, [r3, #124]	; 0x7c
10005534:	6022      	str	r2, [r4, #0]
10005536:	6edb      	ldr	r3, [r3, #108]	; 0x6c
10005538:	6063      	str	r3, [r4, #4]
1000553a:	f000 fd7d 	bl	10006038 <vPortExitCritical>
1000553e:	bd10      	pop	{r4, pc}
10005540:	20000cec 	.word	0x20000cec

10005544 <vTaskInternalSetTimeOutState>:
10005544:	4b02      	ldr	r3, [pc, #8]	; (10005550 <vTaskInternalSetTimeOutState+0xc>)
10005546:	6fda      	ldr	r2, [r3, #124]	; 0x7c
10005548:	6002      	str	r2, [r0, #0]
1000554a:	6edb      	ldr	r3, [r3, #108]	; 0x6c
1000554c:	6043      	str	r3, [r0, #4]
1000554e:	4770      	bx	lr
10005550:	20000cec 	.word	0x20000cec

10005554 <xTaskCheckForTimeOut>:
10005554:	b5f8      	push	{r3, r4, r5, r6, r7, lr}
10005556:	0004      	movs	r4, r0
10005558:	000d      	movs	r5, r1
1000555a:	f000 fd61 	bl	10006020 <vPortEnterCritical>
1000555e:	4b12      	ldr	r3, [pc, #72]	; (100055a8 <xTaskCheckForTimeOut+0x54>)
10005560:	6ed9      	ldr	r1, [r3, #108]	; 0x6c
10005562:	6863      	ldr	r3, [r4, #4]
10005564:	1ac8      	subs	r0, r1, r3
10005566:	682a      	ldr	r2, [r5, #0]
10005568:	1c56      	adds	r6, r2, #1
1000556a:	d018      	beq.n	1000559e <xTaskCheckForTimeOut+0x4a>
1000556c:	4e0e      	ldr	r6, [pc, #56]	; (100055a8 <xTaskCheckForTimeOut+0x54>)
1000556e:	6ff6      	ldr	r6, [r6, #124]	; 0x7c
10005570:	6827      	ldr	r7, [r4, #0]
10005572:	42b7      	cmp	r7, r6
10005574:	d005      	beq.n	10005582 <xTaskCheckForTimeOut+0x2e>
10005576:	428b      	cmp	r3, r1
10005578:	d803      	bhi.n	10005582 <xTaskCheckForTimeOut+0x2e>
1000557a:	2300      	movs	r3, #0
1000557c:	602b      	str	r3, [r5, #0]
1000557e:	2401      	movs	r4, #1
10005580:	e00e      	b.n	100055a0 <xTaskCheckForTimeOut+0x4c>
10005582:	4282      	cmp	r2, r0
10005584:	d803      	bhi.n	1000558e <xTaskCheckForTimeOut+0x3a>
10005586:	2300      	movs	r3, #0
10005588:	602b      	str	r3, [r5, #0]
1000558a:	2401      	movs	r4, #1
1000558c:	e008      	b.n	100055a0 <xTaskCheckForTimeOut+0x4c>
1000558e:	1a5b      	subs	r3, r3, r1
10005590:	189b      	adds	r3, r3, r2
10005592:	602b      	str	r3, [r5, #0]
10005594:	0020      	movs	r0, r4
10005596:	f7ff ffd5 	bl	10005544 <vTaskInternalSetTimeOutState>
1000559a:	2400      	movs	r4, #0
1000559c:	e000      	b.n	100055a0 <xTaskCheckForTimeOut+0x4c>
1000559e:	2400      	movs	r4, #0
100055a0:	f000 fd4a 	bl	10006038 <vPortExitCritical>
100055a4:	0020      	movs	r0, r4
100055a6:	bdf8      	pop	{r3, r4, r5, r6, r7, pc}
100055a8:	20000cec 	.word	0x20000cec

100055ac <vTaskMissedYield>:
100055ac:	4b01      	ldr	r3, [pc, #4]	; (100055b4 <vTaskMissedYield+0x8>)
100055ae:	2201      	movs	r2, #1
100055b0:	675a      	str	r2, [r3, #116]	; 0x74
100055b2:	4770      	bx	lr
100055b4:	20000cec 	.word	0x20000cec

100055b8 <vTaskSetThreadLocalStoragePointer>:
100055b8:	2904      	cmp	r1, #4
100055ba:	dc05      	bgt.n	100055c8 <vTaskSetThreadLocalStoragePointer+0x10>
100055bc:	2800      	cmp	r0, #0
100055be:	d004      	beq.n	100055ca <vTaskSetThreadLocalStoragePointer+0x12>
100055c0:	3110      	adds	r1, #16
100055c2:	0089      	lsls	r1, r1, #2
100055c4:	1841      	adds	r1, r0, r1
100055c6:	604a      	str	r2, [r1, #4]
100055c8:	4770      	bx	lr
100055ca:	4b01      	ldr	r3, [pc, #4]	; (100055d0 <vTaskSetThreadLocalStoragePointer+0x18>)
100055cc:	6d98      	ldr	r0, [r3, #88]	; 0x58
100055ce:	e7f7      	b.n	100055c0 <vTaskSetThreadLocalStoragePointer+0x8>
100055d0:	20000cec 	.word	0x20000cec

100055d4 <pvTaskGetThreadLocalStoragePointer>:
100055d4:	2904      	cmp	r1, #4
100055d6:	dc09      	bgt.n	100055ec <pvTaskGetThreadLocalStoragePointer+0x18>
100055d8:	2800      	cmp	r0, #0
100055da:	d004      	beq.n	100055e6 <pvTaskGetThreadLocalStoragePointer+0x12>
100055dc:	3110      	adds	r1, #16
100055de:	0089      	lsls	r1, r1, #2
100055e0:	1841      	adds	r1, r0, r1
100055e2:	6848      	ldr	r0, [r1, #4]
100055e4:	4770      	bx	lr
100055e6:	4b02      	ldr	r3, [pc, #8]	; (100055f0 <pvTaskGetThreadLocalStoragePointer+0x1c>)
100055e8:	6d98      	ldr	r0, [r3, #88]	; 0x58
100055ea:	e7f7      	b.n	100055dc <pvTaskGetThreadLocalStoragePointer+0x8>
100055ec:	2000      	movs	r0, #0
100055ee:	e7f9      	b.n	100055e4 <pvTaskGetThreadLocalStoragePointer+0x10>
100055f0:	20000cec 	.word	0x20000cec

100055f4 <xTaskGetCurrentTaskHandle>:
100055f4:	4b01      	ldr	r3, [pc, #4]	; (100055fc <xTaskGetCurrentTaskHandle+0x8>)
100055f6:	6d98      	ldr	r0, [r3, #88]	; 0x58
100055f8:	4770      	bx	lr
100055fa:	46c0      	nop			; (mov r8, r8)
100055fc:	20000cec 	.word	0x20000cec

10005600 <xTaskGetSchedulerState>:
10005600:	4b06      	ldr	r3, [pc, #24]	; (1000561c <xTaskGetSchedulerState+0x1c>)
10005602:	6ddb      	ldr	r3, [r3, #92]	; 0x5c
10005604:	2b00      	cmp	r3, #0
10005606:	d007      	beq.n	10005618 <xTaskGetSchedulerState+0x18>
10005608:	4b04      	ldr	r3, [pc, #16]	; (1000561c <xTaskGetSchedulerState+0x1c>)
1000560a:	6f1b      	ldr	r3, [r3, #112]	; 0x70
1000560c:	2b00      	cmp	r3, #0
1000560e:	d001      	beq.n	10005614 <xTaskGetSchedulerState+0x14>
10005610:	2000      	movs	r0, #0
10005612:	e002      	b.n	1000561a <xTaskGetSchedulerState+0x1a>
10005614:	2002      	movs	r0, #2
10005616:	e000      	b.n	1000561a <xTaskGetSchedulerState+0x1a>
10005618:	2001      	movs	r0, #1
1000561a:	4770      	bx	lr
1000561c:	20000cec 	.word	0x20000cec

10005620 <uxTaskResetEventItemValue>:
10005620:	4a04      	ldr	r2, [pc, #16]	; (10005634 <uxTaskResetEventItemValue+0x14>)
10005622:	6d93      	ldr	r3, [r2, #88]	; 0x58
10005624:	6998      	ldr	r0, [r3, #24]
10005626:	6d93      	ldr	r3, [r2, #88]	; 0x58
10005628:	6ad9      	ldr	r1, [r3, #44]	; 0x2c
1000562a:	6d92      	ldr	r2, [r2, #88]	; 0x58
1000562c:	2305      	movs	r3, #5
1000562e:	1a5b      	subs	r3, r3, r1
10005630:	6193      	str	r3, [r2, #24]
10005632:	4770      	bx	lr
10005634:	20000cec 	.word	0x20000cec

10005638 <ulTaskGenericNotifyTake>:
10005638:	b570      	push	{r4, r5, r6, lr}
1000563a:	0004      	movs	r4, r0
1000563c:	000d      	movs	r5, r1
1000563e:	0016      	movs	r6, r2
10005640:	f000 fcee 	bl	10006020 <vPortEnterCritical>
10005644:	4b1e      	ldr	r3, [pc, #120]	; (100056c0 <ulTaskGenericNotifyTake+0x88>)
10005646:	6d9a      	ldr	r2, [r3, #88]	; 0x58
10005648:	0023      	movs	r3, r4
1000564a:	3316      	adds	r3, #22
1000564c:	009b      	lsls	r3, r3, #2
1000564e:	589b      	ldr	r3, [r3, r2]
10005650:	2b00      	cmp	r3, #0
10005652:	d107      	bne.n	10005664 <ulTaskGenericNotifyTake+0x2c>
10005654:	4b1a      	ldr	r3, [pc, #104]	; (100056c0 <ulTaskGenericNotifyTake+0x88>)
10005656:	6d9b      	ldr	r3, [r3, #88]	; 0x58
10005658:	191b      	adds	r3, r3, r4
1000565a:	3364      	adds	r3, #100	; 0x64
1000565c:	2201      	movs	r2, #1
1000565e:	701a      	strb	r2, [r3, #0]
10005660:	2e00      	cmp	r6, #0
10005662:	d11e      	bne.n	100056a2 <ulTaskGenericNotifyTake+0x6a>
10005664:	f000 fce8 	bl	10006038 <vPortExitCritical>
10005668:	f000 fcda 	bl	10006020 <vPortEnterCritical>
1000566c:	4b14      	ldr	r3, [pc, #80]	; (100056c0 <ulTaskGenericNotifyTake+0x88>)
1000566e:	6d9a      	ldr	r2, [r3, #88]	; 0x58
10005670:	0023      	movs	r3, r4
10005672:	3316      	adds	r3, #22
10005674:	009b      	lsls	r3, r3, #2
10005676:	589e      	ldr	r6, [r3, r2]
10005678:	2e00      	cmp	r6, #0
1000567a:	d008      	beq.n	1000568e <ulTaskGenericNotifyTake+0x56>
1000567c:	2d00      	cmp	r5, #0
1000567e:	d017      	beq.n	100056b0 <ulTaskGenericNotifyTake+0x78>
10005680:	4b0f      	ldr	r3, [pc, #60]	; (100056c0 <ulTaskGenericNotifyTake+0x88>)
10005682:	6d9a      	ldr	r2, [r3, #88]	; 0x58
10005684:	0023      	movs	r3, r4
10005686:	3316      	adds	r3, #22
10005688:	009b      	lsls	r3, r3, #2
1000568a:	2100      	movs	r1, #0
1000568c:	5099      	str	r1, [r3, r2]
1000568e:	4b0c      	ldr	r3, [pc, #48]	; (100056c0 <ulTaskGenericNotifyTake+0x88>)
10005690:	6d98      	ldr	r0, [r3, #88]	; 0x58
10005692:	1904      	adds	r4, r0, r4
10005694:	3464      	adds	r4, #100	; 0x64
10005696:	2300      	movs	r3, #0
10005698:	7023      	strb	r3, [r4, #0]
1000569a:	f000 fccd 	bl	10006038 <vPortExitCritical>
1000569e:	0030      	movs	r0, r6
100056a0:	bd70      	pop	{r4, r5, r6, pc}
100056a2:	2101      	movs	r1, #1
100056a4:	0030      	movs	r0, r6
100056a6:	f7ff f9ff 	bl	10004aa8 <prvAddCurrentTaskToDelayedList>
100056aa:	f000 fcad 	bl	10006008 <vPortYield>
100056ae:	e7d9      	b.n	10005664 <ulTaskGenericNotifyTake+0x2c>
100056b0:	4b03      	ldr	r3, [pc, #12]	; (100056c0 <ulTaskGenericNotifyTake+0x88>)
100056b2:	6d99      	ldr	r1, [r3, #88]	; 0x58
100056b4:	1e72      	subs	r2, r6, #1
100056b6:	0023      	movs	r3, r4
100056b8:	3316      	adds	r3, #22
100056ba:	009b      	lsls	r3, r3, #2
100056bc:	505a      	str	r2, [r3, r1]
100056be:	e7e6      	b.n	1000568e <ulTaskGenericNotifyTake+0x56>
100056c0:	20000cec 	.word	0x20000cec

100056c4 <xTaskGenericNotifyWait>:
100056c4:	b5f8      	push	{r3, r4, r5, r6, r7, lr}
100056c6:	0004      	movs	r4, r0
100056c8:	000e      	movs	r6, r1
100056ca:	0015      	movs	r5, r2
100056cc:	001f      	movs	r7, r3
100056ce:	f000 fca7 	bl	10006020 <vPortEnterCritical>
100056d2:	4b23      	ldr	r3, [pc, #140]	; (10005760 <xTaskGenericNotifyWait+0x9c>)
100056d4:	6d9a      	ldr	r2, [r3, #88]	; 0x58
100056d6:	1912      	adds	r2, r2, r4
100056d8:	3264      	adds	r2, #100	; 0x64
100056da:	7813      	ldrb	r3, [r2, #0]
100056dc:	2b02      	cmp	r3, #2
100056de:	d00f      	beq.n	10005700 <xTaskGenericNotifyWait+0x3c>
100056e0:	491f      	ldr	r1, [pc, #124]	; (10005760 <xTaskGenericNotifyWait+0x9c>)
100056e2:	6d88      	ldr	r0, [r1, #88]	; 0x58
100056e4:	0023      	movs	r3, r4
100056e6:	3316      	adds	r3, #22
100056e8:	009b      	lsls	r3, r3, #2
100056ea:	581a      	ldr	r2, [r3, r0]
100056ec:	43b2      	bics	r2, r6
100056ee:	501a      	str	r2, [r3, r0]
100056f0:	6d8b      	ldr	r3, [r1, #88]	; 0x58
100056f2:	191b      	adds	r3, r3, r4
100056f4:	3364      	adds	r3, #100	; 0x64
100056f6:	2201      	movs	r2, #1
100056f8:	701a      	strb	r2, [r3, #0]
100056fa:	9b06      	ldr	r3, [sp, #24]
100056fc:	2b00      	cmp	r3, #0
100056fe:	d11e      	bne.n	1000573e <xTaskGenericNotifyWait+0x7a>
10005700:	f000 fc9a 	bl	10006038 <vPortExitCritical>
10005704:	f000 fc8c 	bl	10006020 <vPortEnterCritical>
10005708:	2f00      	cmp	r7, #0
1000570a:	d006      	beq.n	1000571a <xTaskGenericNotifyWait+0x56>
1000570c:	4b14      	ldr	r3, [pc, #80]	; (10005760 <xTaskGenericNotifyWait+0x9c>)
1000570e:	6d9a      	ldr	r2, [r3, #88]	; 0x58
10005710:	0023      	movs	r3, r4
10005712:	3316      	adds	r3, #22
10005714:	009b      	lsls	r3, r3, #2
10005716:	589b      	ldr	r3, [r3, r2]
10005718:	603b      	str	r3, [r7, #0]
1000571a:	4b11      	ldr	r3, [pc, #68]	; (10005760 <xTaskGenericNotifyWait+0x9c>)
1000571c:	6d9b      	ldr	r3, [r3, #88]	; 0x58
1000571e:	191b      	adds	r3, r3, r4
10005720:	3364      	adds	r3, #100	; 0x64
10005722:	781b      	ldrb	r3, [r3, #0]
10005724:	2b02      	cmp	r3, #2
10005726:	d011      	beq.n	1000574c <xTaskGenericNotifyWait+0x88>
10005728:	2500      	movs	r5, #0
1000572a:	4b0d      	ldr	r3, [pc, #52]	; (10005760 <xTaskGenericNotifyWait+0x9c>)
1000572c:	6d98      	ldr	r0, [r3, #88]	; 0x58
1000572e:	1904      	adds	r4, r0, r4
10005730:	3464      	adds	r4, #100	; 0x64
10005732:	2300      	movs	r3, #0
10005734:	7023      	strb	r3, [r4, #0]
10005736:	f000 fc7f 	bl	10006038 <vPortExitCritical>
1000573a:	0028      	movs	r0, r5
1000573c:	bdf8      	pop	{r3, r4, r5, r6, r7, pc}
1000573e:	2101      	movs	r1, #1
10005740:	0018      	movs	r0, r3
10005742:	f7ff f9b1 	bl	10004aa8 <prvAddCurrentTaskToDelayedList>
10005746:	f000 fc5f 	bl	10006008 <vPortYield>
1000574a:	e7d9      	b.n	10005700 <xTaskGenericNotifyWait+0x3c>
1000574c:	4b04      	ldr	r3, [pc, #16]	; (10005760 <xTaskGenericNotifyWait+0x9c>)
1000574e:	6d99      	ldr	r1, [r3, #88]	; 0x58
10005750:	0023      	movs	r3, r4
10005752:	3316      	adds	r3, #22
10005754:	009b      	lsls	r3, r3, #2
10005756:	585a      	ldr	r2, [r3, r1]
10005758:	43aa      	bics	r2, r5
1000575a:	505a      	str	r2, [r3, r1]
1000575c:	2501      	movs	r5, #1
1000575e:	e7e4      	b.n	1000572a <xTaskGenericNotifyWait+0x66>
10005760:	20000cec 	.word	0x20000cec

10005764 <xTaskGenericNotify>:
10005764:	b5f8      	push	{r3, r4, r5, r6, r7, lr}
10005766:	0004      	movs	r4, r0
10005768:	000d      	movs	r5, r1
1000576a:	0016      	movs	r6, r2
1000576c:	001f      	movs	r7, r3
1000576e:	f000 fc57 	bl	10006020 <vPortEnterCritical>
10005772:	9b06      	ldr	r3, [sp, #24]
10005774:	2b00      	cmp	r3, #0
10005776:	d005      	beq.n	10005784 <xTaskGenericNotify+0x20>
10005778:	002b      	movs	r3, r5
1000577a:	3316      	adds	r3, #22
1000577c:	009b      	lsls	r3, r3, #2
1000577e:	591b      	ldr	r3, [r3, r4]
10005780:	9a06      	ldr	r2, [sp, #24]
10005782:	6013      	str	r3, [r2, #0]
10005784:	1961      	adds	r1, r4, r5
10005786:	3164      	adds	r1, #100	; 0x64
10005788:	7808      	ldrb	r0, [r1, #0]
1000578a:	b2c0      	uxtb	r0, r0
1000578c:	2302      	movs	r3, #2
1000578e:	700b      	strb	r3, [r1, #0]
10005790:	2f03      	cmp	r7, #3
10005792:	d024      	beq.n	100057de <xTaskGenericNotify+0x7a>
10005794:	d80c      	bhi.n	100057b0 <xTaskGenericNotify+0x4c>
10005796:	2f01      	cmp	r7, #1
10005798:	d01a      	beq.n	100057d0 <xTaskGenericNotify+0x6c>
1000579a:	2f02      	cmp	r7, #2
1000579c:	d106      	bne.n	100057ac <xTaskGenericNotify+0x48>
1000579e:	3516      	adds	r5, #22
100057a0:	00ad      	lsls	r5, r5, #2
100057a2:	592b      	ldr	r3, [r5, r4]
100057a4:	3301      	adds	r3, #1
100057a6:	512b      	str	r3, [r5, r4]
100057a8:	2501      	movs	r5, #1
100057aa:	e00b      	b.n	100057c4 <xTaskGenericNotify+0x60>
100057ac:	2501      	movs	r5, #1
100057ae:	e009      	b.n	100057c4 <xTaskGenericNotify+0x60>
100057b0:	2f04      	cmp	r7, #4
100057b2:	d106      	bne.n	100057c2 <xTaskGenericNotify+0x5e>
100057b4:	2802      	cmp	r0, #2
100057b6:	d017      	beq.n	100057e8 <xTaskGenericNotify+0x84>
100057b8:	3516      	adds	r5, #22
100057ba:	00ad      	lsls	r5, r5, #2
100057bc:	512e      	str	r6, [r5, r4]
100057be:	2501      	movs	r5, #1
100057c0:	e000      	b.n	100057c4 <xTaskGenericNotify+0x60>
100057c2:	2501      	movs	r5, #1
100057c4:	2801      	cmp	r0, #1
100057c6:	d011      	beq.n	100057ec <xTaskGenericNotify+0x88>
100057c8:	f000 fc36 	bl	10006038 <vPortExitCritical>
100057cc:	0028      	movs	r0, r5
100057ce:	bdf8      	pop	{r3, r4, r5, r6, r7, pc}
100057d0:	3516      	adds	r5, #22
100057d2:	00ad      	lsls	r5, r5, #2
100057d4:	592a      	ldr	r2, [r5, r4]
100057d6:	4316      	orrs	r6, r2
100057d8:	512e      	str	r6, [r5, r4]
100057da:	2501      	movs	r5, #1
100057dc:	e7f2      	b.n	100057c4 <xTaskGenericNotify+0x60>
100057de:	3516      	adds	r5, #22
100057e0:	00ad      	lsls	r5, r5, #2
100057e2:	512e      	str	r6, [r5, r4]
100057e4:	2501      	movs	r5, #1
100057e6:	e7ed      	b.n	100057c4 <xTaskGenericNotify+0x60>
100057e8:	2500      	movs	r5, #0
100057ea:	e7eb      	b.n	100057c4 <xTaskGenericNotify+0x60>
100057ec:	6963      	ldr	r3, [r4, #20]
100057ee:	68a2      	ldr	r2, [r4, #8]
100057f0:	68e1      	ldr	r1, [r4, #12]
100057f2:	6091      	str	r1, [r2, #8]
100057f4:	68e2      	ldr	r2, [r4, #12]
100057f6:	68a1      	ldr	r1, [r4, #8]
100057f8:	6051      	str	r1, [r2, #4]
100057fa:	1d21      	adds	r1, r4, #4
100057fc:	685a      	ldr	r2, [r3, #4]
100057fe:	428a      	cmp	r2, r1
10005800:	d02c      	beq.n	1000585c <xTaskGenericNotify+0xf8>
10005802:	2200      	movs	r2, #0
10005804:	6162      	str	r2, [r4, #20]
10005806:	681a      	ldr	r2, [r3, #0]
10005808:	3a01      	subs	r2, #1
1000580a:	601a      	str	r2, [r3, #0]
1000580c:	6ae3      	ldr	r3, [r4, #44]	; 0x2c
1000580e:	4a15      	ldr	r2, [pc, #84]	; (10005864 <xTaskGenericNotify+0x100>)
10005810:	6e52      	ldr	r2, [r2, #100]	; 0x64
10005812:	4293      	cmp	r3, r2
10005814:	d901      	bls.n	1000581a <xTaskGenericNotify+0xb6>
10005816:	4a13      	ldr	r2, [pc, #76]	; (10005864 <xTaskGenericNotify+0x100>)
10005818:	6653      	str	r3, [r2, #100]	; 0x64
1000581a:	4813      	ldr	r0, [pc, #76]	; (10005868 <xTaskGenericNotify+0x104>)
1000581c:	009a      	lsls	r2, r3, #2
1000581e:	18d2      	adds	r2, r2, r3
10005820:	0092      	lsls	r2, r2, #2
10005822:	1882      	adds	r2, r0, r2
10005824:	6b53      	ldr	r3, [r2, #52]	; 0x34
10005826:	60a3      	str	r3, [r4, #8]
10005828:	689a      	ldr	r2, [r3, #8]
1000582a:	60e2      	str	r2, [r4, #12]
1000582c:	6051      	str	r1, [r2, #4]
1000582e:	6099      	str	r1, [r3, #8]
10005830:	6ae3      	ldr	r3, [r4, #44]	; 0x2c
10005832:	0002      	movs	r2, r0
10005834:	3230      	adds	r2, #48	; 0x30
10005836:	0099      	lsls	r1, r3, #2
10005838:	18ce      	adds	r6, r1, r3
1000583a:	00b6      	lsls	r6, r6, #2
1000583c:	1992      	adds	r2, r2, r6
1000583e:	6162      	str	r2, [r4, #20]
10005840:	1982      	adds	r2, r0, r6
10005842:	6b12      	ldr	r2, [r2, #48]	; 0x30
10005844:	3201      	adds	r2, #1
10005846:	1983      	adds	r3, r0, r6
10005848:	631a      	str	r2, [r3, #48]	; 0x30
1000584a:	6ae2      	ldr	r2, [r4, #44]	; 0x2c
1000584c:	4b05      	ldr	r3, [pc, #20]	; (10005864 <xTaskGenericNotify+0x100>)
1000584e:	6d9b      	ldr	r3, [r3, #88]	; 0x58
10005850:	6adb      	ldr	r3, [r3, #44]	; 0x2c
10005852:	429a      	cmp	r2, r3
10005854:	d9b8      	bls.n	100057c8 <xTaskGenericNotify+0x64>
10005856:	f000 fbd7 	bl	10006008 <vPortYield>
1000585a:	e7b5      	b.n	100057c8 <xTaskGenericNotify+0x64>
1000585c:	68e2      	ldr	r2, [r4, #12]
1000585e:	605a      	str	r2, [r3, #4]
10005860:	e7cf      	b.n	10005802 <xTaskGenericNotify+0x9e>
10005862:	46c0      	nop			; (mov r8, r8)
10005864:	20000cec 	.word	0x20000cec
10005868:	20000c6c 	.word	0x20000c6c

1000586c <xTaskGenericNotifyFromISR>:
1000586c:	b5f0      	push	{r4, r5, r6, r7, lr}
1000586e:	b083      	sub	sp, #12
10005870:	0004      	movs	r4, r0
10005872:	000d      	movs	r5, r1
10005874:	9201      	str	r2, [sp, #4]
10005876:	001e      	movs	r6, r3
10005878:	9f08      	ldr	r7, [sp, #32]
1000587a:	f000 fbe7 	bl	1000604c <ulSetInterruptMaskFromISR>
1000587e:	2f00      	cmp	r7, #0
10005880:	d004      	beq.n	1000588c <xTaskGenericNotifyFromISR+0x20>
10005882:	002b      	movs	r3, r5
10005884:	3316      	adds	r3, #22
10005886:	009b      	lsls	r3, r3, #2
10005888:	591b      	ldr	r3, [r3, r4]
1000588a:	603b      	str	r3, [r7, #0]
1000588c:	1963      	adds	r3, r4, r5
1000588e:	3364      	adds	r3, #100	; 0x64
10005890:	781f      	ldrb	r7, [r3, #0]
10005892:	b2ff      	uxtb	r7, r7
10005894:	2202      	movs	r2, #2
10005896:	701a      	strb	r2, [r3, #0]
10005898:	2e03      	cmp	r6, #3
1000589a:	d027      	beq.n	100058ec <xTaskGenericNotifyFromISR+0x80>
1000589c:	d80c      	bhi.n	100058b8 <xTaskGenericNotifyFromISR+0x4c>
1000589e:	2e01      	cmp	r6, #1
100058a0:	d01c      	beq.n	100058dc <xTaskGenericNotifyFromISR+0x70>
100058a2:	2e02      	cmp	r6, #2
100058a4:	d106      	bne.n	100058b4 <xTaskGenericNotifyFromISR+0x48>
100058a6:	3516      	adds	r5, #22
100058a8:	00ad      	lsls	r5, r5, #2
100058aa:	592b      	ldr	r3, [r5, r4]
100058ac:	3301      	adds	r3, #1
100058ae:	512b      	str	r3, [r5, r4]
100058b0:	2501      	movs	r5, #1
100058b2:	e00c      	b.n	100058ce <xTaskGenericNotifyFromISR+0x62>
100058b4:	2501      	movs	r5, #1
100058b6:	e00a      	b.n	100058ce <xTaskGenericNotifyFromISR+0x62>
100058b8:	2e04      	cmp	r6, #4
100058ba:	d107      	bne.n	100058cc <xTaskGenericNotifyFromISR+0x60>
100058bc:	2f02      	cmp	r7, #2
100058be:	d01b      	beq.n	100058f8 <xTaskGenericNotifyFromISR+0x8c>
100058c0:	3516      	adds	r5, #22
100058c2:	00ad      	lsls	r5, r5, #2
100058c4:	9b01      	ldr	r3, [sp, #4]
100058c6:	512b      	str	r3, [r5, r4]
100058c8:	2501      	movs	r5, #1
100058ca:	e000      	b.n	100058ce <xTaskGenericNotifyFromISR+0x62>
100058cc:	2501      	movs	r5, #1
100058ce:	2f01      	cmp	r7, #1
100058d0:	d014      	beq.n	100058fc <xTaskGenericNotifyFromISR+0x90>
100058d2:	f000 fbbf 	bl	10006054 <vClearInterruptMaskFromISR>
100058d6:	0028      	movs	r0, r5
100058d8:	b003      	add	sp, #12
100058da:	bdf0      	pop	{r4, r5, r6, r7, pc}
100058dc:	3516      	adds	r5, #22
100058de:	00ad      	lsls	r5, r5, #2
100058e0:	592a      	ldr	r2, [r5, r4]
100058e2:	9e01      	ldr	r6, [sp, #4]
100058e4:	4316      	orrs	r6, r2
100058e6:	512e      	str	r6, [r5, r4]
100058e8:	2501      	movs	r5, #1
100058ea:	e7f0      	b.n	100058ce <xTaskGenericNotifyFromISR+0x62>
100058ec:	3516      	adds	r5, #22
100058ee:	00ad      	lsls	r5, r5, #2
100058f0:	9b01      	ldr	r3, [sp, #4]
100058f2:	512b      	str	r3, [r5, r4]
100058f4:	2501      	movs	r5, #1
100058f6:	e7ea      	b.n	100058ce <xTaskGenericNotifyFromISR+0x62>
100058f8:	2500      	movs	r5, #0
100058fa:	e7e8      	b.n	100058ce <xTaskGenericNotifyFromISR+0x62>
100058fc:	4b2a      	ldr	r3, [pc, #168]	; (100059a8 <xTaskGenericNotifyFromISR+0x13c>)
100058fe:	6f1b      	ldr	r3, [r3, #112]	; 0x70
10005900:	2b00      	cmp	r3, #0
10005902:	d141      	bne.n	10005988 <xTaskGenericNotifyFromISR+0x11c>
10005904:	6963      	ldr	r3, [r4, #20]
10005906:	68a2      	ldr	r2, [r4, #8]
10005908:	68e1      	ldr	r1, [r4, #12]
1000590a:	6091      	str	r1, [r2, #8]
1000590c:	68e2      	ldr	r2, [r4, #12]
1000590e:	68a1      	ldr	r1, [r4, #8]
10005910:	6051      	str	r1, [r2, #4]
10005912:	1d26      	adds	r6, r4, #4
10005914:	685a      	ldr	r2, [r3, #4]
10005916:	42b2      	cmp	r2, r6
10005918:	d033      	beq.n	10005982 <xTaskGenericNotifyFromISR+0x116>
1000591a:	2200      	movs	r2, #0
1000591c:	6162      	str	r2, [r4, #20]
1000591e:	681a      	ldr	r2, [r3, #0]
10005920:	3a01      	subs	r2, #1
10005922:	601a      	str	r2, [r3, #0]
10005924:	6ae3      	ldr	r3, [r4, #44]	; 0x2c
10005926:	4a20      	ldr	r2, [pc, #128]	; (100059a8 <xTaskGenericNotifyFromISR+0x13c>)
10005928:	6e52      	ldr	r2, [r2, #100]	; 0x64
1000592a:	4293      	cmp	r3, r2
1000592c:	d901      	bls.n	10005932 <xTaskGenericNotifyFromISR+0xc6>
1000592e:	4a1e      	ldr	r2, [pc, #120]	; (100059a8 <xTaskGenericNotifyFromISR+0x13c>)
10005930:	6653      	str	r3, [r2, #100]	; 0x64
10005932:	491e      	ldr	r1, [pc, #120]	; (100059ac <xTaskGenericNotifyFromISR+0x140>)
10005934:	009a      	lsls	r2, r3, #2
10005936:	18d2      	adds	r2, r2, r3
10005938:	0092      	lsls	r2, r2, #2
1000593a:	188a      	adds	r2, r1, r2
1000593c:	6b53      	ldr	r3, [r2, #52]	; 0x34
1000593e:	60a3      	str	r3, [r4, #8]
10005940:	689a      	ldr	r2, [r3, #8]
10005942:	60e2      	str	r2, [r4, #12]
10005944:	6056      	str	r6, [r2, #4]
10005946:	609e      	str	r6, [r3, #8]
10005948:	6ae6      	ldr	r6, [r4, #44]	; 0x2c
1000594a:	000a      	movs	r2, r1
1000594c:	3230      	adds	r2, #48	; 0x30
1000594e:	00b3      	lsls	r3, r6, #2
10005950:	199f      	adds	r7, r3, r6
10005952:	00bf      	lsls	r7, r7, #2
10005954:	19d2      	adds	r2, r2, r7
10005956:	6162      	str	r2, [r4, #20]
10005958:	19ca      	adds	r2, r1, r7
1000595a:	6b12      	ldr	r2, [r2, #48]	; 0x30
1000595c:	3201      	adds	r2, #1
1000595e:	19cb      	adds	r3, r1, r7
10005960:	631a      	str	r2, [r3, #48]	; 0x30
10005962:	6ae2      	ldr	r2, [r4, #44]	; 0x2c
10005964:	4b10      	ldr	r3, [pc, #64]	; (100059a8 <xTaskGenericNotifyFromISR+0x13c>)
10005966:	6d9b      	ldr	r3, [r3, #88]	; 0x58
10005968:	6adb      	ldr	r3, [r3, #44]	; 0x2c
1000596a:	429a      	cmp	r2, r3
1000596c:	d9b1      	bls.n	100058d2 <xTaskGenericNotifyFromISR+0x66>
1000596e:	9b09      	ldr	r3, [sp, #36]	; 0x24
10005970:	2b00      	cmp	r3, #0
10005972:	d002      	beq.n	1000597a <xTaskGenericNotifyFromISR+0x10e>
10005974:	2301      	movs	r3, #1
10005976:	9a09      	ldr	r2, [sp, #36]	; 0x24
10005978:	6013      	str	r3, [r2, #0]
1000597a:	4b0b      	ldr	r3, [pc, #44]	; (100059a8 <xTaskGenericNotifyFromISR+0x13c>)
1000597c:	2201      	movs	r2, #1
1000597e:	675a      	str	r2, [r3, #116]	; 0x74
10005980:	e7a7      	b.n	100058d2 <xTaskGenericNotifyFromISR+0x66>
10005982:	68e2      	ldr	r2, [r4, #12]
10005984:	605a      	str	r2, [r3, #4]
10005986:	e7c8      	b.n	1000591a <xTaskGenericNotifyFromISR+0xae>
10005988:	4b08      	ldr	r3, [pc, #32]	; (100059ac <xTaskGenericNotifyFromISR+0x140>)
1000598a:	699a      	ldr	r2, [r3, #24]
1000598c:	61e2      	str	r2, [r4, #28]
1000598e:	6896      	ldr	r6, [r2, #8]
10005990:	6226      	str	r6, [r4, #32]
10005992:	0021      	movs	r1, r4
10005994:	3118      	adds	r1, #24
10005996:	6071      	str	r1, [r6, #4]
10005998:	6091      	str	r1, [r2, #8]
1000599a:	001a      	movs	r2, r3
1000599c:	3214      	adds	r2, #20
1000599e:	62a2      	str	r2, [r4, #40]	; 0x28
100059a0:	695a      	ldr	r2, [r3, #20]
100059a2:	3201      	adds	r2, #1
100059a4:	615a      	str	r2, [r3, #20]
100059a6:	e7dc      	b.n	10005962 <xTaskGenericNotifyFromISR+0xf6>
100059a8:	20000cec 	.word	0x20000cec
100059ac:	20000c6c 	.word	0x20000c6c

100059b0 <vTaskGenericNotifyGiveFromISR>:
100059b0:	b5f8      	push	{r3, r4, r5, r6, r7, lr}
100059b2:	0006      	movs	r6, r0
100059b4:	000c      	movs	r4, r1
100059b6:	0015      	movs	r5, r2
100059b8:	f000 fb48 	bl	1000604c <ulSetInterruptMaskFromISR>
100059bc:	1933      	adds	r3, r6, r4
100059be:	3364      	adds	r3, #100	; 0x64
100059c0:	781a      	ldrb	r2, [r3, #0]
100059c2:	2102      	movs	r1, #2
100059c4:	7019      	strb	r1, [r3, #0]
100059c6:	3416      	adds	r4, #22
100059c8:	00a4      	lsls	r4, r4, #2
100059ca:	59a3      	ldr	r3, [r4, r6]
100059cc:	3301      	adds	r3, #1
100059ce:	51a3      	str	r3, [r4, r6]
100059d0:	2a01      	cmp	r2, #1
100059d2:	d002      	beq.n	100059da <vTaskGenericNotifyGiveFromISR+0x2a>
100059d4:	f000 fb3e 	bl	10006054 <vClearInterruptMaskFromISR>
100059d8:	bdf8      	pop	{r3, r4, r5, r6, r7, pc}
100059da:	4b2a      	ldr	r3, [pc, #168]	; (10005a84 <vTaskGenericNotifyGiveFromISR+0xd4>)
100059dc:	6f1b      	ldr	r3, [r3, #112]	; 0x70
100059de:	2b00      	cmp	r3, #0
100059e0:	d13f      	bne.n	10005a62 <vTaskGenericNotifyGiveFromISR+0xb2>
100059e2:	6973      	ldr	r3, [r6, #20]
100059e4:	68b2      	ldr	r2, [r6, #8]
100059e6:	68f1      	ldr	r1, [r6, #12]
100059e8:	6091      	str	r1, [r2, #8]
100059ea:	68f2      	ldr	r2, [r6, #12]
100059ec:	68b1      	ldr	r1, [r6, #8]
100059ee:	6051      	str	r1, [r2, #4]
100059f0:	1d34      	adds	r4, r6, #4
100059f2:	685a      	ldr	r2, [r3, #4]
100059f4:	42a2      	cmp	r2, r4
100059f6:	d031      	beq.n	10005a5c <vTaskGenericNotifyGiveFromISR+0xac>
100059f8:	2200      	movs	r2, #0
100059fa:	6172      	str	r2, [r6, #20]
100059fc:	681a      	ldr	r2, [r3, #0]
100059fe:	3a01      	subs	r2, #1
10005a00:	601a      	str	r2, [r3, #0]
10005a02:	6af3      	ldr	r3, [r6, #44]	; 0x2c
10005a04:	4a1f      	ldr	r2, [pc, #124]	; (10005a84 <vTaskGenericNotifyGiveFromISR+0xd4>)
10005a06:	6e52      	ldr	r2, [r2, #100]	; 0x64
10005a08:	4293      	cmp	r3, r2
10005a0a:	d901      	bls.n	10005a10 <vTaskGenericNotifyGiveFromISR+0x60>
10005a0c:	4a1d      	ldr	r2, [pc, #116]	; (10005a84 <vTaskGenericNotifyGiveFromISR+0xd4>)
10005a0e:	6653      	str	r3, [r2, #100]	; 0x64
10005a10:	491d      	ldr	r1, [pc, #116]	; (10005a88 <vTaskGenericNotifyGiveFromISR+0xd8>)
10005a12:	009a      	lsls	r2, r3, #2
10005a14:	18d2      	adds	r2, r2, r3
10005a16:	0092      	lsls	r2, r2, #2
10005a18:	188a      	adds	r2, r1, r2
10005a1a:	6b53      	ldr	r3, [r2, #52]	; 0x34
10005a1c:	60b3      	str	r3, [r6, #8]
10005a1e:	689a      	ldr	r2, [r3, #8]
10005a20:	60f2      	str	r2, [r6, #12]
10005a22:	6054      	str	r4, [r2, #4]
10005a24:	609c      	str	r4, [r3, #8]
10005a26:	6af4      	ldr	r4, [r6, #44]	; 0x2c
10005a28:	000a      	movs	r2, r1
10005a2a:	3230      	adds	r2, #48	; 0x30
10005a2c:	00a3      	lsls	r3, r4, #2
10005a2e:	191f      	adds	r7, r3, r4
10005a30:	00bf      	lsls	r7, r7, #2
10005a32:	19d2      	adds	r2, r2, r7
10005a34:	6172      	str	r2, [r6, #20]
10005a36:	19ca      	adds	r2, r1, r7
10005a38:	6b12      	ldr	r2, [r2, #48]	; 0x30
10005a3a:	3201      	adds	r2, #1
10005a3c:	19cb      	adds	r3, r1, r7
10005a3e:	631a      	str	r2, [r3, #48]	; 0x30
10005a40:	6af2      	ldr	r2, [r6, #44]	; 0x2c
10005a42:	4b10      	ldr	r3, [pc, #64]	; (10005a84 <vTaskGenericNotifyGiveFromISR+0xd4>)
10005a44:	6d9b      	ldr	r3, [r3, #88]	; 0x58
10005a46:	6adb      	ldr	r3, [r3, #44]	; 0x2c
10005a48:	429a      	cmp	r2, r3
10005a4a:	d9c3      	bls.n	100059d4 <vTaskGenericNotifyGiveFromISR+0x24>
10005a4c:	2d00      	cmp	r5, #0
10005a4e:	d001      	beq.n	10005a54 <vTaskGenericNotifyGiveFromISR+0xa4>
10005a50:	2301      	movs	r3, #1
10005a52:	602b      	str	r3, [r5, #0]
10005a54:	4b0b      	ldr	r3, [pc, #44]	; (10005a84 <vTaskGenericNotifyGiveFromISR+0xd4>)
10005a56:	2201      	movs	r2, #1
10005a58:	675a      	str	r2, [r3, #116]	; 0x74
10005a5a:	e7bb      	b.n	100059d4 <vTaskGenericNotifyGiveFromISR+0x24>
10005a5c:	68f2      	ldr	r2, [r6, #12]
10005a5e:	605a      	str	r2, [r3, #4]
10005a60:	e7ca      	b.n	100059f8 <vTaskGenericNotifyGiveFromISR+0x48>
10005a62:	4b09      	ldr	r3, [pc, #36]	; (10005a88 <vTaskGenericNotifyGiveFromISR+0xd8>)
10005a64:	699a      	ldr	r2, [r3, #24]
10005a66:	61f2      	str	r2, [r6, #28]
10005a68:	6894      	ldr	r4, [r2, #8]
10005a6a:	6234      	str	r4, [r6, #32]
10005a6c:	0031      	movs	r1, r6
10005a6e:	3118      	adds	r1, #24
10005a70:	6061      	str	r1, [r4, #4]
10005a72:	6091      	str	r1, [r2, #8]
10005a74:	001a      	movs	r2, r3
10005a76:	3214      	adds	r2, #20
10005a78:	62b2      	str	r2, [r6, #40]	; 0x28
10005a7a:	695a      	ldr	r2, [r3, #20]
10005a7c:	3201      	adds	r2, #1
10005a7e:	615a      	str	r2, [r3, #20]
10005a80:	e7de      	b.n	10005a40 <vTaskGenericNotifyGiveFromISR+0x90>
10005a82:	46c0      	nop			; (mov r8, r8)
10005a84:	20000cec 	.word	0x20000cec
10005a88:	20000c6c 	.word	0x20000c6c

10005a8c <xTaskGenericNotifyStateClear>:
10005a8c:	b570      	push	{r4, r5, r6, lr}
10005a8e:	0004      	movs	r4, r0
10005a90:	000d      	movs	r5, r1
10005a92:	2800      	cmp	r0, #0
10005a94:	d00b      	beq.n	10005aae <xTaskGenericNotifyStateClear+0x22>
10005a96:	f000 fac3 	bl	10006020 <vPortEnterCritical>
10005a9a:	1963      	adds	r3, r4, r5
10005a9c:	3364      	adds	r3, #100	; 0x64
10005a9e:	781b      	ldrb	r3, [r3, #0]
10005aa0:	2b02      	cmp	r3, #2
10005aa2:	d007      	beq.n	10005ab4 <xTaskGenericNotifyStateClear+0x28>
10005aa4:	2400      	movs	r4, #0
10005aa6:	f000 fac7 	bl	10006038 <vPortExitCritical>
10005aaa:	0020      	movs	r0, r4
10005aac:	bd70      	pop	{r4, r5, r6, pc}
10005aae:	4b04      	ldr	r3, [pc, #16]	; (10005ac0 <xTaskGenericNotifyStateClear+0x34>)
10005ab0:	6d9c      	ldr	r4, [r3, #88]	; 0x58
10005ab2:	e7f0      	b.n	10005a96 <xTaskGenericNotifyStateClear+0xa>
10005ab4:	1964      	adds	r4, r4, r5
10005ab6:	3464      	adds	r4, #100	; 0x64
10005ab8:	2300      	movs	r3, #0
10005aba:	7023      	strb	r3, [r4, #0]
10005abc:	2401      	movs	r4, #1
10005abe:	e7f2      	b.n	10005aa6 <xTaskGenericNotifyStateClear+0x1a>
10005ac0:	20000cec 	.word	0x20000cec

10005ac4 <ulTaskGenericNotifyValueClear>:
10005ac4:	b570      	push	{r4, r5, r6, lr}
10005ac6:	0005      	movs	r5, r0
10005ac8:	000c      	movs	r4, r1
10005aca:	0016      	movs	r6, r2
10005acc:	2800      	cmp	r0, #0
10005ace:	d00b      	beq.n	10005ae8 <ulTaskGenericNotifyValueClear+0x24>
10005ad0:	f000 faa6 	bl	10006020 <vPortEnterCritical>
10005ad4:	3416      	adds	r4, #22
10005ad6:	00a1      	lsls	r1, r4, #2
10005ad8:	594c      	ldr	r4, [r1, r5]
10005ada:	594b      	ldr	r3, [r1, r5]
10005adc:	43b3      	bics	r3, r6
10005ade:	514b      	str	r3, [r1, r5]
10005ae0:	f000 faaa 	bl	10006038 <vPortExitCritical>
10005ae4:	0020      	movs	r0, r4
10005ae6:	bd70      	pop	{r4, r5, r6, pc}
10005ae8:	4b01      	ldr	r3, [pc, #4]	; (10005af0 <ulTaskGenericNotifyValueClear+0x2c>)
10005aea:	6d9d      	ldr	r5, [r3, #88]	; 0x58
10005aec:	e7f0      	b.n	10005ad0 <ulTaskGenericNotifyValueClear+0xc>
10005aee:	46c0      	nop			; (mov r8, r8)
10005af0:	20000cec 	.word	0x20000cec

10005af4 <prvGetNextExpireTime>:
10005af4:	4b07      	ldr	r3, [pc, #28]	; (10005b14 <prvGetNextExpireTime+0x20>)
10005af6:	681a      	ldr	r2, [r3, #0]
10005af8:	6813      	ldr	r3, [r2, #0]
10005afa:	2b00      	cmp	r3, #0
10005afc:	d106      	bne.n	10005b0c <prvGetNextExpireTime+0x18>
10005afe:	3301      	adds	r3, #1
10005b00:	6003      	str	r3, [r0, #0]
10005b02:	2b00      	cmp	r3, #0
10005b04:	d104      	bne.n	10005b10 <prvGetNextExpireTime+0x1c>
10005b06:	68d3      	ldr	r3, [r2, #12]
10005b08:	6818      	ldr	r0, [r3, #0]
10005b0a:	4770      	bx	lr
10005b0c:	2300      	movs	r3, #0
10005b0e:	e7f7      	b.n	10005b00 <prvGetNextExpireTime+0xc>
10005b10:	2000      	movs	r0, #0
10005b12:	e7fa      	b.n	10005b0a <prvGetNextExpireTime+0x16>
10005b14:	20000d70 	.word	0x20000d70

10005b18 <prvInsertTimerInActiveList>:
10005b18:	b510      	push	{r4, lr}
10005b1a:	6041      	str	r1, [r0, #4]
10005b1c:	6100      	str	r0, [r0, #16]
10005b1e:	4291      	cmp	r1, r2
10005b20:	d80c      	bhi.n	10005b3c <prvInsertTimerInActiveList+0x24>
10005b22:	1ad2      	subs	r2, r2, r3
10005b24:	6983      	ldr	r3, [r0, #24]
10005b26:	429a      	cmp	r2, r3
10005b28:	d301      	bcc.n	10005b2e <prvInsertTimerInActiveList+0x16>
10005b2a:	2001      	movs	r0, #1
10005b2c:	bd10      	pop	{r4, pc}
10005b2e:	1d01      	adds	r1, r0, #4
10005b30:	4b09      	ldr	r3, [pc, #36]	; (10005b58 <prvInsertTimerInActiveList+0x40>)
10005b32:	6858      	ldr	r0, [r3, #4]
10005b34:	f000 fb13 	bl	1000615e <vListInsert>
10005b38:	2000      	movs	r0, #0
10005b3a:	e7f7      	b.n	10005b2c <prvInsertTimerInActiveList+0x14>
10005b3c:	429a      	cmp	r2, r3
10005b3e:	d201      	bcs.n	10005b44 <prvInsertTimerInActiveList+0x2c>
10005b40:	4299      	cmp	r1, r3
10005b42:	d206      	bcs.n	10005b52 <prvInsertTimerInActiveList+0x3a>
10005b44:	1d01      	adds	r1, r0, #4
10005b46:	4b04      	ldr	r3, [pc, #16]	; (10005b58 <prvInsertTimerInActiveList+0x40>)
10005b48:	6818      	ldr	r0, [r3, #0]
10005b4a:	f000 fb08 	bl	1000615e <vListInsert>
10005b4e:	2000      	movs	r0, #0
10005b50:	e7ec      	b.n	10005b2c <prvInsertTimerInActiveList+0x14>
10005b52:	2001      	movs	r0, #1
10005b54:	e7ea      	b.n	10005b2c <prvInsertTimerInActiveList+0x14>
10005b56:	46c0      	nop			; (mov r8, r8)
10005b58:	20000d70 	.word	0x20000d70

10005b5c <prvReloadTimer>:
10005b5c:	b570      	push	{r4, r5, r6, lr}
10005b5e:	0004      	movs	r4, r0
10005b60:	000d      	movs	r5, r1
10005b62:	0016      	movs	r6, r2
10005b64:	e005      	b.n	10005b72 <prvReloadTimer+0x16>
10005b66:	69a3      	ldr	r3, [r4, #24]
10005b68:	469c      	mov	ip, r3
10005b6a:	4465      	add	r5, ip
10005b6c:	0020      	movs	r0, r4
10005b6e:	6a23      	ldr	r3, [r4, #32]
10005b70:	4798      	blx	r3
10005b72:	69a3      	ldr	r3, [r4, #24]
10005b74:	1959      	adds	r1, r3, r5
10005b76:	002b      	movs	r3, r5
10005b78:	0032      	movs	r2, r6
10005b7a:	0020      	movs	r0, r4
10005b7c:	f7ff ffcc 	bl	10005b18 <prvInsertTimerInActiveList>
10005b80:	2800      	cmp	r0, #0
10005b82:	d1f0      	bne.n	10005b66 <prvReloadTimer+0xa>
10005b84:	bd70      	pop	{r4, r5, r6, pc}

10005b86 <prvProcessExpiredTimer>:
10005b86:	b570      	push	{r4, r5, r6, lr}
10005b88:	0005      	movs	r5, r0
10005b8a:	000e      	movs	r6, r1
10005b8c:	4b0c      	ldr	r3, [pc, #48]	; (10005bc0 <prvProcessExpiredTimer+0x3a>)
10005b8e:	681b      	ldr	r3, [r3, #0]
10005b90:	68db      	ldr	r3, [r3, #12]
10005b92:	68dc      	ldr	r4, [r3, #12]
10005b94:	1d20      	adds	r0, r4, #4
10005b96:	f000 faf9 	bl	1000618c <uxListRemove>
10005b9a:	2324      	movs	r3, #36	; 0x24
10005b9c:	5ce3      	ldrb	r3, [r4, r3]
10005b9e:	075a      	lsls	r2, r3, #29
10005ba0:	d407      	bmi.n	10005bb2 <prvProcessExpiredTimer+0x2c>
10005ba2:	2201      	movs	r2, #1
10005ba4:	4393      	bics	r3, r2
10005ba6:	3223      	adds	r2, #35	; 0x23
10005ba8:	54a3      	strb	r3, [r4, r2]
10005baa:	6a23      	ldr	r3, [r4, #32]
10005bac:	0020      	movs	r0, r4
10005bae:	4798      	blx	r3
10005bb0:	bd70      	pop	{r4, r5, r6, pc}
10005bb2:	0032      	movs	r2, r6
10005bb4:	0029      	movs	r1, r5
10005bb6:	0020      	movs	r0, r4
10005bb8:	f7ff ffd0 	bl	10005b5c <prvReloadTimer>
10005bbc:	e7f5      	b.n	10005baa <prvProcessExpiredTimer+0x24>
10005bbe:	46c0      	nop			; (mov r8, r8)
10005bc0:	20000d70 	.word	0x20000d70

10005bc4 <prvSwitchTimerLists>:
10005bc4:	b510      	push	{r4, lr}
10005bc6:	e005      	b.n	10005bd4 <prvSwitchTimerLists+0x10>
10005bc8:	68db      	ldr	r3, [r3, #12]
10005bca:	6818      	ldr	r0, [r3, #0]
10005bcc:	2101      	movs	r1, #1
10005bce:	4249      	negs	r1, r1
10005bd0:	f7ff ffd9 	bl	10005b86 <prvProcessExpiredTimer>
10005bd4:	4b04      	ldr	r3, [pc, #16]	; (10005be8 <prvSwitchTimerLists+0x24>)
10005bd6:	681b      	ldr	r3, [r3, #0]
10005bd8:	681a      	ldr	r2, [r3, #0]
10005bda:	2a00      	cmp	r2, #0
10005bdc:	d1f4      	bne.n	10005bc8 <prvSwitchTimerLists+0x4>
10005bde:	4a02      	ldr	r2, [pc, #8]	; (10005be8 <prvSwitchTimerLists+0x24>)
10005be0:	6851      	ldr	r1, [r2, #4]
10005be2:	6011      	str	r1, [r2, #0]
10005be4:	6053      	str	r3, [r2, #4]
10005be6:	bd10      	pop	{r4, pc}
10005be8:	20000d70 	.word	0x20000d70

10005bec <prvSampleTimeNow>:
10005bec:	b570      	push	{r4, r5, r6, lr}
10005bee:	0005      	movs	r5, r0
10005bf0:	f7ff f968 	bl	10004ec4 <xTaskGetTickCount>
10005bf4:	0004      	movs	r4, r0
10005bf6:	4b07      	ldr	r3, [pc, #28]	; (10005c14 <prvSampleTimeNow+0x28>)
10005bf8:	689b      	ldr	r3, [r3, #8]
10005bfa:	4283      	cmp	r3, r0
10005bfc:	d805      	bhi.n	10005c0a <prvSampleTimeNow+0x1e>
10005bfe:	2300      	movs	r3, #0
10005c00:	602b      	str	r3, [r5, #0]
10005c02:	4b04      	ldr	r3, [pc, #16]	; (10005c14 <prvSampleTimeNow+0x28>)
10005c04:	609c      	str	r4, [r3, #8]
10005c06:	0020      	movs	r0, r4
10005c08:	bd70      	pop	{r4, r5, r6, pc}
10005c0a:	f7ff ffdb 	bl	10005bc4 <prvSwitchTimerLists>
10005c0e:	2301      	movs	r3, #1
10005c10:	602b      	str	r3, [r5, #0]
10005c12:	e7f6      	b.n	10005c02 <prvSampleTimeNow+0x16>
10005c14:	20000d70 	.word	0x20000d70

10005c18 <prvProcessTimerOrBlockTask>:
10005c18:	b570      	push	{r4, r5, r6, lr}
10005c1a:	b082      	sub	sp, #8
10005c1c:	0004      	movs	r4, r0
10005c1e:	000d      	movs	r5, r1
10005c20:	f7ff f948 	bl	10004eb4 <vTaskSuspendAll>
10005c24:	a801      	add	r0, sp, #4
10005c26:	f7ff ffe1 	bl	10005bec <prvSampleTimeNow>
10005c2a:	0006      	movs	r6, r0
10005c2c:	9b01      	ldr	r3, [sp, #4]
10005c2e:	2b00      	cmp	r3, #0
10005c30:	d123      	bne.n	10005c7a <prvProcessTimerOrBlockTask+0x62>
10005c32:	2d00      	cmp	r5, #0
10005c34:	d101      	bne.n	10005c3a <prvProcessTimerOrBlockTask+0x22>
10005c36:	42a0      	cmp	r0, r4
10005c38:	d213      	bcs.n	10005c62 <prvProcessTimerOrBlockTask+0x4a>
10005c3a:	2d00      	cmp	r5, #0
10005c3c:	d005      	beq.n	10005c4a <prvProcessTimerOrBlockTask+0x32>
10005c3e:	4a10      	ldr	r2, [pc, #64]	; (10005c80 <prvProcessTimerOrBlockTask+0x68>)
10005c40:	6852      	ldr	r2, [r2, #4]
10005c42:	6812      	ldr	r2, [r2, #0]
10005c44:	2a00      	cmp	r2, #0
10005c46:	d113      	bne.n	10005c70 <prvProcessTimerOrBlockTask+0x58>
10005c48:	2501      	movs	r5, #1
10005c4a:	1ba1      	subs	r1, r4, r6
10005c4c:	4b0c      	ldr	r3, [pc, #48]	; (10005c80 <prvProcessTimerOrBlockTask+0x68>)
10005c4e:	68d8      	ldr	r0, [r3, #12]
10005c50:	002a      	movs	r2, r5
10005c52:	f000 ff0f 	bl	10006a74 <vQueueWaitForMessageRestricted>
10005c56:	f7ff f9e7 	bl	10005028 <xTaskResumeAll>
10005c5a:	2800      	cmp	r0, #0
10005c5c:	d00a      	beq.n	10005c74 <prvProcessTimerOrBlockTask+0x5c>
10005c5e:	b002      	add	sp, #8
10005c60:	bd70      	pop	{r4, r5, r6, pc}
10005c62:	f7ff f9e1 	bl	10005028 <xTaskResumeAll>
10005c66:	0031      	movs	r1, r6
10005c68:	0020      	movs	r0, r4
10005c6a:	f7ff ff8c 	bl	10005b86 <prvProcessExpiredTimer>
10005c6e:	e7f6      	b.n	10005c5e <prvProcessTimerOrBlockTask+0x46>
10005c70:	001d      	movs	r5, r3
10005c72:	e7ea      	b.n	10005c4a <prvProcessTimerOrBlockTask+0x32>
10005c74:	f000 f9c8 	bl	10006008 <vPortYield>
10005c78:	e7f1      	b.n	10005c5e <prvProcessTimerOrBlockTask+0x46>
10005c7a:	f7ff f9d5 	bl	10005028 <xTaskResumeAll>
10005c7e:	e7ee      	b.n	10005c5e <prvProcessTimerOrBlockTask+0x46>
10005c80:	20000d70 	.word	0x20000d70

10005c84 <prvProcessReceivedCommands>:
10005c84:	b530      	push	{r4, r5, lr}
10005c86:	b085      	sub	sp, #20
10005c88:	4b32      	ldr	r3, [pc, #200]	; (10005d54 <prvProcessReceivedCommands+0xd0>)
10005c8a:	68d8      	ldr	r0, [r3, #12]
10005c8c:	2200      	movs	r2, #0
10005c8e:	a901      	add	r1, sp, #4
10005c90:	f000 fcc5 	bl	1000661e <xQueueReceive>
10005c94:	2800      	cmp	r0, #0
10005c96:	d05a      	beq.n	10005d4e <prvProcessReceivedCommands+0xca>
10005c98:	9b01      	ldr	r3, [sp, #4]
10005c9a:	2b00      	cmp	r3, #0
10005c9c:	dbf4      	blt.n	10005c88 <prvProcessReceivedCommands+0x4>
10005c9e:	9c03      	ldr	r4, [sp, #12]
10005ca0:	6963      	ldr	r3, [r4, #20]
10005ca2:	2b00      	cmp	r3, #0
10005ca4:	d002      	beq.n	10005cac <prvProcessReceivedCommands+0x28>
10005ca6:	1d20      	adds	r0, r4, #4
10005ca8:	f000 fa70 	bl	1000618c <uxListRemove>
10005cac:	4668      	mov	r0, sp
10005cae:	f7ff ff9d 	bl	10005bec <prvSampleTimeNow>
10005cb2:	0005      	movs	r5, r0
10005cb4:	9901      	ldr	r1, [sp, #4]
10005cb6:	2909      	cmp	r1, #9
10005cb8:	d8e6      	bhi.n	10005c88 <prvProcessReceivedCommands+0x4>
10005cba:	0089      	lsls	r1, r1, #2
10005cbc:	4b26      	ldr	r3, [pc, #152]	; (10005d58 <prvProcessReceivedCommands+0xd4>)
10005cbe:	5859      	ldr	r1, [r3, r1]
10005cc0:	468f      	mov	pc, r1
10005cc2:	2224      	movs	r2, #36	; 0x24
10005cc4:	5ca3      	ldrb	r3, [r4, r2]
10005cc6:	2101      	movs	r1, #1
10005cc8:	430b      	orrs	r3, r1
10005cca:	54a3      	strb	r3, [r4, r2]
10005ccc:	9902      	ldr	r1, [sp, #8]
10005cce:	69a3      	ldr	r3, [r4, #24]
10005cd0:	469c      	mov	ip, r3
10005cd2:	4461      	add	r1, ip
10005cd4:	9b02      	ldr	r3, [sp, #8]
10005cd6:	0002      	movs	r2, r0
10005cd8:	0020      	movs	r0, r4
10005cda:	f7ff ff1d 	bl	10005b18 <prvInsertTimerInActiveList>
10005cde:	2800      	cmp	r0, #0
10005ce0:	d0d2      	beq.n	10005c88 <prvProcessReceivedCommands+0x4>
10005ce2:	2324      	movs	r3, #36	; 0x24
10005ce4:	5ce3      	ldrb	r3, [r4, r3]
10005ce6:	075a      	lsls	r2, r3, #29
10005ce8:	d407      	bmi.n	10005cfa <prvProcessReceivedCommands+0x76>
10005cea:	2201      	movs	r2, #1
10005cec:	4393      	bics	r3, r2
10005cee:	3223      	adds	r2, #35	; 0x23
10005cf0:	54a3      	strb	r3, [r4, r2]
10005cf2:	6a23      	ldr	r3, [r4, #32]
10005cf4:	0020      	movs	r0, r4
10005cf6:	4798      	blx	r3
10005cf8:	e7c6      	b.n	10005c88 <prvProcessReceivedCommands+0x4>
10005cfa:	9902      	ldr	r1, [sp, #8]
10005cfc:	69a3      	ldr	r3, [r4, #24]
10005cfe:	469c      	mov	ip, r3
10005d00:	4461      	add	r1, ip
10005d02:	002a      	movs	r2, r5
10005d04:	0020      	movs	r0, r4
10005d06:	f7ff ff29 	bl	10005b5c <prvReloadTimer>
10005d0a:	e7f2      	b.n	10005cf2 <prvProcessReceivedCommands+0x6e>
10005d0c:	2224      	movs	r2, #36	; 0x24
10005d0e:	5ca3      	ldrb	r3, [r4, r2]
10005d10:	2101      	movs	r1, #1
10005d12:	438b      	bics	r3, r1
10005d14:	54a3      	strb	r3, [r4, r2]
10005d16:	e7b7      	b.n	10005c88 <prvProcessReceivedCommands+0x4>
10005d18:	2224      	movs	r2, #36	; 0x24
10005d1a:	5ca3      	ldrb	r3, [r4, r2]
10005d1c:	2101      	movs	r1, #1
10005d1e:	430b      	orrs	r3, r1
10005d20:	54a3      	strb	r3, [r4, r2]
10005d22:	9902      	ldr	r1, [sp, #8]
10005d24:	61a1      	str	r1, [r4, #24]
10005d26:	1809      	adds	r1, r1, r0
10005d28:	0003      	movs	r3, r0
10005d2a:	0002      	movs	r2, r0
10005d2c:	0020      	movs	r0, r4
10005d2e:	f7ff fef3 	bl	10005b18 <prvInsertTimerInActiveList>
10005d32:	e7a9      	b.n	10005c88 <prvProcessReceivedCommands+0x4>
10005d34:	2324      	movs	r3, #36	; 0x24
10005d36:	5ce3      	ldrb	r3, [r4, r3]
10005d38:	079a      	lsls	r2, r3, #30
10005d3a:	d504      	bpl.n	10005d46 <prvProcessReceivedCommands+0xc2>
10005d3c:	2201      	movs	r2, #1
10005d3e:	4393      	bics	r3, r2
10005d40:	3223      	adds	r2, #35	; 0x23
10005d42:	54a3      	strb	r3, [r4, r2]
10005d44:	e7a0      	b.n	10005c88 <prvProcessReceivedCommands+0x4>
10005d46:	0020      	movs	r0, r4
10005d48:	f000 f91c 	bl	10005f84 <vPortFree>
10005d4c:	e79c      	b.n	10005c88 <prvProcessReceivedCommands+0x4>
10005d4e:	b005      	add	sp, #20
10005d50:	bd30      	pop	{r4, r5, pc}
10005d52:	46c0      	nop			; (mov r8, r8)
10005d54:	20000d70 	.word	0x20000d70
10005d58:	100082d8 	.word	0x100082d8

10005d5c <prvTimerTask>:
10005d5c:	b500      	push	{lr}
10005d5e:	b083      	sub	sp, #12
10005d60:	a801      	add	r0, sp, #4
10005d62:	f7ff fec7 	bl	10005af4 <prvGetNextExpireTime>
10005d66:	9901      	ldr	r1, [sp, #4]
10005d68:	f7ff ff56 	bl	10005c18 <prvProcessTimerOrBlockTask>
10005d6c:	f7ff ff8a 	bl	10005c84 <prvProcessReceivedCommands>
10005d70:	e7f6      	b.n	10005d60 <prvTimerTask+0x4>

10005d72 <prvCheckForValidListAndQueue>:
10005d72:	b570      	push	{r4, r5, r6, lr}
10005d74:	f000 f954 	bl	10006020 <vPortEnterCritical>
10005d78:	4b0f      	ldr	r3, [pc, #60]	; (10005db8 <prvCheckForValidListAndQueue+0x46>)
10005d7a:	68db      	ldr	r3, [r3, #12]
10005d7c:	2b00      	cmp	r3, #0
10005d7e:	d002      	beq.n	10005d86 <prvCheckForValidListAndQueue+0x14>
10005d80:	f000 f95a 	bl	10006038 <vPortExitCritical>
10005d84:	bd70      	pop	{r4, r5, r6, pc}
10005d86:	4c0c      	ldr	r4, [pc, #48]	; (10005db8 <prvCheckForValidListAndQueue+0x46>)
10005d88:	0026      	movs	r6, r4
10005d8a:	3610      	adds	r6, #16
10005d8c:	0030      	movs	r0, r6
10005d8e:	f000 f9cd 	bl	1000612c <vListInitialise>
10005d92:	0025      	movs	r5, r4
10005d94:	3524      	adds	r5, #36	; 0x24
10005d96:	0028      	movs	r0, r5
10005d98:	f000 f9c8 	bl	1000612c <vListInitialise>
10005d9c:	6026      	str	r6, [r4, #0]
10005d9e:	6065      	str	r5, [r4, #4]
10005da0:	2200      	movs	r2, #0
10005da2:	210c      	movs	r1, #12
10005da4:	200a      	movs	r0, #10
10005da6:	f000 fb07 	bl	100063b8 <xQueueGenericCreate>
10005daa:	60e0      	str	r0, [r4, #12]
10005dac:	2800      	cmp	r0, #0
10005dae:	d0e7      	beq.n	10005d80 <prvCheckForValidListAndQueue+0xe>
10005db0:	4902      	ldr	r1, [pc, #8]	; (10005dbc <prvCheckForValidListAndQueue+0x4a>)
10005db2:	f000 fe0f 	bl	100069d4 <vQueueAddToRegistry>
10005db6:	e7e3      	b.n	10005d80 <prvCheckForValidListAndQueue+0xe>
10005db8:	20000d70 	.word	0x20000d70
10005dbc:	10008300 	.word	0x10008300

10005dc0 <prvInitialiseNewTimer>:
10005dc0:	b5f0      	push	{r4, r5, r6, r7, lr}
10005dc2:	46c6      	mov	lr, r8
10005dc4:	b500      	push	{lr}
10005dc6:	4680      	mov	r8, r0
10005dc8:	000f      	movs	r7, r1
10005dca:	0015      	movs	r5, r2
10005dcc:	001e      	movs	r6, r3
10005dce:	9c07      	ldr	r4, [sp, #28]
10005dd0:	f7ff ffcf 	bl	10005d72 <prvCheckForValidListAndQueue>
10005dd4:	4643      	mov	r3, r8
10005dd6:	6023      	str	r3, [r4, #0]
10005dd8:	61a7      	str	r7, [r4, #24]
10005dda:	61e6      	str	r6, [r4, #28]
10005ddc:	9b06      	ldr	r3, [sp, #24]
10005dde:	6223      	str	r3, [r4, #32]
10005de0:	1d20      	adds	r0, r4, #4
10005de2:	f000 f9ae 	bl	10006142 <vListInitialiseItem>
10005de6:	2d00      	cmp	r5, #0
10005de8:	d004      	beq.n	10005df4 <prvInitialiseNewTimer+0x34>
10005dea:	2224      	movs	r2, #36	; 0x24
10005dec:	5ca3      	ldrb	r3, [r4, r2]
10005dee:	2104      	movs	r1, #4
10005df0:	430b      	orrs	r3, r1
10005df2:	54a3      	strb	r3, [r4, r2]
10005df4:	bc80      	pop	{r7}
10005df6:	46b8      	mov	r8, r7
10005df8:	bdf0      	pop	{r4, r5, r6, r7, pc}

10005dfa <xTimerCreateTimerTask>:
10005dfa:	b500      	push	{lr}
10005dfc:	b083      	sub	sp, #12
10005dfe:	f7ff ffb8 	bl	10005d72 <prvCheckForValidListAndQueue>
10005e02:	4b09      	ldr	r3, [pc, #36]	; (10005e28 <xTimerCreateTimerTask+0x2e>)
10005e04:	68db      	ldr	r3, [r3, #12]
10005e06:	2b00      	cmp	r3, #0
10005e08:	d00c      	beq.n	10005e24 <xTimerCreateTimerTask+0x2a>
10005e0a:	4b07      	ldr	r3, [pc, #28]	; (10005e28 <xTimerCreateTimerTask+0x2e>)
10005e0c:	3338      	adds	r3, #56	; 0x38
10005e0e:	9301      	str	r3, [sp, #4]
10005e10:	2303      	movs	r3, #3
10005e12:	9300      	str	r3, [sp, #0]
10005e14:	2300      	movs	r3, #0
10005e16:	2280      	movs	r2, #128	; 0x80
10005e18:	4904      	ldr	r1, [pc, #16]	; (10005e2c <xTimerCreateTimerTask+0x32>)
10005e1a:	4805      	ldr	r0, [pc, #20]	; (10005e30 <xTimerCreateTimerTask+0x36>)
10005e1c:	f7fe fe84 	bl	10004b28 <xTaskCreate>
10005e20:	b003      	add	sp, #12
10005e22:	bd00      	pop	{pc}
10005e24:	2000      	movs	r0, #0
10005e26:	e7fb      	b.n	10005e20 <xTimerCreateTimerTask+0x26>
10005e28:	20000d70 	.word	0x20000d70
10005e2c:	10008308 	.word	0x10008308
10005e30:	10005d5d 	.word	0x10005d5d

10005e34 <xTimerCreate>:
10005e34:	b5f0      	push	{r4, r5, r6, r7, lr}
10005e36:	b085      	sub	sp, #20
10005e38:	9003      	str	r0, [sp, #12]
10005e3a:	000d      	movs	r5, r1
10005e3c:	0016      	movs	r6, r2
10005e3e:	001f      	movs	r7, r3
10005e40:	2028      	movs	r0, #40	; 0x28
10005e42:	f000 f893 	bl	10005f6c <pvPortMalloc>
10005e46:	1e04      	subs	r4, r0, #0
10005e48:	d00b      	beq.n	10005e62 <xTimerCreate+0x2e>
10005e4a:	2324      	movs	r3, #36	; 0x24
10005e4c:	2200      	movs	r2, #0
10005e4e:	54c2      	strb	r2, [r0, r3]
10005e50:	9001      	str	r0, [sp, #4]
10005e52:	9b0a      	ldr	r3, [sp, #40]	; 0x28
10005e54:	9300      	str	r3, [sp, #0]
10005e56:	003b      	movs	r3, r7
10005e58:	0032      	movs	r2, r6
10005e5a:	0029      	movs	r1, r5
10005e5c:	9803      	ldr	r0, [sp, #12]
10005e5e:	f7ff ffaf 	bl	10005dc0 <prvInitialiseNewTimer>
10005e62:	0020      	movs	r0, r4
10005e64:	b005      	add	sp, #20
10005e66:	bdf0      	pop	{r4, r5, r6, r7, pc}

10005e68 <xTimerGenericCommand>:
10005e68:	b530      	push	{r4, r5, lr}
10005e6a:	b085      	sub	sp, #20
10005e6c:	0004      	movs	r4, r0
10005e6e:	001d      	movs	r5, r3
10005e70:	4b12      	ldr	r3, [pc, #72]	; (10005ebc <xTimerGenericCommand+0x54>)
10005e72:	68d8      	ldr	r0, [r3, #12]
10005e74:	2800      	cmp	r0, #0
10005e76:	d01f      	beq.n	10005eb8 <xTimerGenericCommand+0x50>
10005e78:	9101      	str	r1, [sp, #4]
10005e7a:	9202      	str	r2, [sp, #8]
10005e7c:	9403      	str	r4, [sp, #12]
10005e7e:	2905      	cmp	r1, #5
10005e80:	dc13      	bgt.n	10005eaa <xTimerGenericCommand+0x42>
10005e82:	f7ff fbbd 	bl	10005600 <xTaskGetSchedulerState>
10005e86:	2802      	cmp	r0, #2
10005e88:	d007      	beq.n	10005e9a <xTimerGenericCommand+0x32>
10005e8a:	4b0c      	ldr	r3, [pc, #48]	; (10005ebc <xTimerGenericCommand+0x54>)
10005e8c:	68d8      	ldr	r0, [r3, #12]
10005e8e:	2300      	movs	r3, #0
10005e90:	2200      	movs	r2, #0
10005e92:	a901      	add	r1, sp, #4
10005e94:	f000 facf 	bl	10006436 <xQueueGenericSend>
10005e98:	e00c      	b.n	10005eb4 <xTimerGenericCommand+0x4c>
10005e9a:	4b08      	ldr	r3, [pc, #32]	; (10005ebc <xTimerGenericCommand+0x54>)
10005e9c:	68d8      	ldr	r0, [r3, #12]
10005e9e:	2300      	movs	r3, #0
10005ea0:	9a08      	ldr	r2, [sp, #32]
10005ea2:	a901      	add	r1, sp, #4
10005ea4:	f000 fac7 	bl	10006436 <xQueueGenericSend>
10005ea8:	e004      	b.n	10005eb4 <xTimerGenericCommand+0x4c>
10005eaa:	2300      	movs	r3, #0
10005eac:	002a      	movs	r2, r5
10005eae:	a901      	add	r1, sp, #4
10005eb0:	f000 fb3a 	bl	10006528 <xQueueGenericSendFromISR>
10005eb4:	b005      	add	sp, #20
10005eb6:	bd30      	pop	{r4, r5, pc}
10005eb8:	2000      	movs	r0, #0
10005eba:	e7fb      	b.n	10005eb4 <xTimerGenericCommand+0x4c>
10005ebc:	20000d70 	.word	0x20000d70

10005ec0 <xTimerGetTimerDaemonTaskHandle>:
10005ec0:	4b01      	ldr	r3, [pc, #4]	; (10005ec8 <xTimerGetTimerDaemonTaskHandle+0x8>)
10005ec2:	6b98      	ldr	r0, [r3, #56]	; 0x38
10005ec4:	4770      	bx	lr
10005ec6:	46c0      	nop			; (mov r8, r8)
10005ec8:	20000d70 	.word	0x20000d70

10005ecc <xTimerGetPeriod>:
10005ecc:	6980      	ldr	r0, [r0, #24]
10005ece:	4770      	bx	lr

10005ed0 <vTimerSetReloadMode>:
10005ed0:	b570      	push	{r4, r5, r6, lr}
10005ed2:	0004      	movs	r4, r0
10005ed4:	000d      	movs	r5, r1
10005ed6:	f000 f8a3 	bl	10006020 <vPortEnterCritical>
10005eda:	2d00      	cmp	r5, #0
10005edc:	d007      	beq.n	10005eee <vTimerSetReloadMode+0x1e>
10005ede:	2224      	movs	r2, #36	; 0x24
10005ee0:	5ca3      	ldrb	r3, [r4, r2]
10005ee2:	2104      	movs	r1, #4
10005ee4:	430b      	orrs	r3, r1
10005ee6:	54a3      	strb	r3, [r4, r2]
10005ee8:	f000 f8a6 	bl	10006038 <vPortExitCritical>
10005eec:	bd70      	pop	{r4, r5, r6, pc}
10005eee:	2224      	movs	r2, #36	; 0x24
10005ef0:	5ca3      	ldrb	r3, [r4, r2]
10005ef2:	2104      	movs	r1, #4
10005ef4:	438b      	bics	r3, r1
10005ef6:	54a3      	strb	r3, [r4, r2]
10005ef8:	e7f6      	b.n	10005ee8 <vTimerSetReloadMode+0x18>

10005efa <xTimerGetReloadMode>:
10005efa:	b510      	push	{r4, lr}
10005efc:	0004      	movs	r4, r0
10005efe:	f000 f88f 	bl	10006020 <vPortEnterCritical>
10005f02:	2324      	movs	r3, #36	; 0x24
10005f04:	5ce3      	ldrb	r3, [r4, r3]
10005f06:	075b      	lsls	r3, r3, #29
10005f08:	d404      	bmi.n	10005f14 <xTimerGetReloadMode+0x1a>
10005f0a:	2400      	movs	r4, #0
10005f0c:	f000 f894 	bl	10006038 <vPortExitCritical>
10005f10:	0020      	movs	r0, r4
10005f12:	bd10      	pop	{r4, pc}
10005f14:	2401      	movs	r4, #1
10005f16:	e7f9      	b.n	10005f0c <xTimerGetReloadMode+0x12>

10005f18 <uxTimerGetReloadMode>:
10005f18:	b510      	push	{r4, lr}
10005f1a:	f7ff ffee 	bl	10005efa <xTimerGetReloadMode>
10005f1e:	bd10      	pop	{r4, pc}

10005f20 <xTimerGetExpiryTime>:
10005f20:	6840      	ldr	r0, [r0, #4]
10005f22:	4770      	bx	lr

10005f24 <pcTimerGetName>:
10005f24:	6800      	ldr	r0, [r0, #0]
10005f26:	4770      	bx	lr

10005f28 <xTimerIsTimerActive>:
10005f28:	b510      	push	{r4, lr}
10005f2a:	0004      	movs	r4, r0
10005f2c:	f000 f878 	bl	10006020 <vPortEnterCritical>
10005f30:	2324      	movs	r3, #36	; 0x24
10005f32:	5ce3      	ldrb	r3, [r4, r3]
10005f34:	07db      	lsls	r3, r3, #31
10005f36:	d404      	bmi.n	10005f42 <xTimerIsTimerActive+0x1a>
10005f38:	2400      	movs	r4, #0
10005f3a:	f000 f87d 	bl	10006038 <vPortExitCritical>
10005f3e:	0020      	movs	r0, r4
10005f40:	bd10      	pop	{r4, pc}
10005f42:	2401      	movs	r4, #1
10005f44:	e7f9      	b.n	10005f3a <xTimerIsTimerActive+0x12>

10005f46 <pvTimerGetTimerID>:
10005f46:	b510      	push	{r4, lr}
10005f48:	0004      	movs	r4, r0
10005f4a:	f000 f869 	bl	10006020 <vPortEnterCritical>
10005f4e:	69e4      	ldr	r4, [r4, #28]
10005f50:	f000 f872 	bl	10006038 <vPortExitCritical>
10005f54:	0020      	movs	r0, r4
10005f56:	bd10      	pop	{r4, pc}

10005f58 <vTimerSetTimerID>:
10005f58:	b570      	push	{r4, r5, r6, lr}
10005f5a:	0004      	movs	r4, r0
10005f5c:	000d      	movs	r5, r1
10005f5e:	f000 f85f 	bl	10006020 <vPortEnterCritical>
10005f62:	61e5      	str	r5, [r4, #28]
10005f64:	f000 f868 	bl	10006038 <vPortExitCritical>
10005f68:	bd70      	pop	{r4, r5, r6, pc}
10005f6a:	46c0      	nop			; (mov r8, r8)

10005f6c <pvPortMalloc>:
10005f6c:	b510      	push	{r4, lr}
10005f6e:	0004      	movs	r4, r0
10005f70:	f7fe ffa0 	bl	10004eb4 <vTaskSuspendAll>
10005f74:	0020      	movs	r0, r4
10005f76:	f7fe f9c5 	bl	10004304 <__wrap_malloc>
10005f7a:	0004      	movs	r4, r0
10005f7c:	f7ff f854 	bl	10005028 <xTaskResumeAll>
10005f80:	0020      	movs	r0, r4
10005f82:	bd10      	pop	{r4, pc}

10005f84 <vPortFree>:
10005f84:	b510      	push	{r4, lr}
10005f86:	1e04      	subs	r4, r0, #0
10005f88:	d006      	beq.n	10005f98 <vPortFree+0x14>
10005f8a:	f7fe ff93 	bl	10004eb4 <vTaskSuspendAll>
10005f8e:	0020      	movs	r0, r4
10005f90:	f7fe f9ca 	bl	10004328 <__wrap_free>
10005f94:	f7ff f848 	bl	10005028 <xTaskResumeAll>
10005f98:	bd10      	pop	{r4, pc}
10005f9a:	0000      	movs	r0, r0
10005f9c:	0000      	movs	r0, r0
	...

10005fa0 <prvTaskExitError>:
10005fa0:	b082      	sub	sp, #8
10005fa2:	2300      	movs	r3, #0
10005fa4:	9301      	str	r3, [sp, #4]
10005fa6:	b672      	cpsid	i
10005fa8:	9b01      	ldr	r3, [sp, #4]
10005faa:	2b00      	cmp	r3, #0
10005fac:	d0fc      	beq.n	10005fa8 <prvTaskExitError+0x8>
10005fae:	b002      	add	sp, #8
10005fb0:	4770      	bx	lr

10005fb2 <vPortStartFirstTask>:
10005fb2:	4a0b      	ldr	r2, [pc, #44]	; (10005fe0 <pxCurrentTCBConst2>)
10005fb4:	6813      	ldr	r3, [r2, #0]
10005fb6:	6818      	ldr	r0, [r3, #0]
10005fb8:	3020      	adds	r0, #32
10005fba:	f380 8809 	msr	PSP, r0
10005fbe:	2002      	movs	r0, #2
10005fc0:	f380 8814 	msr	CONTROL, r0
10005fc4:	f3bf 8f6f 	isb	sy
10005fc8:	bc3f      	pop	{r0, r1, r2, r3, r4, r5}
10005fca:	46ae      	mov	lr, r5
10005fcc:	bc08      	pop	{r3}
10005fce:	bc04      	pop	{r2}
10005fd0:	b662      	cpsie	i
10005fd2:	4718      	bx	r3
10005fd4:	46c0      	nop			; (mov r8, r8)
10005fd6:	46c0      	nop			; (mov r8, r8)
10005fd8:	46c0      	nop			; (mov r8, r8)
10005fda:	46c0      	nop			; (mov r8, r8)
10005fdc:	46c0      	nop			; (mov r8, r8)
10005fde:	46c0      	nop			; (mov r8, r8)

10005fe0 <pxCurrentTCBConst2>:
10005fe0:	20000d44 	.word	0x20000d44

10005fe4 <pxPortInitialiseStack>:
10005fe4:	b510      	push	{r4, lr}
10005fe6:	1f03      	subs	r3, r0, #4
10005fe8:	2480      	movs	r4, #128	; 0x80
10005fea:	0464      	lsls	r4, r4, #17
10005fec:	601c      	str	r4, [r3, #0]
10005fee:	3b04      	subs	r3, #4
10005ff0:	6019      	str	r1, [r3, #0]
10005ff2:	3b04      	subs	r3, #4
10005ff4:	4902      	ldr	r1, [pc, #8]	; (10006000 <pxPortInitialiseStack+0x1c>)
10005ff6:	6019      	str	r1, [r3, #0]
10005ff8:	3b14      	subs	r3, #20
10005ffa:	601a      	str	r2, [r3, #0]
10005ffc:	3840      	subs	r0, #64	; 0x40
10005ffe:	bd10      	pop	{r4, pc}
10006000:	10005fa1 	.word	0x10005fa1

10006004 <isr_svcall>:
10006004:	4770      	bx	lr

10006006 <vPortEndScheduler>:
10006006:	4770      	bx	lr

10006008 <vPortYield>:
10006008:	4b04      	ldr	r3, [pc, #16]	; (1000601c <vPortYield+0x14>)
1000600a:	2280      	movs	r2, #128	; 0x80
1000600c:	0552      	lsls	r2, r2, #21
1000600e:	601a      	str	r2, [r3, #0]
10006010:	f3bf 8f4f 	dsb	sy
10006014:	f3bf 8f6f 	isb	sy
10006018:	4770      	bx	lr
1000601a:	46c0      	nop			; (mov r8, r8)
1000601c:	e000ed04 	.word	0xe000ed04

10006020 <vPortEnterCritical>:
10006020:	b672      	cpsid	i
10006022:	4a04      	ldr	r2, [pc, #16]	; (10006034 <vPortEnterCritical+0x14>)
10006024:	6813      	ldr	r3, [r2, #0]
10006026:	3301      	adds	r3, #1
10006028:	6013      	str	r3, [r2, #0]
1000602a:	f3bf 8f4f 	dsb	sy
1000602e:	f3bf 8f6f 	isb	sy
10006032:	4770      	bx	lr
10006034:	200002ec 	.word	0x200002ec

10006038 <vPortExitCritical>:
10006038:	4a03      	ldr	r2, [pc, #12]	; (10006048 <vPortExitCritical+0x10>)
1000603a:	6813      	ldr	r3, [r2, #0]
1000603c:	3b01      	subs	r3, #1
1000603e:	6013      	str	r3, [r2, #0]
10006040:	2b00      	cmp	r3, #0
10006042:	d100      	bne.n	10006046 <vPortExitCritical+0xe>
10006044:	b662      	cpsie	i
10006046:	4770      	bx	lr
10006048:	200002ec 	.word	0x200002ec

1000604c <ulSetInterruptMaskFromISR>:
1000604c:	f3ef 8010 	mrs	r0, PRIMASK
10006050:	b672      	cpsid	i
10006052:	4770      	bx	lr

10006054 <vClearInterruptMaskFromISR>:
10006054:	f380 8810 	msr	PRIMASK, r0
10006058:	4770      	bx	lr

1000605a <isr_pendsv>:
1000605a:	f3ef 8009 	mrs	r0, PSP
1000605e:	4b10      	ldr	r3, [pc, #64]	; (100060a0 <pxCurrentTCBConst>)
10006060:	681a      	ldr	r2, [r3, #0]
10006062:	3820      	subs	r0, #32
10006064:	6010      	str	r0, [r2, #0]
10006066:	c0f0      	stmia	r0!, {r4, r5, r6, r7}
10006068:	4644      	mov	r4, r8
1000606a:	464d      	mov	r5, r9
1000606c:	4656      	mov	r6, sl
1000606e:	465f      	mov	r7, fp
10006070:	c0f0      	stmia	r0!, {r4, r5, r6, r7}
10006072:	b508      	push	{r3, lr}
10006074:	b672      	cpsid	i
10006076:	f7ff f8b9 	bl	100051ec <vTaskSwitchContext>
1000607a:	b662      	cpsie	i
1000607c:	bc0c      	pop	{r2, r3}
1000607e:	6811      	ldr	r1, [r2, #0]
10006080:	6808      	ldr	r0, [r1, #0]
10006082:	3010      	adds	r0, #16
10006084:	c8f0      	ldmia	r0!, {r4, r5, r6, r7}
10006086:	46a0      	mov	r8, r4
10006088:	46a9      	mov	r9, r5
1000608a:	46b2      	mov	sl, r6
1000608c:	46bb      	mov	fp, r7
1000608e:	f380 8809 	msr	PSP, r0
10006092:	3820      	subs	r0, #32
10006094:	c8f0      	ldmia	r0!, {r4, r5, r6, r7}
10006096:	4718      	bx	r3
10006098:	46c0      	nop			; (mov r8, r8)
1000609a:	46c0      	nop			; (mov r8, r8)
1000609c:	46c0      	nop			; (mov r8, r8)
1000609e:	46c0      	nop			; (mov r8, r8)

100060a0 <pxCurrentTCBConst>:
100060a0:	20000d44 	.word	0x20000d44

100060a4 <isr_systick>:
100060a4:	b510      	push	{r4, lr}
100060a6:	f7ff ffd1 	bl	1000604c <ulSetInterruptMaskFromISR>
100060aa:	0004      	movs	r4, r0
100060ac:	f7fe ff26 	bl	10004efc <xTaskIncrementTick>
100060b0:	2800      	cmp	r0, #0
100060b2:	d003      	beq.n	100060bc <isr_systick+0x18>
100060b4:	4b03      	ldr	r3, [pc, #12]	; (100060c4 <isr_systick+0x20>)
100060b6:	2280      	movs	r2, #128	; 0x80
100060b8:	0552      	lsls	r2, r2, #21
100060ba:	601a      	str	r2, [r3, #0]
100060bc:	0020      	movs	r0, r4
100060be:	f7ff ffc9 	bl	10006054 <vClearInterruptMaskFromISR>
100060c2:	bd10      	pop	{r4, pc}
100060c4:	e000ed04 	.word	0xe000ed04

100060c8 <vPortSetupTimerInterrupt>:
100060c8:	4b05      	ldr	r3, [pc, #20]	; (100060e0 <vPortSetupTimerInterrupt+0x18>)
100060ca:	2200      	movs	r2, #0
100060cc:	601a      	str	r2, [r3, #0]
100060ce:	4905      	ldr	r1, [pc, #20]	; (100060e4 <vPortSetupTimerInterrupt+0x1c>)
100060d0:	600a      	str	r2, [r1, #0]
100060d2:	4a05      	ldr	r2, [pc, #20]	; (100060e8 <vPortSetupTimerInterrupt+0x20>)
100060d4:	4905      	ldr	r1, [pc, #20]	; (100060ec <vPortSetupTimerInterrupt+0x24>)
100060d6:	6011      	str	r1, [r2, #0]
100060d8:	2207      	movs	r2, #7
100060da:	601a      	str	r2, [r3, #0]
100060dc:	4770      	bx	lr
100060de:	46c0      	nop			; (mov r8, r8)
100060e0:	e000e010 	.word	0xe000e010
100060e4:	e000e018 	.word	0xe000e018
100060e8:	e000e014 	.word	0xe000e014
100060ec:	00144b4f 	.word	0x00144b4f

100060f0 <xPortStartScheduler>:
100060f0:	b510      	push	{r4, lr}
100060f2:	4b0c      	ldr	r3, [pc, #48]	; (10006124 <xPortStartScheduler+0x34>)
100060f4:	6819      	ldr	r1, [r3, #0]
100060f6:	22ff      	movs	r2, #255	; 0xff
100060f8:	0412      	lsls	r2, r2, #16
100060fa:	430a      	orrs	r2, r1
100060fc:	601a      	str	r2, [r3, #0]
100060fe:	6819      	ldr	r1, [r3, #0]
10006100:	22ff      	movs	r2, #255	; 0xff
10006102:	0612      	lsls	r2, r2, #24
10006104:	430a      	orrs	r2, r1
10006106:	601a      	str	r2, [r3, #0]
10006108:	f7ff ffde 	bl	100060c8 <vPortSetupTimerInterrupt>
1000610c:	4b06      	ldr	r3, [pc, #24]	; (10006128 <xPortStartScheduler+0x38>)
1000610e:	2200      	movs	r2, #0
10006110:	601a      	str	r2, [r3, #0]
10006112:	f7ff ff4e 	bl	10005fb2 <vPortStartFirstTask>
10006116:	f7ff f869 	bl	100051ec <vTaskSwitchContext>
1000611a:	f7ff ff41 	bl	10005fa0 <prvTaskExitError>
1000611e:	2000      	movs	r0, #0
10006120:	bd10      	pop	{r4, pc}
10006122:	46c0      	nop			; (mov r8, r8)
10006124:	e000ed20 	.word	0xe000ed20
10006128:	200002ec 	.word	0x200002ec

1000612c <vListInitialise>:
1000612c:	0003      	movs	r3, r0
1000612e:	3308      	adds	r3, #8
10006130:	6043      	str	r3, [r0, #4]
10006132:	2201      	movs	r2, #1
10006134:	4252      	negs	r2, r2
10006136:	6082      	str	r2, [r0, #8]
10006138:	60c3      	str	r3, [r0, #12]
1000613a:	6103      	str	r3, [r0, #16]
1000613c:	2300      	movs	r3, #0
1000613e:	6003      	str	r3, [r0, #0]
10006140:	4770      	bx	lr

10006142 <vListInitialiseItem>:
10006142:	2300      	movs	r3, #0
10006144:	6103      	str	r3, [r0, #16]
10006146:	4770      	bx	lr

10006148 <vListInsertEnd>:
10006148:	6843      	ldr	r3, [r0, #4]
1000614a:	604b      	str	r3, [r1, #4]
1000614c:	689a      	ldr	r2, [r3, #8]
1000614e:	608a      	str	r2, [r1, #8]
10006150:	6051      	str	r1, [r2, #4]
10006152:	6099      	str	r1, [r3, #8]
10006154:	6108      	str	r0, [r1, #16]
10006156:	6803      	ldr	r3, [r0, #0]
10006158:	3301      	adds	r3, #1
1000615a:	6003      	str	r3, [r0, #0]
1000615c:	4770      	bx	lr

1000615e <vListInsert>:
1000615e:	b530      	push	{r4, r5, lr}
10006160:	680c      	ldr	r4, [r1, #0]
10006162:	1c63      	adds	r3, r4, #1
10006164:	d010      	beq.n	10006188 <vListInsert+0x2a>
10006166:	0003      	movs	r3, r0
10006168:	3308      	adds	r3, #8
1000616a:	001a      	movs	r2, r3
1000616c:	685b      	ldr	r3, [r3, #4]
1000616e:	681d      	ldr	r5, [r3, #0]
10006170:	42a5      	cmp	r5, r4
10006172:	d9fa      	bls.n	1000616a <vListInsert+0xc>
10006174:	6853      	ldr	r3, [r2, #4]
10006176:	604b      	str	r3, [r1, #4]
10006178:	6099      	str	r1, [r3, #8]
1000617a:	608a      	str	r2, [r1, #8]
1000617c:	6051      	str	r1, [r2, #4]
1000617e:	6108      	str	r0, [r1, #16]
10006180:	6803      	ldr	r3, [r0, #0]
10006182:	3301      	adds	r3, #1
10006184:	6003      	str	r3, [r0, #0]
10006186:	bd30      	pop	{r4, r5, pc}
10006188:	6902      	ldr	r2, [r0, #16]
1000618a:	e7f3      	b.n	10006174 <vListInsert+0x16>

1000618c <uxListRemove>:
1000618c:	6903      	ldr	r3, [r0, #16]
1000618e:	6841      	ldr	r1, [r0, #4]
10006190:	6882      	ldr	r2, [r0, #8]
10006192:	608a      	str	r2, [r1, #8]
10006194:	6841      	ldr	r1, [r0, #4]
10006196:	6051      	str	r1, [r2, #4]
10006198:	685a      	ldr	r2, [r3, #4]
1000619a:	4282      	cmp	r2, r0
1000619c:	d006      	beq.n	100061ac <uxListRemove+0x20>
1000619e:	2200      	movs	r2, #0
100061a0:	6102      	str	r2, [r0, #16]
100061a2:	681a      	ldr	r2, [r3, #0]
100061a4:	3a01      	subs	r2, #1
100061a6:	601a      	str	r2, [r3, #0]
100061a8:	6818      	ldr	r0, [r3, #0]
100061aa:	4770      	bx	lr
100061ac:	6882      	ldr	r2, [r0, #8]
100061ae:	605a      	str	r2, [r3, #4]
100061b0:	e7f5      	b.n	1000619e <uxListRemove+0x12>
	...

100061b4 <prvIsQueueFull>:
100061b4:	b510      	push	{r4, lr}
100061b6:	0004      	movs	r4, r0
100061b8:	f7ff ff32 	bl	10006020 <vPortEnterCritical>
100061bc:	6ba2      	ldr	r2, [r4, #56]	; 0x38
100061be:	6be3      	ldr	r3, [r4, #60]	; 0x3c
100061c0:	429a      	cmp	r2, r3
100061c2:	d004      	beq.n	100061ce <prvIsQueueFull+0x1a>
100061c4:	2400      	movs	r4, #0
100061c6:	f7ff ff37 	bl	10006038 <vPortExitCritical>
100061ca:	0020      	movs	r0, r4
100061cc:	bd10      	pop	{r4, pc}
100061ce:	2401      	movs	r4, #1
100061d0:	e7f9      	b.n	100061c6 <prvIsQueueFull+0x12>

100061d2 <prvIsQueueEmpty>:
100061d2:	b510      	push	{r4, lr}
100061d4:	0004      	movs	r4, r0
100061d6:	f7ff ff23 	bl	10006020 <vPortEnterCritical>
100061da:	6ba3      	ldr	r3, [r4, #56]	; 0x38
100061dc:	2b00      	cmp	r3, #0
100061de:	d104      	bne.n	100061ea <prvIsQueueEmpty+0x18>
100061e0:	2401      	movs	r4, #1
100061e2:	f7ff ff29 	bl	10006038 <vPortExitCritical>
100061e6:	0020      	movs	r0, r4
100061e8:	bd10      	pop	{r4, pc}
100061ea:	2400      	movs	r4, #0
100061ec:	e7f9      	b.n	100061e2 <prvIsQueueEmpty+0x10>

100061ee <prvCopyDataToQueue>:
100061ee:	b570      	push	{r4, r5, r6, lr}
100061f0:	0004      	movs	r4, r0
100061f2:	0016      	movs	r6, r2
100061f4:	6b85      	ldr	r5, [r0, #56]	; 0x38
100061f6:	6c02      	ldr	r2, [r0, #64]	; 0x40
100061f8:	2a00      	cmp	r2, #0
100061fa:	d020      	beq.n	1000623e <prvCopyDataToQueue+0x50>
100061fc:	2e00      	cmp	r6, #0
100061fe:	d10d      	bne.n	1000621c <prvCopyDataToQueue+0x2e>
10006200:	6840      	ldr	r0, [r0, #4]
10006202:	f7fe f8a3 	bl	1000434c <__wrap___aeabi_memcpy>
10006206:	6863      	ldr	r3, [r4, #4]
10006208:	6c22      	ldr	r2, [r4, #64]	; 0x40
1000620a:	4694      	mov	ip, r2
1000620c:	4463      	add	r3, ip
1000620e:	6063      	str	r3, [r4, #4]
10006210:	68a2      	ldr	r2, [r4, #8]
10006212:	4293      	cmp	r3, r2
10006214:	d313      	bcc.n	1000623e <prvCopyDataToQueue+0x50>
10006216:	6823      	ldr	r3, [r4, #0]
10006218:	6063      	str	r3, [r4, #4]
1000621a:	e010      	b.n	1000623e <prvCopyDataToQueue+0x50>
1000621c:	68c0      	ldr	r0, [r0, #12]
1000621e:	f7fe f895 	bl	1000434c <__wrap___aeabi_memcpy>
10006222:	6c23      	ldr	r3, [r4, #64]	; 0x40
10006224:	425a      	negs	r2, r3
10006226:	68e1      	ldr	r1, [r4, #12]
10006228:	1acb      	subs	r3, r1, r3
1000622a:	60e3      	str	r3, [r4, #12]
1000622c:	6821      	ldr	r1, [r4, #0]
1000622e:	428b      	cmp	r3, r1
10006230:	d203      	bcs.n	1000623a <prvCopyDataToQueue+0x4c>
10006232:	68a3      	ldr	r3, [r4, #8]
10006234:	469c      	mov	ip, r3
10006236:	4462      	add	r2, ip
10006238:	60e2      	str	r2, [r4, #12]
1000623a:	2e02      	cmp	r6, #2
1000623c:	d003      	beq.n	10006246 <prvCopyDataToQueue+0x58>
1000623e:	3501      	adds	r5, #1
10006240:	63a5      	str	r5, [r4, #56]	; 0x38
10006242:	2000      	movs	r0, #0
10006244:	bd70      	pop	{r4, r5, r6, pc}
10006246:	2d00      	cmp	r5, #0
10006248:	d0f9      	beq.n	1000623e <prvCopyDataToQueue+0x50>
1000624a:	3d01      	subs	r5, #1
1000624c:	e7f7      	b.n	1000623e <prvCopyDataToQueue+0x50>

1000624e <prvCopyDataFromQueue>:
1000624e:	b510      	push	{r4, lr}
10006250:	0003      	movs	r3, r0
10006252:	0008      	movs	r0, r1
10006254:	6c1a      	ldr	r2, [r3, #64]	; 0x40
10006256:	2a00      	cmp	r2, #0
10006258:	d00a      	beq.n	10006270 <prvCopyDataFromQueue+0x22>
1000625a:	68d9      	ldr	r1, [r3, #12]
1000625c:	1889      	adds	r1, r1, r2
1000625e:	60d9      	str	r1, [r3, #12]
10006260:	689c      	ldr	r4, [r3, #8]
10006262:	42a1      	cmp	r1, r4
10006264:	d301      	bcc.n	1000626a <prvCopyDataFromQueue+0x1c>
10006266:	6819      	ldr	r1, [r3, #0]
10006268:	60d9      	str	r1, [r3, #12]
1000626a:	68d9      	ldr	r1, [r3, #12]
1000626c:	f7fe f86e 	bl	1000434c <__wrap___aeabi_memcpy>
10006270:	bd10      	pop	{r4, pc}

10006272 <prvUnlockQueue>:
10006272:	b570      	push	{r4, r5, r6, lr}
10006274:	0005      	movs	r5, r0
10006276:	f7ff fed3 	bl	10006020 <vPortEnterCritical>
1000627a:	2345      	movs	r3, #69	; 0x45
1000627c:	5cec      	ldrb	r4, [r5, r3]
1000627e:	b264      	sxtb	r4, r4
10006280:	e001      	b.n	10006286 <prvUnlockQueue+0x14>
10006282:	3c01      	subs	r4, #1
10006284:	b264      	sxtb	r4, r4
10006286:	2c00      	cmp	r4, #0
10006288:	dd0b      	ble.n	100062a2 <prvUnlockQueue+0x30>
1000628a:	6a6b      	ldr	r3, [r5, #36]	; 0x24
1000628c:	2b00      	cmp	r3, #0
1000628e:	d008      	beq.n	100062a2 <prvUnlockQueue+0x30>
10006290:	0028      	movs	r0, r5
10006292:	3024      	adds	r0, #36	; 0x24
10006294:	f7ff f886 	bl	100053a4 <xTaskRemoveFromEventList>
10006298:	2800      	cmp	r0, #0
1000629a:	d0f2      	beq.n	10006282 <prvUnlockQueue+0x10>
1000629c:	f7ff f986 	bl	100055ac <vTaskMissedYield>
100062a0:	e7ef      	b.n	10006282 <prvUnlockQueue+0x10>
100062a2:	2345      	movs	r3, #69	; 0x45
100062a4:	22ff      	movs	r2, #255	; 0xff
100062a6:	54ea      	strb	r2, [r5, r3]
100062a8:	f7ff fec6 	bl	10006038 <vPortExitCritical>
100062ac:	f7ff feb8 	bl	10006020 <vPortEnterCritical>
100062b0:	2344      	movs	r3, #68	; 0x44
100062b2:	5cec      	ldrb	r4, [r5, r3]
100062b4:	b264      	sxtb	r4, r4
100062b6:	e001      	b.n	100062bc <prvUnlockQueue+0x4a>
100062b8:	3c01      	subs	r4, #1
100062ba:	b264      	sxtb	r4, r4
100062bc:	2c00      	cmp	r4, #0
100062be:	dd0b      	ble.n	100062d8 <prvUnlockQueue+0x66>
100062c0:	692b      	ldr	r3, [r5, #16]
100062c2:	2b00      	cmp	r3, #0
100062c4:	d008      	beq.n	100062d8 <prvUnlockQueue+0x66>
100062c6:	0028      	movs	r0, r5
100062c8:	3010      	adds	r0, #16
100062ca:	f7ff f86b 	bl	100053a4 <xTaskRemoveFromEventList>
100062ce:	2800      	cmp	r0, #0
100062d0:	d0f2      	beq.n	100062b8 <prvUnlockQueue+0x46>
100062d2:	f7ff f96b 	bl	100055ac <vTaskMissedYield>
100062d6:	e7ef      	b.n	100062b8 <prvUnlockQueue+0x46>
100062d8:	2344      	movs	r3, #68	; 0x44
100062da:	22ff      	movs	r2, #255	; 0xff
100062dc:	54ea      	strb	r2, [r5, r3]
100062de:	f7ff feab 	bl	10006038 <vPortExitCritical>
100062e2:	bd70      	pop	{r4, r5, r6, pc}

100062e4 <xQueueGenericReset>:
100062e4:	b5f8      	push	{r3, r4, r5, r6, r7, lr}
100062e6:	0004      	movs	r4, r0
100062e8:	000d      	movs	r5, r1
100062ea:	2800      	cmp	r0, #0
100062ec:	d052      	beq.n	10006394 <xQueueGenericReset+0xb0>
100062ee:	6bc3      	ldr	r3, [r0, #60]	; 0x3c
100062f0:	2b00      	cmp	r3, #0
100062f2:	d051      	beq.n	10006398 <xQueueGenericReset+0xb4>
100062f4:	6c01      	ldr	r1, [r0, #64]	; 0x40
100062f6:	2600      	movs	r6, #0
100062f8:	0c0f      	lsrs	r7, r1, #16
100062fa:	0c1a      	lsrs	r2, r3, #16
100062fc:	2f00      	cmp	r7, #0
100062fe:	d113      	bne.n	10006328 <xQueueGenericReset+0x44>
10006300:	b290      	uxth	r0, r2
10006302:	2800      	cmp	r0, #0
10006304:	d103      	bne.n	1000630e <xQueueGenericReset+0x2a>
10006306:	2e00      	cmp	r6, #0
10006308:	d014      	beq.n	10006334 <xQueueGenericReset+0x50>
1000630a:	2000      	movs	r0, #0
1000630c:	e045      	b.n	1000639a <xQueueGenericReset+0xb6>
1000630e:	1c08      	adds	r0, r1, #0
10006310:	b289      	uxth	r1, r1
10006312:	b29b      	uxth	r3, r3
10006314:	434b      	muls	r3, r1
10006316:	b280      	uxth	r0, r0
10006318:	b292      	uxth	r2, r2
1000631a:	4342      	muls	r2, r0
1000631c:	0c1b      	lsrs	r3, r3, #16
1000631e:	18d3      	adds	r3, r2, r3
10006320:	0c1b      	lsrs	r3, r3, #16
10006322:	d0f0      	beq.n	10006306 <xQueueGenericReset+0x22>
10006324:	2601      	movs	r6, #1
10006326:	e7ee      	b.n	10006306 <xQueueGenericReset+0x22>
10006328:	b292      	uxth	r2, r2
1000632a:	2a00      	cmp	r2, #0
1000632c:	d1fa      	bne.n	10006324 <xQueueGenericReset+0x40>
1000632e:	1c3a      	adds	r2, r7, #0
10006330:	1c18      	adds	r0, r3, #0
10006332:	e7ed      	b.n	10006310 <xQueueGenericReset+0x2c>
10006334:	f7ff fe74 	bl	10006020 <vPortEnterCritical>
10006338:	6822      	ldr	r2, [r4, #0]
1000633a:	6be3      	ldr	r3, [r4, #60]	; 0x3c
1000633c:	6c20      	ldr	r0, [r4, #64]	; 0x40
1000633e:	0001      	movs	r1, r0
10006340:	4359      	muls	r1, r3
10006342:	1851      	adds	r1, r2, r1
10006344:	60a1      	str	r1, [r4, #8]
10006346:	2100      	movs	r1, #0
10006348:	63a1      	str	r1, [r4, #56]	; 0x38
1000634a:	6062      	str	r2, [r4, #4]
1000634c:	3b01      	subs	r3, #1
1000634e:	4343      	muls	r3, r0
10006350:	18d3      	adds	r3, r2, r3
10006352:	60e3      	str	r3, [r4, #12]
10006354:	23ff      	movs	r3, #255	; 0xff
10006356:	2244      	movs	r2, #68	; 0x44
10006358:	54a3      	strb	r3, [r4, r2]
1000635a:	3201      	adds	r2, #1
1000635c:	54a3      	strb	r3, [r4, r2]
1000635e:	2d00      	cmp	r5, #0
10006360:	d10f      	bne.n	10006382 <xQueueGenericReset+0x9e>
10006362:	6923      	ldr	r3, [r4, #16]
10006364:	2b00      	cmp	r3, #0
10006366:	d103      	bne.n	10006370 <xQueueGenericReset+0x8c>
10006368:	f7ff fe66 	bl	10006038 <vPortExitCritical>
1000636c:	2001      	movs	r0, #1
1000636e:	e014      	b.n	1000639a <xQueueGenericReset+0xb6>
10006370:	0020      	movs	r0, r4
10006372:	3010      	adds	r0, #16
10006374:	f7ff f816 	bl	100053a4 <xTaskRemoveFromEventList>
10006378:	2800      	cmp	r0, #0
1000637a:	d0f5      	beq.n	10006368 <xQueueGenericReset+0x84>
1000637c:	f7ff fe44 	bl	10006008 <vPortYield>
10006380:	e7f2      	b.n	10006368 <xQueueGenericReset+0x84>
10006382:	0020      	movs	r0, r4
10006384:	3010      	adds	r0, #16
10006386:	f7ff fed1 	bl	1000612c <vListInitialise>
1000638a:	0020      	movs	r0, r4
1000638c:	3024      	adds	r0, #36	; 0x24
1000638e:	f7ff fecd 	bl	1000612c <vListInitialise>
10006392:	e7e9      	b.n	10006368 <xQueueGenericReset+0x84>
10006394:	2000      	movs	r0, #0
10006396:	e000      	b.n	1000639a <xQueueGenericReset+0xb6>
10006398:	2000      	movs	r0, #0
1000639a:	bdf8      	pop	{r3, r4, r5, r6, r7, pc}

1000639c <prvInitialiseNewQueue>:
1000639c:	b510      	push	{r4, lr}
1000639e:	0003      	movs	r3, r0
100063a0:	9802      	ldr	r0, [sp, #8]
100063a2:	2900      	cmp	r1, #0
100063a4:	d106      	bne.n	100063b4 <prvInitialiseNewQueue+0x18>
100063a6:	6000      	str	r0, [r0, #0]
100063a8:	63c3      	str	r3, [r0, #60]	; 0x3c
100063aa:	6401      	str	r1, [r0, #64]	; 0x40
100063ac:	2101      	movs	r1, #1
100063ae:	f7ff ff99 	bl	100062e4 <xQueueGenericReset>
100063b2:	bd10      	pop	{r4, pc}
100063b4:	6002      	str	r2, [r0, #0]
100063b6:	e7f7      	b.n	100063a8 <prvInitialiseNewQueue+0xc>

100063b8 <xQueueGenericCreate>:
100063b8:	b5f0      	push	{r4, r5, r6, r7, lr}
100063ba:	b083      	sub	sp, #12
100063bc:	0004      	movs	r4, r0
100063be:	000d      	movs	r5, r1
100063c0:	0016      	movs	r6, r2
100063c2:	2800      	cmp	r0, #0
100063c4:	d02f      	beq.n	10006426 <xQueueGenericCreate+0x6e>
100063c6:	2000      	movs	r0, #0
100063c8:	0c0a      	lsrs	r2, r1, #16
100063ca:	0c23      	lsrs	r3, r4, #16
100063cc:	2a00      	cmp	r2, #0
100063ce:	d125      	bne.n	1000641c <xQueueGenericCreate+0x64>
100063d0:	b29a      	uxth	r2, r3
100063d2:	2a00      	cmp	r2, #0
100063d4:	d114      	bne.n	10006400 <xQueueGenericCreate+0x48>
100063d6:	2800      	cmp	r0, #0
100063d8:	d129      	bne.n	1000642e <xQueueGenericCreate+0x76>
100063da:	0028      	movs	r0, r5
100063dc:	4360      	muls	r0, r4
100063de:	0003      	movs	r3, r0
100063e0:	3349      	adds	r3, #73	; 0x49
100063e2:	d826      	bhi.n	10006432 <xQueueGenericCreate+0x7a>
100063e4:	3048      	adds	r0, #72	; 0x48
100063e6:	f7ff fdc1 	bl	10005f6c <pvPortMalloc>
100063ea:	1e07      	subs	r7, r0, #0
100063ec:	d01c      	beq.n	10006428 <xQueueGenericCreate+0x70>
100063ee:	0002      	movs	r2, r0
100063f0:	3248      	adds	r2, #72	; 0x48
100063f2:	9000      	str	r0, [sp, #0]
100063f4:	0033      	movs	r3, r6
100063f6:	0029      	movs	r1, r5
100063f8:	0020      	movs	r0, r4
100063fa:	f7ff ffcf 	bl	1000639c <prvInitialiseNewQueue>
100063fe:	e013      	b.n	10006428 <xQueueGenericCreate+0x70>
10006400:	1c1a      	adds	r2, r3, #0
10006402:	1c2f      	adds	r7, r5, #0
10006404:	b2ab      	uxth	r3, r5
10006406:	b2a1      	uxth	r1, r4
10006408:	4359      	muls	r1, r3
1000640a:	b2bf      	uxth	r7, r7
1000640c:	b293      	uxth	r3, r2
1000640e:	437b      	muls	r3, r7
10006410:	0c09      	lsrs	r1, r1, #16
10006412:	185b      	adds	r3, r3, r1
10006414:	0c1b      	lsrs	r3, r3, #16
10006416:	d0de      	beq.n	100063d6 <xQueueGenericCreate+0x1e>
10006418:	2001      	movs	r0, #1
1000641a:	e7dc      	b.n	100063d6 <xQueueGenericCreate+0x1e>
1000641c:	b29b      	uxth	r3, r3
1000641e:	2b00      	cmp	r3, #0
10006420:	d1fa      	bne.n	10006418 <xQueueGenericCreate+0x60>
10006422:	1c27      	adds	r7, r4, #0
10006424:	e7ee      	b.n	10006404 <xQueueGenericCreate+0x4c>
10006426:	2700      	movs	r7, #0
10006428:	0038      	movs	r0, r7
1000642a:	b003      	add	sp, #12
1000642c:	bdf0      	pop	{r4, r5, r6, r7, pc}
1000642e:	2700      	movs	r7, #0
10006430:	e7fa      	b.n	10006428 <xQueueGenericCreate+0x70>
10006432:	2700      	movs	r7, #0
10006434:	e7f8      	b.n	10006428 <xQueueGenericCreate+0x70>

10006436 <xQueueGenericSend>:
10006436:	b5f0      	push	{r4, r5, r6, r7, lr}
10006438:	b085      	sub	sp, #20
1000643a:	0004      	movs	r4, r0
1000643c:	000d      	movs	r5, r1
1000643e:	9201      	str	r2, [sp, #4]
10006440:	001e      	movs	r6, r3
10006442:	2700      	movs	r7, #0
10006444:	e030      	b.n	100064a8 <xQueueGenericSend+0x72>
10006446:	0032      	movs	r2, r6
10006448:	0029      	movs	r1, r5
1000644a:	0020      	movs	r0, r4
1000644c:	f7ff fecf 	bl	100061ee <prvCopyDataToQueue>
10006450:	6a63      	ldr	r3, [r4, #36]	; 0x24
10006452:	2b00      	cmp	r3, #0
10006454:	d106      	bne.n	10006464 <xQueueGenericSend+0x2e>
10006456:	2800      	cmp	r0, #0
10006458:	d10d      	bne.n	10006476 <xQueueGenericSend+0x40>
1000645a:	f7ff fded 	bl	10006038 <vPortExitCritical>
1000645e:	2001      	movs	r0, #1
10006460:	b005      	add	sp, #20
10006462:	bdf0      	pop	{r4, r5, r6, r7, pc}
10006464:	0020      	movs	r0, r4
10006466:	3024      	adds	r0, #36	; 0x24
10006468:	f7fe ff9c 	bl	100053a4 <xTaskRemoveFromEventList>
1000646c:	2800      	cmp	r0, #0
1000646e:	d0f4      	beq.n	1000645a <xQueueGenericSend+0x24>
10006470:	f7ff fdca 	bl	10006008 <vPortYield>
10006474:	e7f1      	b.n	1000645a <xQueueGenericSend+0x24>
10006476:	f7ff fdc7 	bl	10006008 <vPortYield>
1000647a:	e7ee      	b.n	1000645a <xQueueGenericSend+0x24>
1000647c:	f7ff fddc 	bl	10006038 <vPortExitCritical>
10006480:	2000      	movs	r0, #0
10006482:	e7ed      	b.n	10006460 <xQueueGenericSend+0x2a>
10006484:	a802      	add	r0, sp, #8
10006486:	f7ff f85d 	bl	10005544 <vTaskInternalSetTimeOutState>
1000648a:	3701      	adds	r7, #1
1000648c:	e019      	b.n	100064c2 <xQueueGenericSend+0x8c>
1000648e:	2344      	movs	r3, #68	; 0x44
10006490:	2200      	movs	r2, #0
10006492:	54e2      	strb	r2, [r4, r3]
10006494:	e020      	b.n	100064d8 <xQueueGenericSend+0xa2>
10006496:	2345      	movs	r3, #69	; 0x45
10006498:	2200      	movs	r2, #0
1000649a:	54e2      	strb	r2, [r4, r3]
1000649c:	e021      	b.n	100064e2 <xQueueGenericSend+0xac>
1000649e:	0020      	movs	r0, r4
100064a0:	f7ff fee7 	bl	10006272 <prvUnlockQueue>
100064a4:	f7fe fdc0 	bl	10005028 <xTaskResumeAll>
100064a8:	f7ff fdba 	bl	10006020 <vPortEnterCritical>
100064ac:	6ba3      	ldr	r3, [r4, #56]	; 0x38
100064ae:	6be2      	ldr	r2, [r4, #60]	; 0x3c
100064b0:	4293      	cmp	r3, r2
100064b2:	d3c8      	bcc.n	10006446 <xQueueGenericSend+0x10>
100064b4:	2e02      	cmp	r6, #2
100064b6:	d0c6      	beq.n	10006446 <xQueueGenericSend+0x10>
100064b8:	9b01      	ldr	r3, [sp, #4]
100064ba:	2b00      	cmp	r3, #0
100064bc:	d0de      	beq.n	1000647c <xQueueGenericSend+0x46>
100064be:	2f00      	cmp	r7, #0
100064c0:	d0e0      	beq.n	10006484 <xQueueGenericSend+0x4e>
100064c2:	f7ff fdb9 	bl	10006038 <vPortExitCritical>
100064c6:	f7fe fcf5 	bl	10004eb4 <vTaskSuspendAll>
100064ca:	f7ff fda9 	bl	10006020 <vPortEnterCritical>
100064ce:	2344      	movs	r3, #68	; 0x44
100064d0:	5ce1      	ldrb	r1, [r4, r3]
100064d2:	b249      	sxtb	r1, r1
100064d4:	1c4b      	adds	r3, r1, #1
100064d6:	d0da      	beq.n	1000648e <xQueueGenericSend+0x58>
100064d8:	2345      	movs	r3, #69	; 0x45
100064da:	5ce0      	ldrb	r0, [r4, r3]
100064dc:	b240      	sxtb	r0, r0
100064de:	1c43      	adds	r3, r0, #1
100064e0:	d0d9      	beq.n	10006496 <xQueueGenericSend+0x60>
100064e2:	f7ff fda9 	bl	10006038 <vPortExitCritical>
100064e6:	a901      	add	r1, sp, #4
100064e8:	a802      	add	r0, sp, #8
100064ea:	f7ff f833 	bl	10005554 <xTaskCheckForTimeOut>
100064ee:	2800      	cmp	r0, #0
100064f0:	d113      	bne.n	1000651a <xQueueGenericSend+0xe4>
100064f2:	0020      	movs	r0, r4
100064f4:	f7ff fe5e 	bl	100061b4 <prvIsQueueFull>
100064f8:	2800      	cmp	r0, #0
100064fa:	d0d0      	beq.n	1000649e <xQueueGenericSend+0x68>
100064fc:	0020      	movs	r0, r4
100064fe:	3010      	adds	r0, #16
10006500:	9901      	ldr	r1, [sp, #4]
10006502:	f7fe ff01 	bl	10005308 <vTaskPlaceOnEventList>
10006506:	0020      	movs	r0, r4
10006508:	f7ff feb3 	bl	10006272 <prvUnlockQueue>
1000650c:	f7fe fd8c 	bl	10005028 <xTaskResumeAll>
10006510:	2800      	cmp	r0, #0
10006512:	d1c9      	bne.n	100064a8 <xQueueGenericSend+0x72>
10006514:	f7ff fd78 	bl	10006008 <vPortYield>
10006518:	e7c6      	b.n	100064a8 <xQueueGenericSend+0x72>
1000651a:	0020      	movs	r0, r4
1000651c:	f7ff fea9 	bl	10006272 <prvUnlockQueue>
10006520:	f7fe fd82 	bl	10005028 <xTaskResumeAll>
10006524:	2000      	movs	r0, #0
10006526:	e79b      	b.n	10006460 <xQueueGenericSend+0x2a>

10006528 <xQueueGenericSendFromISR>:
10006528:	b5f0      	push	{r4, r5, r6, r7, lr}
1000652a:	b083      	sub	sp, #12
1000652c:	0004      	movs	r4, r0
1000652e:	9100      	str	r1, [sp, #0]
10006530:	9201      	str	r2, [sp, #4]
10006532:	001d      	movs	r5, r3
10006534:	f7ff fd8a 	bl	1000604c <ulSetInterruptMaskFromISR>
10006538:	0007      	movs	r7, r0
1000653a:	6ba3      	ldr	r3, [r4, #56]	; 0x38
1000653c:	6be2      	ldr	r2, [r4, #60]	; 0x3c
1000653e:	4293      	cmp	r3, r2
10006540:	d308      	bcc.n	10006554 <xQueueGenericSendFromISR+0x2c>
10006542:	2d02      	cmp	r5, #2
10006544:	d006      	beq.n	10006554 <xQueueGenericSendFromISR+0x2c>
10006546:	2400      	movs	r4, #0
10006548:	0038      	movs	r0, r7
1000654a:	f7ff fd83 	bl	10006054 <vClearInterruptMaskFromISR>
1000654e:	0020      	movs	r0, r4
10006550:	b003      	add	sp, #12
10006552:	bdf0      	pop	{r4, r5, r6, r7, pc}
10006554:	2345      	movs	r3, #69	; 0x45
10006556:	5ce6      	ldrb	r6, [r4, r3]
10006558:	b276      	sxtb	r6, r6
1000655a:	6ba3      	ldr	r3, [r4, #56]	; 0x38
1000655c:	002a      	movs	r2, r5
1000655e:	9900      	ldr	r1, [sp, #0]
10006560:	0020      	movs	r0, r4
10006562:	f7ff fe44 	bl	100061ee <prvCopyDataToQueue>
10006566:	1c73      	adds	r3, r6, #1
10006568:	d111      	bne.n	1000658e <xQueueGenericSendFromISR+0x66>
1000656a:	6a63      	ldr	r3, [r4, #36]	; 0x24
1000656c:	2b00      	cmp	r3, #0
1000656e:	d101      	bne.n	10006574 <xQueueGenericSendFromISR+0x4c>
10006570:	2401      	movs	r4, #1
10006572:	e7e9      	b.n	10006548 <xQueueGenericSendFromISR+0x20>
10006574:	0020      	movs	r0, r4
10006576:	3024      	adds	r0, #36	; 0x24
10006578:	f7fe ff14 	bl	100053a4 <xTaskRemoveFromEventList>
1000657c:	2800      	cmp	r0, #0
1000657e:	d010      	beq.n	100065a2 <xQueueGenericSendFromISR+0x7a>
10006580:	9a01      	ldr	r2, [sp, #4]
10006582:	2a00      	cmp	r2, #0
10006584:	d00f      	beq.n	100065a6 <xQueueGenericSendFromISR+0x7e>
10006586:	2301      	movs	r3, #1
10006588:	6013      	str	r3, [r2, #0]
1000658a:	2401      	movs	r4, #1
1000658c:	e7dc      	b.n	10006548 <xQueueGenericSendFromISR+0x20>
1000658e:	f7fe fca5 	bl	10004edc <uxTaskGetNumberOfTasks>
10006592:	4286      	cmp	r6, r0
10006594:	d209      	bcs.n	100065aa <xQueueGenericSendFromISR+0x82>
10006596:	1c73      	adds	r3, r6, #1
10006598:	b25b      	sxtb	r3, r3
1000659a:	2245      	movs	r2, #69	; 0x45
1000659c:	54a3      	strb	r3, [r4, r2]
1000659e:	2401      	movs	r4, #1
100065a0:	e7d2      	b.n	10006548 <xQueueGenericSendFromISR+0x20>
100065a2:	2401      	movs	r4, #1
100065a4:	e7d0      	b.n	10006548 <xQueueGenericSendFromISR+0x20>
100065a6:	2401      	movs	r4, #1
100065a8:	e7ce      	b.n	10006548 <xQueueGenericSendFromISR+0x20>
100065aa:	2401      	movs	r4, #1
100065ac:	e7cc      	b.n	10006548 <xQueueGenericSendFromISR+0x20>

100065ae <xQueueGiveFromISR>:
100065ae:	b5f8      	push	{r3, r4, r5, r6, r7, lr}
100065b0:	0004      	movs	r4, r0
100065b2:	000e      	movs	r6, r1
100065b4:	f7ff fd4a 	bl	1000604c <ulSetInterruptMaskFromISR>
100065b8:	0005      	movs	r5, r0
100065ba:	6ba3      	ldr	r3, [r4, #56]	; 0x38
100065bc:	6be2      	ldr	r2, [r4, #60]	; 0x3c
100065be:	429a      	cmp	r2, r3
100065c0:	d921      	bls.n	10006606 <xQueueGiveFromISR+0x58>
100065c2:	2245      	movs	r2, #69	; 0x45
100065c4:	5ca7      	ldrb	r7, [r4, r2]
100065c6:	b27f      	sxtb	r7, r7
100065c8:	3301      	adds	r3, #1
100065ca:	63a3      	str	r3, [r4, #56]	; 0x38
100065cc:	1c7b      	adds	r3, r7, #1
100065ce:	d110      	bne.n	100065f2 <xQueueGiveFromISR+0x44>
100065d0:	6a63      	ldr	r3, [r4, #36]	; 0x24
100065d2:	2b00      	cmp	r3, #0
100065d4:	d101      	bne.n	100065da <xQueueGiveFromISR+0x2c>
100065d6:	2401      	movs	r4, #1
100065d8:	e016      	b.n	10006608 <xQueueGiveFromISR+0x5a>
100065da:	0020      	movs	r0, r4
100065dc:	3024      	adds	r0, #36	; 0x24
100065de:	f7fe fee1 	bl	100053a4 <xTaskRemoveFromEventList>
100065e2:	2800      	cmp	r0, #0
100065e4:	d015      	beq.n	10006612 <xQueueGiveFromISR+0x64>
100065e6:	2e00      	cmp	r6, #0
100065e8:	d015      	beq.n	10006616 <xQueueGiveFromISR+0x68>
100065ea:	2301      	movs	r3, #1
100065ec:	6033      	str	r3, [r6, #0]
100065ee:	2401      	movs	r4, #1
100065f0:	e00a      	b.n	10006608 <xQueueGiveFromISR+0x5a>
100065f2:	f7fe fc73 	bl	10004edc <uxTaskGetNumberOfTasks>
100065f6:	4287      	cmp	r7, r0
100065f8:	d20f      	bcs.n	1000661a <xQueueGiveFromISR+0x6c>
100065fa:	3701      	adds	r7, #1
100065fc:	b27f      	sxtb	r7, r7
100065fe:	2345      	movs	r3, #69	; 0x45
10006600:	54e7      	strb	r7, [r4, r3]
10006602:	2401      	movs	r4, #1
10006604:	e000      	b.n	10006608 <xQueueGiveFromISR+0x5a>
10006606:	2400      	movs	r4, #0
10006608:	0028      	movs	r0, r5
1000660a:	f7ff fd23 	bl	10006054 <vClearInterruptMaskFromISR>
1000660e:	0020      	movs	r0, r4
10006610:	bdf8      	pop	{r3, r4, r5, r6, r7, pc}
10006612:	2401      	movs	r4, #1
10006614:	e7f8      	b.n	10006608 <xQueueGiveFromISR+0x5a>
10006616:	2401      	movs	r4, #1
10006618:	e7f6      	b.n	10006608 <xQueueGiveFromISR+0x5a>
1000661a:	2401      	movs	r4, #1
1000661c:	e7f4      	b.n	10006608 <xQueueGiveFromISR+0x5a>

1000661e <xQueueReceive>:
1000661e:	b5f0      	push	{r4, r5, r6, r7, lr}
10006620:	b085      	sub	sp, #20
10006622:	0004      	movs	r4, r0
10006624:	000d      	movs	r5, r1
10006626:	9201      	str	r2, [sp, #4]
10006628:	2700      	movs	r7, #0
1000662a:	e037      	b.n	1000669c <xQueueReceive+0x7e>
1000662c:	0029      	movs	r1, r5
1000662e:	0020      	movs	r0, r4
10006630:	f7ff fe0d 	bl	1000624e <prvCopyDataFromQueue>
10006634:	3e01      	subs	r6, #1
10006636:	63a6      	str	r6, [r4, #56]	; 0x38
10006638:	6923      	ldr	r3, [r4, #16]
1000663a:	2b00      	cmp	r3, #0
1000663c:	d104      	bne.n	10006648 <xQueueReceive+0x2a>
1000663e:	f7ff fcfb 	bl	10006038 <vPortExitCritical>
10006642:	2001      	movs	r0, #1
10006644:	b005      	add	sp, #20
10006646:	bdf0      	pop	{r4, r5, r6, r7, pc}
10006648:	0020      	movs	r0, r4
1000664a:	3010      	adds	r0, #16
1000664c:	f7fe feaa 	bl	100053a4 <xTaskRemoveFromEventList>
10006650:	2800      	cmp	r0, #0
10006652:	d0f4      	beq.n	1000663e <xQueueReceive+0x20>
10006654:	f7ff fcd8 	bl	10006008 <vPortYield>
10006658:	e7f1      	b.n	1000663e <xQueueReceive+0x20>
1000665a:	f7ff fced 	bl	10006038 <vPortExitCritical>
1000665e:	2000      	movs	r0, #0
10006660:	e7f0      	b.n	10006644 <xQueueReceive+0x26>
10006662:	a802      	add	r0, sp, #8
10006664:	f7fe ff6e 	bl	10005544 <vTaskInternalSetTimeOutState>
10006668:	3701      	adds	r7, #1
1000666a:	e021      	b.n	100066b0 <xQueueReceive+0x92>
1000666c:	2344      	movs	r3, #68	; 0x44
1000666e:	2200      	movs	r2, #0
10006670:	54e2      	strb	r2, [r4, r3]
10006672:	e028      	b.n	100066c6 <xQueueReceive+0xa8>
10006674:	2345      	movs	r3, #69	; 0x45
10006676:	2200      	movs	r2, #0
10006678:	54e2      	strb	r2, [r4, r3]
1000667a:	e029      	b.n	100066d0 <xQueueReceive+0xb2>
1000667c:	0020      	movs	r0, r4
1000667e:	f7ff fdf8 	bl	10006272 <prvUnlockQueue>
10006682:	f7fe fcd1 	bl	10005028 <xTaskResumeAll>
10006686:	e009      	b.n	1000669c <xQueueReceive+0x7e>
10006688:	0020      	movs	r0, r4
1000668a:	f7ff fdf2 	bl	10006272 <prvUnlockQueue>
1000668e:	f7fe fccb 	bl	10005028 <xTaskResumeAll>
10006692:	0020      	movs	r0, r4
10006694:	f7ff fd9d 	bl	100061d2 <prvIsQueueEmpty>
10006698:	2800      	cmp	r0, #0
1000669a:	d135      	bne.n	10006708 <xQueueReceive+0xea>
1000669c:	f7ff fcc0 	bl	10006020 <vPortEnterCritical>
100066a0:	6ba6      	ldr	r6, [r4, #56]	; 0x38
100066a2:	2e00      	cmp	r6, #0
100066a4:	d1c2      	bne.n	1000662c <xQueueReceive+0xe>
100066a6:	9b01      	ldr	r3, [sp, #4]
100066a8:	2b00      	cmp	r3, #0
100066aa:	d0d6      	beq.n	1000665a <xQueueReceive+0x3c>
100066ac:	2f00      	cmp	r7, #0
100066ae:	d0d8      	beq.n	10006662 <xQueueReceive+0x44>
100066b0:	f7ff fcc2 	bl	10006038 <vPortExitCritical>
100066b4:	f7fe fbfe 	bl	10004eb4 <vTaskSuspendAll>
100066b8:	f7ff fcb2 	bl	10006020 <vPortEnterCritical>
100066bc:	2344      	movs	r3, #68	; 0x44
100066be:	5ce3      	ldrb	r3, [r4, r3]
100066c0:	b25b      	sxtb	r3, r3
100066c2:	3301      	adds	r3, #1
100066c4:	d0d2      	beq.n	1000666c <xQueueReceive+0x4e>
100066c6:	2345      	movs	r3, #69	; 0x45
100066c8:	5ce3      	ldrb	r3, [r4, r3]
100066ca:	b25b      	sxtb	r3, r3
100066cc:	3301      	adds	r3, #1
100066ce:	d0d1      	beq.n	10006674 <xQueueReceive+0x56>
100066d0:	f7ff fcb2 	bl	10006038 <vPortExitCritical>
100066d4:	a901      	add	r1, sp, #4
100066d6:	a802      	add	r0, sp, #8
100066d8:	f7fe ff3c 	bl	10005554 <xTaskCheckForTimeOut>
100066dc:	2800      	cmp	r0, #0
100066de:	d1d3      	bne.n	10006688 <xQueueReceive+0x6a>
100066e0:	0020      	movs	r0, r4
100066e2:	f7ff fd76 	bl	100061d2 <prvIsQueueEmpty>
100066e6:	2800      	cmp	r0, #0
100066e8:	d0c8      	beq.n	1000667c <xQueueReceive+0x5e>
100066ea:	0020      	movs	r0, r4
100066ec:	3024      	adds	r0, #36	; 0x24
100066ee:	9901      	ldr	r1, [sp, #4]
100066f0:	f7fe fe0a 	bl	10005308 <vTaskPlaceOnEventList>
100066f4:	0020      	movs	r0, r4
100066f6:	f7ff fdbc 	bl	10006272 <prvUnlockQueue>
100066fa:	f7fe fc95 	bl	10005028 <xTaskResumeAll>
100066fe:	2800      	cmp	r0, #0
10006700:	d1cc      	bne.n	1000669c <xQueueReceive+0x7e>
10006702:	f7ff fc81 	bl	10006008 <vPortYield>
10006706:	e7c9      	b.n	1000669c <xQueueReceive+0x7e>
10006708:	2000      	movs	r0, #0
1000670a:	e79b      	b.n	10006644 <xQueueReceive+0x26>

1000670c <xQueueSemaphoreTake>:
1000670c:	b530      	push	{r4, r5, lr}
1000670e:	b085      	sub	sp, #20
10006710:	0004      	movs	r4, r0
10006712:	9101      	str	r1, [sp, #4]
10006714:	2500      	movs	r5, #0
10006716:	e033      	b.n	10006780 <xQueueSemaphoreTake+0x74>
10006718:	3b01      	subs	r3, #1
1000671a:	63a3      	str	r3, [r4, #56]	; 0x38
1000671c:	6923      	ldr	r3, [r4, #16]
1000671e:	2b00      	cmp	r3, #0
10006720:	d104      	bne.n	1000672c <xQueueSemaphoreTake+0x20>
10006722:	f7ff fc89 	bl	10006038 <vPortExitCritical>
10006726:	2001      	movs	r0, #1
10006728:	b005      	add	sp, #20
1000672a:	bd30      	pop	{r4, r5, pc}
1000672c:	0020      	movs	r0, r4
1000672e:	3010      	adds	r0, #16
10006730:	f7fe fe38 	bl	100053a4 <xTaskRemoveFromEventList>
10006734:	2800      	cmp	r0, #0
10006736:	d0f4      	beq.n	10006722 <xQueueSemaphoreTake+0x16>
10006738:	f7ff fc66 	bl	10006008 <vPortYield>
1000673c:	e7f1      	b.n	10006722 <xQueueSemaphoreTake+0x16>
1000673e:	f7ff fc7b 	bl	10006038 <vPortExitCritical>
10006742:	2000      	movs	r0, #0
10006744:	e7f0      	b.n	10006728 <xQueueSemaphoreTake+0x1c>
10006746:	a802      	add	r0, sp, #8
10006748:	f7fe fefc 	bl	10005544 <vTaskInternalSetTimeOutState>
1000674c:	3501      	adds	r5, #1
1000674e:	e021      	b.n	10006794 <xQueueSemaphoreTake+0x88>
10006750:	2344      	movs	r3, #68	; 0x44
10006752:	2200      	movs	r2, #0
10006754:	54e2      	strb	r2, [r4, r3]
10006756:	e028      	b.n	100067aa <xQueueSemaphoreTake+0x9e>
10006758:	2345      	movs	r3, #69	; 0x45
1000675a:	2200      	movs	r2, #0
1000675c:	54e2      	strb	r2, [r4, r3]
1000675e:	e029      	b.n	100067b4 <xQueueSemaphoreTake+0xa8>
10006760:	0020      	movs	r0, r4
10006762:	f7ff fd86 	bl	10006272 <prvUnlockQueue>
10006766:	f7fe fc5f 	bl	10005028 <xTaskResumeAll>
1000676a:	e009      	b.n	10006780 <xQueueSemaphoreTake+0x74>
1000676c:	0020      	movs	r0, r4
1000676e:	f7ff fd80 	bl	10006272 <prvUnlockQueue>
10006772:	f7fe fc59 	bl	10005028 <xTaskResumeAll>
10006776:	0020      	movs	r0, r4
10006778:	f7ff fd2b 	bl	100061d2 <prvIsQueueEmpty>
1000677c:	2800      	cmp	r0, #0
1000677e:	d135      	bne.n	100067ec <xQueueSemaphoreTake+0xe0>
10006780:	f7ff fc4e 	bl	10006020 <vPortEnterCritical>
10006784:	6ba3      	ldr	r3, [r4, #56]	; 0x38
10006786:	2b00      	cmp	r3, #0
10006788:	d1c6      	bne.n	10006718 <xQueueSemaphoreTake+0xc>
1000678a:	9b01      	ldr	r3, [sp, #4]
1000678c:	2b00      	cmp	r3, #0
1000678e:	d0d6      	beq.n	1000673e <xQueueSemaphoreTake+0x32>
10006790:	2d00      	cmp	r5, #0
10006792:	d0d8      	beq.n	10006746 <xQueueSemaphoreTake+0x3a>
10006794:	f7ff fc50 	bl	10006038 <vPortExitCritical>
10006798:	f7fe fb8c 	bl	10004eb4 <vTaskSuspendAll>
1000679c:	f7ff fc40 	bl	10006020 <vPortEnterCritical>
100067a0:	2344      	movs	r3, #68	; 0x44
100067a2:	5ce3      	ldrb	r3, [r4, r3]
100067a4:	b25b      	sxtb	r3, r3
100067a6:	3301      	adds	r3, #1
100067a8:	d0d2      	beq.n	10006750 <xQueueSemaphoreTake+0x44>
100067aa:	2345      	movs	r3, #69	; 0x45
100067ac:	5ce3      	ldrb	r3, [r4, r3]
100067ae:	b25b      	sxtb	r3, r3
100067b0:	3301      	adds	r3, #1
100067b2:	d0d1      	beq.n	10006758 <xQueueSemaphoreTake+0x4c>
100067b4:	f7ff fc40 	bl	10006038 <vPortExitCritical>
100067b8:	a901      	add	r1, sp, #4
100067ba:	a802      	add	r0, sp, #8
100067bc:	f7fe feca 	bl	10005554 <xTaskCheckForTimeOut>
100067c0:	2800      	cmp	r0, #0
100067c2:	d1d3      	bne.n	1000676c <xQueueSemaphoreTake+0x60>
100067c4:	0020      	movs	r0, r4
100067c6:	f7ff fd04 	bl	100061d2 <prvIsQueueEmpty>
100067ca:	2800      	cmp	r0, #0
100067cc:	d0c8      	beq.n	10006760 <xQueueSemaphoreTake+0x54>
100067ce:	0020      	movs	r0, r4
100067d0:	3024      	adds	r0, #36	; 0x24
100067d2:	9901      	ldr	r1, [sp, #4]
100067d4:	f7fe fd98 	bl	10005308 <vTaskPlaceOnEventList>
100067d8:	0020      	movs	r0, r4
100067da:	f7ff fd4a 	bl	10006272 <prvUnlockQueue>
100067de:	f7fe fc23 	bl	10005028 <xTaskResumeAll>
100067e2:	2800      	cmp	r0, #0
100067e4:	d1cc      	bne.n	10006780 <xQueueSemaphoreTake+0x74>
100067e6:	f7ff fc0f 	bl	10006008 <vPortYield>
100067ea:	e7c9      	b.n	10006780 <xQueueSemaphoreTake+0x74>
100067ec:	2000      	movs	r0, #0
100067ee:	e79b      	b.n	10006728 <xQueueSemaphoreTake+0x1c>

100067f0 <xQueuePeek>:
100067f0:	b570      	push	{r4, r5, r6, lr}
100067f2:	b084      	sub	sp, #16
100067f4:	0004      	movs	r4, r0
100067f6:	000d      	movs	r5, r1
100067f8:	9201      	str	r2, [sp, #4]
100067fa:	2600      	movs	r6, #0
100067fc:	e037      	b.n	1000686e <xQueuePeek+0x7e>
100067fe:	68e6      	ldr	r6, [r4, #12]
10006800:	0029      	movs	r1, r5
10006802:	0020      	movs	r0, r4
10006804:	f7ff fd23 	bl	1000624e <prvCopyDataFromQueue>
10006808:	60e6      	str	r6, [r4, #12]
1000680a:	6a63      	ldr	r3, [r4, #36]	; 0x24
1000680c:	2b00      	cmp	r3, #0
1000680e:	d104      	bne.n	1000681a <xQueuePeek+0x2a>
10006810:	f7ff fc12 	bl	10006038 <vPortExitCritical>
10006814:	2001      	movs	r0, #1
10006816:	b004      	add	sp, #16
10006818:	bd70      	pop	{r4, r5, r6, pc}
1000681a:	0020      	movs	r0, r4
1000681c:	3024      	adds	r0, #36	; 0x24
1000681e:	f7fe fdc1 	bl	100053a4 <xTaskRemoveFromEventList>
10006822:	2800      	cmp	r0, #0
10006824:	d0f4      	beq.n	10006810 <xQueuePeek+0x20>
10006826:	f7ff fbef 	bl	10006008 <vPortYield>
1000682a:	e7f1      	b.n	10006810 <xQueuePeek+0x20>
1000682c:	f7ff fc04 	bl	10006038 <vPortExitCritical>
10006830:	2000      	movs	r0, #0
10006832:	e7f0      	b.n	10006816 <xQueuePeek+0x26>
10006834:	a802      	add	r0, sp, #8
10006836:	f7fe fe85 	bl	10005544 <vTaskInternalSetTimeOutState>
1000683a:	3601      	adds	r6, #1
1000683c:	e021      	b.n	10006882 <xQueuePeek+0x92>
1000683e:	2344      	movs	r3, #68	; 0x44
10006840:	2200      	movs	r2, #0
10006842:	54e2      	strb	r2, [r4, r3]
10006844:	e028      	b.n	10006898 <xQueuePeek+0xa8>
10006846:	2345      	movs	r3, #69	; 0x45
10006848:	2200      	movs	r2, #0
1000684a:	54e2      	strb	r2, [r4, r3]
1000684c:	e029      	b.n	100068a2 <xQueuePeek+0xb2>
1000684e:	0020      	movs	r0, r4
10006850:	f7ff fd0f 	bl	10006272 <prvUnlockQueue>
10006854:	f7fe fbe8 	bl	10005028 <xTaskResumeAll>
10006858:	e009      	b.n	1000686e <xQueuePeek+0x7e>
1000685a:	0020      	movs	r0, r4
1000685c:	f7ff fd09 	bl	10006272 <prvUnlockQueue>
10006860:	f7fe fbe2 	bl	10005028 <xTaskResumeAll>
10006864:	0020      	movs	r0, r4
10006866:	f7ff fcb4 	bl	100061d2 <prvIsQueueEmpty>
1000686a:	2800      	cmp	r0, #0
1000686c:	d135      	bne.n	100068da <xQueuePeek+0xea>
1000686e:	f7ff fbd7 	bl	10006020 <vPortEnterCritical>
10006872:	6ba3      	ldr	r3, [r4, #56]	; 0x38
10006874:	2b00      	cmp	r3, #0
10006876:	d1c2      	bne.n	100067fe <xQueuePeek+0xe>
10006878:	9b01      	ldr	r3, [sp, #4]
1000687a:	2b00      	cmp	r3, #0
1000687c:	d0d6      	beq.n	1000682c <xQueuePeek+0x3c>
1000687e:	2e00      	cmp	r6, #0
10006880:	d0d8      	beq.n	10006834 <xQueuePeek+0x44>
10006882:	f7ff fbd9 	bl	10006038 <vPortExitCritical>
10006886:	f7fe fb15 	bl	10004eb4 <vTaskSuspendAll>
1000688a:	f7ff fbc9 	bl	10006020 <vPortEnterCritical>
1000688e:	2344      	movs	r3, #68	; 0x44
10006890:	5ce3      	ldrb	r3, [r4, r3]
10006892:	b25b      	sxtb	r3, r3
10006894:	3301      	adds	r3, #1
10006896:	d0d2      	beq.n	1000683e <xQueuePeek+0x4e>
10006898:	2345      	movs	r3, #69	; 0x45
1000689a:	5ce3      	ldrb	r3, [r4, r3]
1000689c:	b25b      	sxtb	r3, r3
1000689e:	3301      	adds	r3, #1
100068a0:	d0d1      	beq.n	10006846 <xQueuePeek+0x56>
100068a2:	f7ff fbc9 	bl	10006038 <vPortExitCritical>
100068a6:	a901      	add	r1, sp, #4
100068a8:	a802      	add	r0, sp, #8
100068aa:	f7fe fe53 	bl	10005554 <xTaskCheckForTimeOut>
100068ae:	2800      	cmp	r0, #0
100068b0:	d1d3      	bne.n	1000685a <xQueuePeek+0x6a>
100068b2:	0020      	movs	r0, r4
100068b4:	f7ff fc8d 	bl	100061d2 <prvIsQueueEmpty>
100068b8:	2800      	cmp	r0, #0
100068ba:	d0c8      	beq.n	1000684e <xQueuePeek+0x5e>
100068bc:	0020      	movs	r0, r4
100068be:	3024      	adds	r0, #36	; 0x24
100068c0:	9901      	ldr	r1, [sp, #4]
100068c2:	f7fe fd21 	bl	10005308 <vTaskPlaceOnEventList>
100068c6:	0020      	movs	r0, r4
100068c8:	f7ff fcd3 	bl	10006272 <prvUnlockQueue>
100068cc:	f7fe fbac 	bl	10005028 <xTaskResumeAll>
100068d0:	2800      	cmp	r0, #0
100068d2:	d1cc      	bne.n	1000686e <xQueuePeek+0x7e>
100068d4:	f7ff fb98 	bl	10006008 <vPortYield>
100068d8:	e7c9      	b.n	1000686e <xQueuePeek+0x7e>
100068da:	2000      	movs	r0, #0
100068dc:	e79b      	b.n	10006816 <xQueuePeek+0x26>

100068de <xQueueReceiveFromISR>:
100068de:	b5f0      	push	{r4, r5, r6, r7, lr}
100068e0:	b083      	sub	sp, #12
100068e2:	0004      	movs	r4, r0
100068e4:	9100      	str	r1, [sp, #0]
100068e6:	9201      	str	r2, [sp, #4]
100068e8:	f7ff fbb0 	bl	1000604c <ulSetInterruptMaskFromISR>
100068ec:	0005      	movs	r5, r0
100068ee:	6ba6      	ldr	r6, [r4, #56]	; 0x38
100068f0:	2e00      	cmp	r6, #0
100068f2:	d106      	bne.n	10006902 <xQueueReceiveFromISR+0x24>
100068f4:	2400      	movs	r4, #0
100068f6:	0028      	movs	r0, r5
100068f8:	f7ff fbac 	bl	10006054 <vClearInterruptMaskFromISR>
100068fc:	0020      	movs	r0, r4
100068fe:	b003      	add	sp, #12
10006900:	bdf0      	pop	{r4, r5, r6, r7, pc}
10006902:	2344      	movs	r3, #68	; 0x44
10006904:	5ce7      	ldrb	r7, [r4, r3]
10006906:	b27f      	sxtb	r7, r7
10006908:	9900      	ldr	r1, [sp, #0]
1000690a:	0020      	movs	r0, r4
1000690c:	f7ff fc9f 	bl	1000624e <prvCopyDataFromQueue>
10006910:	1e73      	subs	r3, r6, #1
10006912:	63a3      	str	r3, [r4, #56]	; 0x38
10006914:	1c7b      	adds	r3, r7, #1
10006916:	d111      	bne.n	1000693c <xQueueReceiveFromISR+0x5e>
10006918:	6923      	ldr	r3, [r4, #16]
1000691a:	2b00      	cmp	r3, #0
1000691c:	d101      	bne.n	10006922 <xQueueReceiveFromISR+0x44>
1000691e:	2401      	movs	r4, #1
10006920:	e7e9      	b.n	100068f6 <xQueueReceiveFromISR+0x18>
10006922:	0020      	movs	r0, r4
10006924:	3010      	adds	r0, #16
10006926:	f7fe fd3d 	bl	100053a4 <xTaskRemoveFromEventList>
1000692a:	2800      	cmp	r0, #0
1000692c:	d010      	beq.n	10006950 <xQueueReceiveFromISR+0x72>
1000692e:	9a01      	ldr	r2, [sp, #4]
10006930:	2a00      	cmp	r2, #0
10006932:	d00f      	beq.n	10006954 <xQueueReceiveFromISR+0x76>
10006934:	2301      	movs	r3, #1
10006936:	6013      	str	r3, [r2, #0]
10006938:	2401      	movs	r4, #1
1000693a:	e7dc      	b.n	100068f6 <xQueueReceiveFromISR+0x18>
1000693c:	f7fe face 	bl	10004edc <uxTaskGetNumberOfTasks>
10006940:	4287      	cmp	r7, r0
10006942:	d209      	bcs.n	10006958 <xQueueReceiveFromISR+0x7a>
10006944:	1c7b      	adds	r3, r7, #1
10006946:	b25b      	sxtb	r3, r3
10006948:	2244      	movs	r2, #68	; 0x44
1000694a:	54a3      	strb	r3, [r4, r2]
1000694c:	2401      	movs	r4, #1
1000694e:	e7d2      	b.n	100068f6 <xQueueReceiveFromISR+0x18>
10006950:	2401      	movs	r4, #1
10006952:	e7d0      	b.n	100068f6 <xQueueReceiveFromISR+0x18>
10006954:	2401      	movs	r4, #1
10006956:	e7ce      	b.n	100068f6 <xQueueReceiveFromISR+0x18>
10006958:	2401      	movs	r4, #1
1000695a:	e7cc      	b.n	100068f6 <xQueueReceiveFromISR+0x18>

1000695c <xQueuePeekFromISR>:
1000695c:	b5f8      	push	{r3, r4, r5, r6, r7, lr}
1000695e:	0004      	movs	r4, r0
10006960:	000e      	movs	r6, r1
10006962:	f7ff fb73 	bl	1000604c <ulSetInterruptMaskFromISR>
10006966:	0005      	movs	r5, r0
10006968:	6ba3      	ldr	r3, [r4, #56]	; 0x38
1000696a:	2b00      	cmp	r3, #0
1000696c:	d105      	bne.n	1000697a <xQueuePeekFromISR+0x1e>
1000696e:	2400      	movs	r4, #0
10006970:	0028      	movs	r0, r5
10006972:	f7ff fb6f 	bl	10006054 <vClearInterruptMaskFromISR>
10006976:	0020      	movs	r0, r4
10006978:	bdf8      	pop	{r3, r4, r5, r6, r7, pc}
1000697a:	68e7      	ldr	r7, [r4, #12]
1000697c:	0031      	movs	r1, r6
1000697e:	0020      	movs	r0, r4
10006980:	f7ff fc65 	bl	1000624e <prvCopyDataFromQueue>
10006984:	60e7      	str	r7, [r4, #12]
10006986:	2401      	movs	r4, #1
10006988:	e7f2      	b.n	10006970 <xQueuePeekFromISR+0x14>

1000698a <uxQueueMessagesWaiting>:
1000698a:	b510      	push	{r4, lr}
1000698c:	0004      	movs	r4, r0
1000698e:	f7ff fb47 	bl	10006020 <vPortEnterCritical>
10006992:	6ba4      	ldr	r4, [r4, #56]	; 0x38
10006994:	f7ff fb50 	bl	10006038 <vPortExitCritical>
10006998:	0020      	movs	r0, r4
1000699a:	bd10      	pop	{r4, pc}

1000699c <uxQueueSpacesAvailable>:
1000699c:	b510      	push	{r4, lr}
1000699e:	0004      	movs	r4, r0
100069a0:	f7ff fb3e 	bl	10006020 <vPortEnterCritical>
100069a4:	6be3      	ldr	r3, [r4, #60]	; 0x3c
100069a6:	6ba4      	ldr	r4, [r4, #56]	; 0x38
100069a8:	1b1c      	subs	r4, r3, r4
100069aa:	f7ff fb45 	bl	10006038 <vPortExitCritical>
100069ae:	0020      	movs	r0, r4
100069b0:	bd10      	pop	{r4, pc}

100069b2 <uxQueueMessagesWaitingFromISR>:
100069b2:	6b80      	ldr	r0, [r0, #56]	; 0x38
100069b4:	4770      	bx	lr

100069b6 <xQueueIsQueueEmptyFromISR>:
100069b6:	6b83      	ldr	r3, [r0, #56]	; 0x38
100069b8:	2b00      	cmp	r3, #0
100069ba:	d101      	bne.n	100069c0 <xQueueIsQueueEmptyFromISR+0xa>
100069bc:	2001      	movs	r0, #1
100069be:	4770      	bx	lr
100069c0:	2000      	movs	r0, #0
100069c2:	e7fc      	b.n	100069be <xQueueIsQueueEmptyFromISR+0x8>

100069c4 <xQueueIsQueueFullFromISR>:
100069c4:	6b82      	ldr	r2, [r0, #56]	; 0x38
100069c6:	6bc3      	ldr	r3, [r0, #60]	; 0x3c
100069c8:	429a      	cmp	r2, r3
100069ca:	d001      	beq.n	100069d0 <xQueueIsQueueFullFromISR+0xc>
100069cc:	2000      	movs	r0, #0
100069ce:	4770      	bx	lr
100069d0:	2001      	movs	r0, #1
100069d2:	e7fc      	b.n	100069ce <xQueueIsQueueFullFromISR+0xa>

100069d4 <vQueueAddToRegistry>:
100069d4:	b530      	push	{r4, r5, lr}
100069d6:	2900      	cmp	r1, #0
100069d8:	d008      	beq.n	100069ec <vQueueAddToRegistry+0x18>
100069da:	2500      	movs	r5, #0
100069dc:	2300      	movs	r3, #0
100069de:	e007      	b.n	100069f0 <vQueueAddToRegistry+0x1c>
100069e0:	4d0c      	ldr	r5, [pc, #48]	; (10006a14 <vQueueAddToRegistry+0x40>)
100069e2:	192d      	adds	r5, r5, r4
100069e4:	2d00      	cmp	r5, #0
100069e6:	d001      	beq.n	100069ec <vQueueAddToRegistry+0x18>
100069e8:	6029      	str	r1, [r5, #0]
100069ea:	6068      	str	r0, [r5, #4]
100069ec:	bd30      	pop	{r4, r5, pc}
100069ee:	3301      	adds	r3, #1
100069f0:	2b09      	cmp	r3, #9
100069f2:	d8f7      	bhi.n	100069e4 <vQueueAddToRegistry+0x10>
100069f4:	00dc      	lsls	r4, r3, #3
100069f6:	4a07      	ldr	r2, [pc, #28]	; (10006a14 <vQueueAddToRegistry+0x40>)
100069f8:	1912      	adds	r2, r2, r4
100069fa:	6852      	ldr	r2, [r2, #4]
100069fc:	4282      	cmp	r2, r0
100069fe:	d0ef      	beq.n	100069e0 <vQueueAddToRegistry+0xc>
10006a00:	2d00      	cmp	r5, #0
10006a02:	d1f4      	bne.n	100069ee <vQueueAddToRegistry+0x1a>
10006a04:	00da      	lsls	r2, r3, #3
10006a06:	4c03      	ldr	r4, [pc, #12]	; (10006a14 <vQueueAddToRegistry+0x40>)
10006a08:	5912      	ldr	r2, [r2, r4]
10006a0a:	2a00      	cmp	r2, #0
10006a0c:	d1ef      	bne.n	100069ee <vQueueAddToRegistry+0x1a>
10006a0e:	00da      	lsls	r2, r3, #3
10006a10:	18a5      	adds	r5, r4, r2
10006a12:	e7ec      	b.n	100069ee <vQueueAddToRegistry+0x1a>
10006a14:	20000dac 	.word	0x20000dac

10006a18 <pcQueueGetName>:
10006a18:	2300      	movs	r3, #0
10006a1a:	2b09      	cmp	r3, #9
10006a1c:	d80a      	bhi.n	10006a34 <pcQueueGetName+0x1c>
10006a1e:	00d9      	lsls	r1, r3, #3
10006a20:	4a05      	ldr	r2, [pc, #20]	; (10006a38 <pcQueueGetName+0x20>)
10006a22:	1852      	adds	r2, r2, r1
10006a24:	6852      	ldr	r2, [r2, #4]
10006a26:	4282      	cmp	r2, r0
10006a28:	d001      	beq.n	10006a2e <pcQueueGetName+0x16>
10006a2a:	3301      	adds	r3, #1
10006a2c:	e7f5      	b.n	10006a1a <pcQueueGetName+0x2>
10006a2e:	4a02      	ldr	r2, [pc, #8]	; (10006a38 <pcQueueGetName+0x20>)
10006a30:	5888      	ldr	r0, [r1, r2]
10006a32:	e000      	b.n	10006a36 <pcQueueGetName+0x1e>
10006a34:	2000      	movs	r0, #0
10006a36:	4770      	bx	lr
10006a38:	20000dac 	.word	0x20000dac

10006a3c <vQueueUnregisterQueue>:
10006a3c:	2300      	movs	r3, #0
10006a3e:	2b09      	cmp	r3, #9
10006a40:	d80d      	bhi.n	10006a5e <vQueueUnregisterQueue+0x22>
10006a42:	00d9      	lsls	r1, r3, #3
10006a44:	4a06      	ldr	r2, [pc, #24]	; (10006a60 <vQueueUnregisterQueue+0x24>)
10006a46:	1852      	adds	r2, r2, r1
10006a48:	6852      	ldr	r2, [r2, #4]
10006a4a:	4282      	cmp	r2, r0
10006a4c:	d001      	beq.n	10006a52 <vQueueUnregisterQueue+0x16>
10006a4e:	3301      	adds	r3, #1
10006a50:	e7f5      	b.n	10006a3e <vQueueUnregisterQueue+0x2>
10006a52:	4a03      	ldr	r2, [pc, #12]	; (10006a60 <vQueueUnregisterQueue+0x24>)
10006a54:	000b      	movs	r3, r1
10006a56:	2100      	movs	r1, #0
10006a58:	5099      	str	r1, [r3, r2]
10006a5a:	18d3      	adds	r3, r2, r3
10006a5c:	6059      	str	r1, [r3, #4]
10006a5e:	4770      	bx	lr
10006a60:	20000dac 	.word	0x20000dac

10006a64 <vQueueDelete>:
10006a64:	b510      	push	{r4, lr}
10006a66:	0004      	movs	r4, r0
10006a68:	f7ff ffe8 	bl	10006a3c <vQueueUnregisterQueue>
10006a6c:	0020      	movs	r0, r4
10006a6e:	f7ff fa89 	bl	10005f84 <vPortFree>
10006a72:	bd10      	pop	{r4, pc}

10006a74 <vQueueWaitForMessageRestricted>:
10006a74:	b570      	push	{r4, r5, r6, lr}
10006a76:	0004      	movs	r4, r0
10006a78:	000d      	movs	r5, r1
10006a7a:	0016      	movs	r6, r2
10006a7c:	f7ff fad0 	bl	10006020 <vPortEnterCritical>
10006a80:	2344      	movs	r3, #68	; 0x44
10006a82:	5ce3      	ldrb	r3, [r4, r3]
10006a84:	b25b      	sxtb	r3, r3
10006a86:	3301      	adds	r3, #1
10006a88:	d00d      	beq.n	10006aa6 <vQueueWaitForMessageRestricted+0x32>
10006a8a:	2345      	movs	r3, #69	; 0x45
10006a8c:	5ce3      	ldrb	r3, [r4, r3]
10006a8e:	b25b      	sxtb	r3, r3
10006a90:	3301      	adds	r3, #1
10006a92:	d00c      	beq.n	10006aae <vQueueWaitForMessageRestricted+0x3a>
10006a94:	f7ff fad0 	bl	10006038 <vPortExitCritical>
10006a98:	6ba3      	ldr	r3, [r4, #56]	; 0x38
10006a9a:	2b00      	cmp	r3, #0
10006a9c:	d00b      	beq.n	10006ab6 <vQueueWaitForMessageRestricted+0x42>
10006a9e:	0020      	movs	r0, r4
10006aa0:	f7ff fbe7 	bl	10006272 <prvUnlockQueue>
10006aa4:	bd70      	pop	{r4, r5, r6, pc}
10006aa6:	2344      	movs	r3, #68	; 0x44
10006aa8:	2200      	movs	r2, #0
10006aaa:	54e2      	strb	r2, [r4, r3]
10006aac:	e7ed      	b.n	10006a8a <vQueueWaitForMessageRestricted+0x16>
10006aae:	2345      	movs	r3, #69	; 0x45
10006ab0:	2200      	movs	r2, #0
10006ab2:	54e2      	strb	r2, [r4, r3]
10006ab4:	e7ee      	b.n	10006a94 <vQueueWaitForMessageRestricted+0x20>
10006ab6:	0020      	movs	r0, r4
10006ab8:	3024      	adds	r0, #36	; 0x24
10006aba:	0032      	movs	r2, r6
10006abc:	0029      	movs	r1, r5
10006abe:	f7fe fc51 	bl	10005364 <vTaskPlaceOnEventListRestricted>
10006ac2:	e7ec      	b.n	10006a9e <vQueueWaitForMessageRestricted+0x2a>

10006ac4 <malloc>:
10006ac4:	b510      	push	{r4, lr}
10006ac6:	4b03      	ldr	r3, [pc, #12]	; (10006ad4 <malloc+0x10>)
10006ac8:	0001      	movs	r1, r0
10006aca:	6818      	ldr	r0, [r3, #0]
10006acc:	f000 f80e 	bl	10006aec <_malloc_r>
10006ad0:	bd10      	pop	{r4, pc}
10006ad2:	46c0      	nop			; (mov r8, r8)
10006ad4:	200002f0 	.word	0x200002f0

10006ad8 <free>:
10006ad8:	b510      	push	{r4, lr}
10006ada:	4b03      	ldr	r3, [pc, #12]	; (10006ae8 <free+0x10>)
10006adc:	0001      	movs	r1, r0
10006ade:	6818      	ldr	r0, [r3, #0]
10006ae0:	f000 fb64 	bl	100071ac <_free_r>
10006ae4:	bd10      	pop	{r4, pc}
10006ae6:	46c0      	nop			; (mov r8, r8)
10006ae8:	200002f0 	.word	0x200002f0

10006aec <_malloc_r>:
10006aec:	b5f0      	push	{r4, r5, r6, r7, lr}
10006aee:	464e      	mov	r6, r9
10006af0:	4645      	mov	r5, r8
10006af2:	46de      	mov	lr, fp
10006af4:	4657      	mov	r7, sl
10006af6:	b5e0      	push	{r5, r6, r7, lr}
10006af8:	000d      	movs	r5, r1
10006afa:	350b      	adds	r5, #11
10006afc:	0006      	movs	r6, r0
10006afe:	b083      	sub	sp, #12
10006b00:	2d16      	cmp	r5, #22
10006b02:	d822      	bhi.n	10006b4a <_malloc_r+0x5e>
10006b04:	2910      	cmp	r1, #16
10006b06:	d900      	bls.n	10006b0a <_malloc_r+0x1e>
10006b08:	e0b2      	b.n	10006c70 <_malloc_r+0x184>
10006b0a:	f000 fab1 	bl	10007070 <__malloc_lock>
10006b0e:	2510      	movs	r5, #16
10006b10:	2318      	movs	r3, #24
10006b12:	2002      	movs	r0, #2
10006b14:	4fcc      	ldr	r7, [pc, #816]	; (10006e48 <_malloc_r+0x35c>)
10006b16:	18fb      	adds	r3, r7, r3
10006b18:	001a      	movs	r2, r3
10006b1a:	685c      	ldr	r4, [r3, #4]
10006b1c:	3a08      	subs	r2, #8
10006b1e:	4294      	cmp	r4, r2
10006b20:	d100      	bne.n	10006b24 <_malloc_r+0x38>
10006b22:	e0b5      	b.n	10006c90 <_malloc_r+0x1a4>
10006b24:	2303      	movs	r3, #3
10006b26:	6862      	ldr	r2, [r4, #4]
10006b28:	439a      	bics	r2, r3
10006b2a:	0013      	movs	r3, r2
10006b2c:	68e2      	ldr	r2, [r4, #12]
10006b2e:	68a1      	ldr	r1, [r4, #8]
10006b30:	60ca      	str	r2, [r1, #12]
10006b32:	6091      	str	r1, [r2, #8]
10006b34:	2201      	movs	r2, #1
10006b36:	18e3      	adds	r3, r4, r3
10006b38:	6859      	ldr	r1, [r3, #4]
10006b3a:	0030      	movs	r0, r6
10006b3c:	430a      	orrs	r2, r1
10006b3e:	605a      	str	r2, [r3, #4]
10006b40:	f000 fa9e 	bl	10007080 <__malloc_unlock>
10006b44:	0020      	movs	r0, r4
10006b46:	3008      	adds	r0, #8
10006b48:	e095      	b.n	10006c76 <_malloc_r+0x18a>
10006b4a:	2307      	movs	r3, #7
10006b4c:	439d      	bics	r5, r3
10006b4e:	d500      	bpl.n	10006b52 <_malloc_r+0x66>
10006b50:	e08e      	b.n	10006c70 <_malloc_r+0x184>
10006b52:	42a9      	cmp	r1, r5
10006b54:	d900      	bls.n	10006b58 <_malloc_r+0x6c>
10006b56:	e08b      	b.n	10006c70 <_malloc_r+0x184>
10006b58:	f000 fa8a 	bl	10007070 <__malloc_lock>
10006b5c:	23fc      	movs	r3, #252	; 0xfc
10006b5e:	005b      	lsls	r3, r3, #1
10006b60:	429d      	cmp	r5, r3
10006b62:	d200      	bcs.n	10006b66 <_malloc_r+0x7a>
10006b64:	e1a7      	b.n	10006eb6 <_malloc_r+0x3ca>
10006b66:	0a68      	lsrs	r0, r5, #9
10006b68:	d100      	bne.n	10006b6c <_malloc_r+0x80>
10006b6a:	e08b      	b.n	10006c84 <_malloc_r+0x198>
10006b6c:	2804      	cmp	r0, #4
10006b6e:	d900      	bls.n	10006b72 <_malloc_r+0x86>
10006b70:	e17a      	b.n	10006e68 <_malloc_r+0x37c>
10006b72:	2338      	movs	r3, #56	; 0x38
10006b74:	4698      	mov	r8, r3
10006b76:	09a8      	lsrs	r0, r5, #6
10006b78:	4480      	add	r8, r0
10006b7a:	3039      	adds	r0, #57	; 0x39
10006b7c:	00c1      	lsls	r1, r0, #3
10006b7e:	4fb2      	ldr	r7, [pc, #712]	; (10006e48 <_malloc_r+0x35c>)
10006b80:	1879      	adds	r1, r7, r1
10006b82:	684c      	ldr	r4, [r1, #4]
10006b84:	3908      	subs	r1, #8
10006b86:	42a1      	cmp	r1, r4
10006b88:	d00e      	beq.n	10006ba8 <_malloc_r+0xbc>
10006b8a:	2303      	movs	r3, #3
10006b8c:	469c      	mov	ip, r3
10006b8e:	e004      	b.n	10006b9a <_malloc_r+0xae>
10006b90:	2a00      	cmp	r2, #0
10006b92:	dacb      	bge.n	10006b2c <_malloc_r+0x40>
10006b94:	68e4      	ldr	r4, [r4, #12]
10006b96:	42a1      	cmp	r1, r4
10006b98:	d006      	beq.n	10006ba8 <_malloc_r+0xbc>
10006b9a:	4662      	mov	r2, ip
10006b9c:	6863      	ldr	r3, [r4, #4]
10006b9e:	4393      	bics	r3, r2
10006ba0:	1b5a      	subs	r2, r3, r5
10006ba2:	2a0f      	cmp	r2, #15
10006ba4:	ddf4      	ble.n	10006b90 <_malloc_r+0xa4>
10006ba6:	4640      	mov	r0, r8
10006ba8:	003a      	movs	r2, r7
10006baa:	693c      	ldr	r4, [r7, #16]
10006bac:	3208      	adds	r2, #8
10006bae:	4294      	cmp	r4, r2
10006bb0:	d100      	bne.n	10006bb4 <_malloc_r+0xc8>
10006bb2:	e078      	b.n	10006ca6 <_malloc_r+0x1ba>
10006bb4:	2303      	movs	r3, #3
10006bb6:	6861      	ldr	r1, [r4, #4]
10006bb8:	4399      	bics	r1, r3
10006bba:	4689      	mov	r9, r1
10006bbc:	000b      	movs	r3, r1
10006bbe:	1b49      	subs	r1, r1, r5
10006bc0:	290f      	cmp	r1, #15
10006bc2:	dd00      	ble.n	10006bc6 <_malloc_r+0xda>
10006bc4:	e17b      	b.n	10006ebe <_malloc_r+0x3d2>
10006bc6:	617a      	str	r2, [r7, #20]
10006bc8:	613a      	str	r2, [r7, #16]
10006bca:	2900      	cmp	r1, #0
10006bcc:	dab2      	bge.n	10006b34 <_malloc_r+0x48>
10006bce:	2280      	movs	r2, #128	; 0x80
10006bd0:	0092      	lsls	r2, r2, #2
10006bd2:	4591      	cmp	r9, r2
10006bd4:	d300      	bcc.n	10006bd8 <_malloc_r+0xec>
10006bd6:	e10f      	b.n	10006df8 <_malloc_r+0x30c>
10006bd8:	0959      	lsrs	r1, r3, #5
10006bda:	08da      	lsrs	r2, r3, #3
10006bdc:	2301      	movs	r3, #1
10006bde:	408b      	lsls	r3, r1
10006be0:	00d2      	lsls	r2, r2, #3
10006be2:	6879      	ldr	r1, [r7, #4]
10006be4:	19d2      	adds	r2, r2, r7
10006be6:	430b      	orrs	r3, r1
10006be8:	6891      	ldr	r1, [r2, #8]
10006bea:	607b      	str	r3, [r7, #4]
10006bec:	60e2      	str	r2, [r4, #12]
10006bee:	60a1      	str	r1, [r4, #8]
10006bf0:	6094      	str	r4, [r2, #8]
10006bf2:	60cc      	str	r4, [r1, #12]
10006bf4:	2101      	movs	r1, #1
10006bf6:	1082      	asrs	r2, r0, #2
10006bf8:	4091      	lsls	r1, r2
10006bfa:	4299      	cmp	r1, r3
10006bfc:	d859      	bhi.n	10006cb2 <_malloc_r+0x1c6>
10006bfe:	420b      	tst	r3, r1
10006c00:	d105      	bne.n	10006c0e <_malloc_r+0x122>
10006c02:	2203      	movs	r2, #3
10006c04:	4390      	bics	r0, r2
10006c06:	0049      	lsls	r1, r1, #1
10006c08:	3004      	adds	r0, #4
10006c0a:	420b      	tst	r3, r1
10006c0c:	d0fb      	beq.n	10006c06 <_malloc_r+0x11a>
10006c0e:	2303      	movs	r3, #3
10006c10:	4698      	mov	r8, r3
10006c12:	00c3      	lsls	r3, r0, #3
10006c14:	4699      	mov	r9, r3
10006c16:	44b9      	add	r9, r7
10006c18:	46cc      	mov	ip, r9
10006c1a:	4682      	mov	sl, r0
10006c1c:	4663      	mov	r3, ip
10006c1e:	68dc      	ldr	r4, [r3, #12]
10006c20:	45a4      	cmp	ip, r4
10006c22:	d107      	bne.n	10006c34 <_malloc_r+0x148>
10006c24:	e12c      	b.n	10006e80 <_malloc_r+0x394>
10006c26:	2a00      	cmp	r2, #0
10006c28:	db00      	blt.n	10006c2c <_malloc_r+0x140>
10006c2a:	e135      	b.n	10006e98 <_malloc_r+0x3ac>
10006c2c:	68e4      	ldr	r4, [r4, #12]
10006c2e:	45a4      	cmp	ip, r4
10006c30:	d100      	bne.n	10006c34 <_malloc_r+0x148>
10006c32:	e125      	b.n	10006e80 <_malloc_r+0x394>
10006c34:	4642      	mov	r2, r8
10006c36:	6863      	ldr	r3, [r4, #4]
10006c38:	4393      	bics	r3, r2
10006c3a:	1b5a      	subs	r2, r3, r5
10006c3c:	2a0f      	cmp	r2, #15
10006c3e:	ddf2      	ble.n	10006c26 <_malloc_r+0x13a>
10006c40:	2001      	movs	r0, #1
10006c42:	4680      	mov	r8, r0
10006c44:	1961      	adds	r1, r4, r5
10006c46:	4305      	orrs	r5, r0
10006c48:	6065      	str	r5, [r4, #4]
10006c4a:	68a0      	ldr	r0, [r4, #8]
10006c4c:	68e5      	ldr	r5, [r4, #12]
10006c4e:	3708      	adds	r7, #8
10006c50:	60c5      	str	r5, [r0, #12]
10006c52:	60a8      	str	r0, [r5, #8]
10006c54:	4640      	mov	r0, r8
10006c56:	4310      	orrs	r0, r2
10006c58:	60f9      	str	r1, [r7, #12]
10006c5a:	60b9      	str	r1, [r7, #8]
10006c5c:	6048      	str	r0, [r1, #4]
10006c5e:	60cf      	str	r7, [r1, #12]
10006c60:	0030      	movs	r0, r6
10006c62:	608f      	str	r7, [r1, #8]
10006c64:	50e2      	str	r2, [r4, r3]
10006c66:	f000 fa0b 	bl	10007080 <__malloc_unlock>
10006c6a:	0020      	movs	r0, r4
10006c6c:	3008      	adds	r0, #8
10006c6e:	e002      	b.n	10006c76 <_malloc_r+0x18a>
10006c70:	230c      	movs	r3, #12
10006c72:	2000      	movs	r0, #0
10006c74:	6033      	str	r3, [r6, #0]
10006c76:	b003      	add	sp, #12
10006c78:	bcf0      	pop	{r4, r5, r6, r7}
10006c7a:	46bb      	mov	fp, r7
10006c7c:	46b2      	mov	sl, r6
10006c7e:	46a9      	mov	r9, r5
10006c80:	46a0      	mov	r8, r4
10006c82:	bdf0      	pop	{r4, r5, r6, r7, pc}
10006c84:	2180      	movs	r1, #128	; 0x80
10006c86:	233f      	movs	r3, #63	; 0x3f
10006c88:	2040      	movs	r0, #64	; 0x40
10006c8a:	4698      	mov	r8, r3
10006c8c:	0089      	lsls	r1, r1, #2
10006c8e:	e776      	b.n	10006b7e <_malloc_r+0x92>
10006c90:	68dc      	ldr	r4, [r3, #12]
10006c92:	3002      	adds	r0, #2
10006c94:	42a3      	cmp	r3, r4
10006c96:	d000      	beq.n	10006c9a <_malloc_r+0x1ae>
10006c98:	e744      	b.n	10006b24 <_malloc_r+0x38>
10006c9a:	003a      	movs	r2, r7
10006c9c:	693c      	ldr	r4, [r7, #16]
10006c9e:	3208      	adds	r2, #8
10006ca0:	4294      	cmp	r4, r2
10006ca2:	d000      	beq.n	10006ca6 <_malloc_r+0x1ba>
10006ca4:	e786      	b.n	10006bb4 <_malloc_r+0xc8>
10006ca6:	2101      	movs	r1, #1
10006ca8:	687b      	ldr	r3, [r7, #4]
10006caa:	1082      	asrs	r2, r0, #2
10006cac:	4091      	lsls	r1, r2
10006cae:	4299      	cmp	r1, r3
10006cb0:	d9a5      	bls.n	10006bfe <_malloc_r+0x112>
10006cb2:	2303      	movs	r3, #3
10006cb4:	68bc      	ldr	r4, [r7, #8]
10006cb6:	6862      	ldr	r2, [r4, #4]
10006cb8:	439a      	bics	r2, r3
10006cba:	4691      	mov	r9, r2
10006cbc:	4295      	cmp	r5, r2
10006cbe:	d803      	bhi.n	10006cc8 <_malloc_r+0x1dc>
10006cc0:	1b53      	subs	r3, r2, r5
10006cc2:	2b0f      	cmp	r3, #15
10006cc4:	dd00      	ble.n	10006cc8 <_malloc_r+0x1dc>
10006cc6:	e089      	b.n	10006ddc <_malloc_r+0x2f0>
10006cc8:	0023      	movs	r3, r4
10006cca:	444b      	add	r3, r9
10006ccc:	4a5f      	ldr	r2, [pc, #380]	; (10006e4c <_malloc_r+0x360>)
10006cce:	9301      	str	r3, [sp, #4]
10006cd0:	4b5f      	ldr	r3, [pc, #380]	; (10006e50 <_malloc_r+0x364>)
10006cd2:	4693      	mov	fp, r2
10006cd4:	681b      	ldr	r3, [r3, #0]
10006cd6:	6812      	ldr	r2, [r2, #0]
10006cd8:	18eb      	adds	r3, r5, r3
10006cda:	3201      	adds	r2, #1
10006cdc:	d100      	bne.n	10006ce0 <_malloc_r+0x1f4>
10006cde:	e13d      	b.n	10006f5c <_malloc_r+0x470>
10006ce0:	4a5c      	ldr	r2, [pc, #368]	; (10006e54 <_malloc_r+0x368>)
10006ce2:	4694      	mov	ip, r2
10006ce4:	4463      	add	r3, ip
10006ce6:	0b1b      	lsrs	r3, r3, #12
10006ce8:	031b      	lsls	r3, r3, #12
10006cea:	9300      	str	r3, [sp, #0]
10006cec:	0030      	movs	r0, r6
10006cee:	9900      	ldr	r1, [sp, #0]
10006cf0:	f000 f9ce 	bl	10007090 <_sbrk_r>
10006cf4:	0003      	movs	r3, r0
10006cf6:	4680      	mov	r8, r0
10006cf8:	3301      	adds	r3, #1
10006cfa:	d100      	bne.n	10006cfe <_malloc_r+0x212>
10006cfc:	e0fa      	b.n	10006ef4 <_malloc_r+0x408>
10006cfe:	9b01      	ldr	r3, [sp, #4]
10006d00:	4283      	cmp	r3, r0
10006d02:	d900      	bls.n	10006d06 <_malloc_r+0x21a>
10006d04:	e0f4      	b.n	10006ef0 <_malloc_r+0x404>
10006d06:	4b54      	ldr	r3, [pc, #336]	; (10006e58 <_malloc_r+0x36c>)
10006d08:	9800      	ldr	r0, [sp, #0]
10006d0a:	001a      	movs	r2, r3
10006d0c:	469a      	mov	sl, r3
10006d0e:	6812      	ldr	r2, [r2, #0]
10006d10:	0003      	movs	r3, r0
10006d12:	4694      	mov	ip, r2
10006d14:	4651      	mov	r1, sl
10006d16:	4463      	add	r3, ip
10006d18:	600b      	str	r3, [r1, #0]
10006d1a:	9901      	ldr	r1, [sp, #4]
10006d1c:	001a      	movs	r2, r3
10006d1e:	4541      	cmp	r1, r8
10006d20:	d100      	bne.n	10006d24 <_malloc_r+0x238>
10006d22:	e151      	b.n	10006fc8 <_malloc_r+0x4dc>
10006d24:	465b      	mov	r3, fp
10006d26:	681b      	ldr	r3, [r3, #0]
10006d28:	3301      	adds	r3, #1
10006d2a:	d100      	bne.n	10006d2e <_malloc_r+0x242>
10006d2c:	e156      	b.n	10006fdc <_malloc_r+0x4f0>
10006d2e:	4643      	mov	r3, r8
10006d30:	9901      	ldr	r1, [sp, #4]
10006d32:	1a5b      	subs	r3, r3, r1
10006d34:	189a      	adds	r2, r3, r2
10006d36:	4653      	mov	r3, sl
10006d38:	601a      	str	r2, [r3, #0]
10006d3a:	2307      	movs	r3, #7
10006d3c:	4642      	mov	r2, r8
10006d3e:	4641      	mov	r1, r8
10006d40:	401a      	ands	r2, r3
10006d42:	9201      	str	r2, [sp, #4]
10006d44:	4219      	tst	r1, r3
10006d46:	d100      	bne.n	10006d4a <_malloc_r+0x25e>
10006d48:	e112      	b.n	10006f70 <_malloc_r+0x484>
10006d4a:	2308      	movs	r3, #8
10006d4c:	4698      	mov	r8, r3
10006d4e:	1a88      	subs	r0, r1, r2
10006d50:	4b42      	ldr	r3, [pc, #264]	; (10006e5c <_malloc_r+0x370>)
10006d52:	9900      	ldr	r1, [sp, #0]
10006d54:	4480      	add	r8, r0
10006d56:	4441      	add	r1, r8
10006d58:	1a9b      	subs	r3, r3, r2
10006d5a:	1a5b      	subs	r3, r3, r1
10006d5c:	051b      	lsls	r3, r3, #20
10006d5e:	0d1b      	lsrs	r3, r3, #20
10006d60:	9100      	str	r1, [sp, #0]
10006d62:	0030      	movs	r0, r6
10006d64:	0019      	movs	r1, r3
10006d66:	469b      	mov	fp, r3
10006d68:	f000 f992 	bl	10007090 <_sbrk_r>
10006d6c:	1c43      	adds	r3, r0, #1
10006d6e:	d100      	bne.n	10006d72 <_malloc_r+0x286>
10006d70:	e150      	b.n	10007014 <_malloc_r+0x528>
10006d72:	4643      	mov	r3, r8
10006d74:	1ac0      	subs	r0, r0, r3
10006d76:	0003      	movs	r3, r0
10006d78:	445b      	add	r3, fp
10006d7a:	9300      	str	r3, [sp, #0]
10006d7c:	4653      	mov	r3, sl
10006d7e:	4652      	mov	r2, sl
10006d80:	681b      	ldr	r3, [r3, #0]
10006d82:	2101      	movs	r1, #1
10006d84:	445b      	add	r3, fp
10006d86:	6013      	str	r3, [r2, #0]
10006d88:	4642      	mov	r2, r8
10006d8a:	4640      	mov	r0, r8
10006d8c:	60ba      	str	r2, [r7, #8]
10006d8e:	9a00      	ldr	r2, [sp, #0]
10006d90:	430a      	orrs	r2, r1
10006d92:	6042      	str	r2, [r0, #4]
10006d94:	42bc      	cmp	r4, r7
10006d96:	d100      	bne.n	10006d9a <_malloc_r+0x2ae>
10006d98:	e124      	b.n	10006fe4 <_malloc_r+0x4f8>
10006d9a:	464a      	mov	r2, r9
10006d9c:	2a0f      	cmp	r2, #15
10006d9e:	d800      	bhi.n	10006da2 <_malloc_r+0x2b6>
10006da0:	e122      	b.n	10006fe8 <_malloc_r+0x4fc>
10006da2:	2007      	movs	r0, #7
10006da4:	3a0c      	subs	r2, #12
10006da6:	4382      	bics	r2, r0
10006da8:	6860      	ldr	r0, [r4, #4]
10006daa:	4001      	ands	r1, r0
10006dac:	2005      	movs	r0, #5
10006dae:	4311      	orrs	r1, r2
10006db0:	6061      	str	r1, [r4, #4]
10006db2:	18a1      	adds	r1, r4, r2
10006db4:	6048      	str	r0, [r1, #4]
10006db6:	6088      	str	r0, [r1, #8]
10006db8:	2a0f      	cmp	r2, #15
10006dba:	d900      	bls.n	10006dbe <_malloc_r+0x2d2>
10006dbc:	e135      	b.n	1000702a <_malloc_r+0x53e>
10006dbe:	4642      	mov	r2, r8
10006dc0:	4644      	mov	r4, r8
10006dc2:	6852      	ldr	r2, [r2, #4]
10006dc4:	4926      	ldr	r1, [pc, #152]	; (10006e60 <_malloc_r+0x374>)
10006dc6:	6808      	ldr	r0, [r1, #0]
10006dc8:	4298      	cmp	r0, r3
10006dca:	d200      	bcs.n	10006dce <_malloc_r+0x2e2>
10006dcc:	600b      	str	r3, [r1, #0]
10006dce:	4925      	ldr	r1, [pc, #148]	; (10006e64 <_malloc_r+0x378>)
10006dd0:	6808      	ldr	r0, [r1, #0]
10006dd2:	4298      	cmp	r0, r3
10006dd4:	d300      	bcc.n	10006dd8 <_malloc_r+0x2ec>
10006dd6:	e08f      	b.n	10006ef8 <_malloc_r+0x40c>
10006dd8:	600b      	str	r3, [r1, #0]
10006dda:	e08d      	b.n	10006ef8 <_malloc_r+0x40c>
10006ddc:	2201      	movs	r2, #1
10006dde:	0029      	movs	r1, r5
10006de0:	4313      	orrs	r3, r2
10006de2:	4311      	orrs	r1, r2
10006de4:	1965      	adds	r5, r4, r5
10006de6:	6061      	str	r1, [r4, #4]
10006de8:	0030      	movs	r0, r6
10006dea:	60bd      	str	r5, [r7, #8]
10006dec:	606b      	str	r3, [r5, #4]
10006dee:	f000 f947 	bl	10007080 <__malloc_unlock>
10006df2:	0020      	movs	r0, r4
10006df4:	3008      	adds	r0, #8
10006df6:	e73e      	b.n	10006c76 <_malloc_r+0x18a>
10006df8:	0a5a      	lsrs	r2, r3, #9
10006dfa:	2a04      	cmp	r2, #4
10006dfc:	d972      	bls.n	10006ee4 <_malloc_r+0x3f8>
10006dfe:	2a14      	cmp	r2, #20
10006e00:	d900      	bls.n	10006e04 <_malloc_r+0x318>
10006e02:	e0c5      	b.n	10006f90 <_malloc_r+0x4a4>
10006e04:	0011      	movs	r1, r2
10006e06:	325c      	adds	r2, #92	; 0x5c
10006e08:	315b      	adds	r1, #91	; 0x5b
10006e0a:	00d2      	lsls	r2, r2, #3
10006e0c:	2308      	movs	r3, #8
10006e0e:	425b      	negs	r3, r3
10006e10:	469c      	mov	ip, r3
10006e12:	18ba      	adds	r2, r7, r2
10006e14:	4494      	add	ip, r2
10006e16:	4663      	mov	r3, ip
10006e18:	689a      	ldr	r2, [r3, #8]
10006e1a:	2303      	movs	r3, #3
10006e1c:	4698      	mov	r8, r3
10006e1e:	4594      	cmp	ip, r2
10006e20:	d100      	bne.n	10006e24 <_malloc_r+0x338>
10006e22:	e09e      	b.n	10006f62 <_malloc_r+0x476>
10006e24:	4643      	mov	r3, r8
10006e26:	6851      	ldr	r1, [r2, #4]
10006e28:	4399      	bics	r1, r3
10006e2a:	4549      	cmp	r1, r9
10006e2c:	d902      	bls.n	10006e34 <_malloc_r+0x348>
10006e2e:	6892      	ldr	r2, [r2, #8]
10006e30:	4594      	cmp	ip, r2
10006e32:	d1f7      	bne.n	10006e24 <_malloc_r+0x338>
10006e34:	68d3      	ldr	r3, [r2, #12]
10006e36:	469c      	mov	ip, r3
10006e38:	687b      	ldr	r3, [r7, #4]
10006e3a:	4661      	mov	r1, ip
10006e3c:	60a2      	str	r2, [r4, #8]
10006e3e:	60e1      	str	r1, [r4, #12]
10006e40:	608c      	str	r4, [r1, #8]
10006e42:	60d4      	str	r4, [r2, #12]
10006e44:	e6d6      	b.n	10006bf4 <_malloc_r+0x108>
10006e46:	46c0      	nop			; (mov r8, r8)
10006e48:	20000720 	.word	0x20000720
10006e4c:	20000b28 	.word	0x20000b28
10006e50:	20000e30 	.word	0x20000e30
10006e54:	0000100f 	.word	0x0000100f
10006e58:	20000e00 	.word	0x20000e00
10006e5c:	00001008 	.word	0x00001008
10006e60:	20000e28 	.word	0x20000e28
10006e64:	20000e2c 	.word	0x20000e2c
10006e68:	2814      	cmp	r0, #20
10006e6a:	d952      	bls.n	10006f12 <_malloc_r+0x426>
10006e6c:	2854      	cmp	r0, #84	; 0x54
10006e6e:	d900      	bls.n	10006e72 <_malloc_r+0x386>
10006e70:	e096      	b.n	10006fa0 <_malloc_r+0x4b4>
10006e72:	236e      	movs	r3, #110	; 0x6e
10006e74:	4698      	mov	r8, r3
10006e76:	0b28      	lsrs	r0, r5, #12
10006e78:	4480      	add	r8, r0
10006e7a:	306f      	adds	r0, #111	; 0x6f
10006e7c:	00c1      	lsls	r1, r0, #3
10006e7e:	e67e      	b.n	10006b7e <_malloc_r+0x92>
10006e80:	2308      	movs	r3, #8
10006e82:	469b      	mov	fp, r3
10006e84:	3b07      	subs	r3, #7
10006e86:	44dc      	add	ip, fp
10006e88:	469b      	mov	fp, r3
10006e8a:	44da      	add	sl, fp
10006e8c:	4643      	mov	r3, r8
10006e8e:	4652      	mov	r2, sl
10006e90:	4213      	tst	r3, r2
10006e92:	d000      	beq.n	10006e96 <_malloc_r+0x3aa>
10006e94:	e6c2      	b.n	10006c1c <_malloc_r+0x130>
10006e96:	e04c      	b.n	10006f32 <_malloc_r+0x446>
10006e98:	2201      	movs	r2, #1
10006e9a:	18e3      	adds	r3, r4, r3
10006e9c:	6859      	ldr	r1, [r3, #4]
10006e9e:	0030      	movs	r0, r6
10006ea0:	430a      	orrs	r2, r1
10006ea2:	605a      	str	r2, [r3, #4]
10006ea4:	68e3      	ldr	r3, [r4, #12]
10006ea6:	68a2      	ldr	r2, [r4, #8]
10006ea8:	60d3      	str	r3, [r2, #12]
10006eaa:	609a      	str	r2, [r3, #8]
10006eac:	f000 f8e8 	bl	10007080 <__malloc_unlock>
10006eb0:	0020      	movs	r0, r4
10006eb2:	3008      	adds	r0, #8
10006eb4:	e6df      	b.n	10006c76 <_malloc_r+0x18a>
10006eb6:	002b      	movs	r3, r5
10006eb8:	08e8      	lsrs	r0, r5, #3
10006eba:	3308      	adds	r3, #8
10006ebc:	e62a      	b.n	10006b14 <_malloc_r+0x28>
10006ebe:	2301      	movs	r3, #1
10006ec0:	1960      	adds	r0, r4, r5
10006ec2:	431d      	orrs	r5, r3
10006ec4:	6065      	str	r5, [r4, #4]
10006ec6:	6178      	str	r0, [r7, #20]
10006ec8:	6138      	str	r0, [r7, #16]
10006eca:	60c2      	str	r2, [r0, #12]
10006ecc:	6082      	str	r2, [r0, #8]
10006ece:	001a      	movs	r2, r3
10006ed0:	464b      	mov	r3, r9
10006ed2:	430a      	orrs	r2, r1
10006ed4:	6042      	str	r2, [r0, #4]
10006ed6:	0030      	movs	r0, r6
10006ed8:	50e1      	str	r1, [r4, r3]
10006eda:	f000 f8d1 	bl	10007080 <__malloc_unlock>
10006ede:	0020      	movs	r0, r4
10006ee0:	3008      	adds	r0, #8
10006ee2:	e6c8      	b.n	10006c76 <_malloc_r+0x18a>
10006ee4:	099a      	lsrs	r2, r3, #6
10006ee6:	0011      	movs	r1, r2
10006ee8:	3239      	adds	r2, #57	; 0x39
10006eea:	3138      	adds	r1, #56	; 0x38
10006eec:	00d2      	lsls	r2, r2, #3
10006eee:	e78d      	b.n	10006e0c <_malloc_r+0x320>
10006ef0:	42bc      	cmp	r4, r7
10006ef2:	d060      	beq.n	10006fb6 <_malloc_r+0x4ca>
10006ef4:	68bc      	ldr	r4, [r7, #8]
10006ef6:	6862      	ldr	r2, [r4, #4]
10006ef8:	2303      	movs	r3, #3
10006efa:	439a      	bics	r2, r3
10006efc:	1b53      	subs	r3, r2, r5
10006efe:	4295      	cmp	r5, r2
10006f00:	d802      	bhi.n	10006f08 <_malloc_r+0x41c>
10006f02:	2b0f      	cmp	r3, #15
10006f04:	dd00      	ble.n	10006f08 <_malloc_r+0x41c>
10006f06:	e769      	b.n	10006ddc <_malloc_r+0x2f0>
10006f08:	0030      	movs	r0, r6
10006f0a:	f000 f8b9 	bl	10007080 <__malloc_unlock>
10006f0e:	2000      	movs	r0, #0
10006f10:	e6b1      	b.n	10006c76 <_malloc_r+0x18a>
10006f12:	235b      	movs	r3, #91	; 0x5b
10006f14:	4698      	mov	r8, r3
10006f16:	4480      	add	r8, r0
10006f18:	305c      	adds	r0, #92	; 0x5c
10006f1a:	00c1      	lsls	r1, r0, #3
10006f1c:	e62f      	b.n	10006b7e <_malloc_r+0x92>
10006f1e:	2308      	movs	r3, #8
10006f20:	425b      	negs	r3, r3
10006f22:	469c      	mov	ip, r3
10006f24:	44e1      	add	r9, ip
10006f26:	464b      	mov	r3, r9
10006f28:	689b      	ldr	r3, [r3, #8]
10006f2a:	3801      	subs	r0, #1
10006f2c:	454b      	cmp	r3, r9
10006f2e:	d000      	beq.n	10006f32 <_malloc_r+0x446>
10006f30:	e098      	b.n	10007064 <_malloc_r+0x578>
10006f32:	4643      	mov	r3, r8
10006f34:	4203      	tst	r3, r0
10006f36:	d1f2      	bne.n	10006f1e <_malloc_r+0x432>
10006f38:	687b      	ldr	r3, [r7, #4]
10006f3a:	438b      	bics	r3, r1
10006f3c:	607b      	str	r3, [r7, #4]
10006f3e:	0049      	lsls	r1, r1, #1
10006f40:	4299      	cmp	r1, r3
10006f42:	d900      	bls.n	10006f46 <_malloc_r+0x45a>
10006f44:	e6b5      	b.n	10006cb2 <_malloc_r+0x1c6>
10006f46:	2900      	cmp	r1, #0
10006f48:	d104      	bne.n	10006f54 <_malloc_r+0x468>
10006f4a:	e6b2      	b.n	10006cb2 <_malloc_r+0x1c6>
10006f4c:	2204      	movs	r2, #4
10006f4e:	4694      	mov	ip, r2
10006f50:	0049      	lsls	r1, r1, #1
10006f52:	44e2      	add	sl, ip
10006f54:	420b      	tst	r3, r1
10006f56:	d0f9      	beq.n	10006f4c <_malloc_r+0x460>
10006f58:	4650      	mov	r0, sl
10006f5a:	e65a      	b.n	10006c12 <_malloc_r+0x126>
10006f5c:	3310      	adds	r3, #16
10006f5e:	9300      	str	r3, [sp, #0]
10006f60:	e6c4      	b.n	10006cec <_malloc_r+0x200>
10006f62:	1089      	asrs	r1, r1, #2
10006f64:	3b02      	subs	r3, #2
10006f66:	408b      	lsls	r3, r1
10006f68:	6879      	ldr	r1, [r7, #4]
10006f6a:	430b      	orrs	r3, r1
10006f6c:	607b      	str	r3, [r7, #4]
10006f6e:	e764      	b.n	10006e3a <_malloc_r+0x34e>
10006f70:	9b00      	ldr	r3, [sp, #0]
10006f72:	0030      	movs	r0, r6
10006f74:	4443      	add	r3, r8
10006f76:	425b      	negs	r3, r3
10006f78:	051b      	lsls	r3, r3, #20
10006f7a:	0d1b      	lsrs	r3, r3, #20
10006f7c:	0019      	movs	r1, r3
10006f7e:	469b      	mov	fp, r3
10006f80:	f000 f886 	bl	10007090 <_sbrk_r>
10006f84:	1c43      	adds	r3, r0, #1
10006f86:	d000      	beq.n	10006f8a <_malloc_r+0x49e>
10006f88:	e6f3      	b.n	10006d72 <_malloc_r+0x286>
10006f8a:	2300      	movs	r3, #0
10006f8c:	469b      	mov	fp, r3
10006f8e:	e6f5      	b.n	10006d7c <_malloc_r+0x290>
10006f90:	2a54      	cmp	r2, #84	; 0x54
10006f92:	d82b      	bhi.n	10006fec <_malloc_r+0x500>
10006f94:	0b1a      	lsrs	r2, r3, #12
10006f96:	0011      	movs	r1, r2
10006f98:	326f      	adds	r2, #111	; 0x6f
10006f9a:	316e      	adds	r1, #110	; 0x6e
10006f9c:	00d2      	lsls	r2, r2, #3
10006f9e:	e735      	b.n	10006e0c <_malloc_r+0x320>
10006fa0:	23aa      	movs	r3, #170	; 0xaa
10006fa2:	005b      	lsls	r3, r3, #1
10006fa4:	4298      	cmp	r0, r3
10006fa6:	d82b      	bhi.n	10007000 <_malloc_r+0x514>
10006fa8:	3bdd      	subs	r3, #221	; 0xdd
10006faa:	4698      	mov	r8, r3
10006fac:	0be8      	lsrs	r0, r5, #15
10006fae:	4480      	add	r8, r0
10006fb0:	3078      	adds	r0, #120	; 0x78
10006fb2:	00c1      	lsls	r1, r0, #3
10006fb4:	e5e3      	b.n	10006b7e <_malloc_r+0x92>
10006fb6:	4b2c      	ldr	r3, [pc, #176]	; (10007068 <_malloc_r+0x57c>)
10006fb8:	9a00      	ldr	r2, [sp, #0]
10006fba:	469a      	mov	sl, r3
10006fbc:	681b      	ldr	r3, [r3, #0]
10006fbe:	469c      	mov	ip, r3
10006fc0:	4653      	mov	r3, sl
10006fc2:	4462      	add	r2, ip
10006fc4:	601a      	str	r2, [r3, #0]
10006fc6:	e6ad      	b.n	10006d24 <_malloc_r+0x238>
10006fc8:	0509      	lsls	r1, r1, #20
10006fca:	d000      	beq.n	10006fce <_malloc_r+0x4e2>
10006fcc:	e6aa      	b.n	10006d24 <_malloc_r+0x238>
10006fce:	0002      	movs	r2, r0
10006fd0:	68bc      	ldr	r4, [r7, #8]
10006fd2:	444a      	add	r2, r9
10006fd4:	3101      	adds	r1, #1
10006fd6:	430a      	orrs	r2, r1
10006fd8:	6062      	str	r2, [r4, #4]
10006fda:	e6f3      	b.n	10006dc4 <_malloc_r+0x2d8>
10006fdc:	465b      	mov	r3, fp
10006fde:	4642      	mov	r2, r8
10006fe0:	601a      	str	r2, [r3, #0]
10006fe2:	e6aa      	b.n	10006d3a <_malloc_r+0x24e>
10006fe4:	4644      	mov	r4, r8
10006fe6:	e6ed      	b.n	10006dc4 <_malloc_r+0x2d8>
10006fe8:	6041      	str	r1, [r0, #4]
10006fea:	e78d      	b.n	10006f08 <_malloc_r+0x41c>
10006fec:	21aa      	movs	r1, #170	; 0xaa
10006fee:	0049      	lsls	r1, r1, #1
10006ff0:	428a      	cmp	r2, r1
10006ff2:	d824      	bhi.n	1000703e <_malloc_r+0x552>
10006ff4:	0bda      	lsrs	r2, r3, #15
10006ff6:	0011      	movs	r1, r2
10006ff8:	3278      	adds	r2, #120	; 0x78
10006ffa:	3177      	adds	r1, #119	; 0x77
10006ffc:	00d2      	lsls	r2, r2, #3
10006ffe:	e705      	b.n	10006e0c <_malloc_r+0x320>
10007000:	4b1a      	ldr	r3, [pc, #104]	; (1000706c <_malloc_r+0x580>)
10007002:	4298      	cmp	r0, r3
10007004:	d824      	bhi.n	10007050 <_malloc_r+0x564>
10007006:	237c      	movs	r3, #124	; 0x7c
10007008:	4698      	mov	r8, r3
1000700a:	0ca8      	lsrs	r0, r5, #18
1000700c:	4480      	add	r8, r0
1000700e:	307d      	adds	r0, #125	; 0x7d
10007010:	00c1      	lsls	r1, r0, #3
10007012:	e5b4      	b.n	10006b7e <_malloc_r+0x92>
10007014:	9a00      	ldr	r2, [sp, #0]
10007016:	9b01      	ldr	r3, [sp, #4]
10007018:	4694      	mov	ip, r2
1000701a:	4642      	mov	r2, r8
1000701c:	3b08      	subs	r3, #8
1000701e:	4463      	add	r3, ip
10007020:	1a9b      	subs	r3, r3, r2
10007022:	9300      	str	r3, [sp, #0]
10007024:	2300      	movs	r3, #0
10007026:	469b      	mov	fp, r3
10007028:	e6a8      	b.n	10006d7c <_malloc_r+0x290>
1000702a:	0021      	movs	r1, r4
1000702c:	0030      	movs	r0, r6
1000702e:	3108      	adds	r1, #8
10007030:	f000 f8bc 	bl	100071ac <_free_r>
10007034:	4653      	mov	r3, sl
10007036:	68bc      	ldr	r4, [r7, #8]
10007038:	681b      	ldr	r3, [r3, #0]
1000703a:	6862      	ldr	r2, [r4, #4]
1000703c:	e6c2      	b.n	10006dc4 <_malloc_r+0x2d8>
1000703e:	490b      	ldr	r1, [pc, #44]	; (1000706c <_malloc_r+0x580>)
10007040:	428a      	cmp	r2, r1
10007042:	d80b      	bhi.n	1000705c <_malloc_r+0x570>
10007044:	0c9a      	lsrs	r2, r3, #18
10007046:	0011      	movs	r1, r2
10007048:	327d      	adds	r2, #125	; 0x7d
1000704a:	317c      	adds	r1, #124	; 0x7c
1000704c:	00d2      	lsls	r2, r2, #3
1000704e:	e6dd      	b.n	10006e0c <_malloc_r+0x320>
10007050:	21fe      	movs	r1, #254	; 0xfe
10007052:	237e      	movs	r3, #126	; 0x7e
10007054:	207f      	movs	r0, #127	; 0x7f
10007056:	4698      	mov	r8, r3
10007058:	0089      	lsls	r1, r1, #2
1000705a:	e590      	b.n	10006b7e <_malloc_r+0x92>
1000705c:	22fe      	movs	r2, #254	; 0xfe
1000705e:	217e      	movs	r1, #126	; 0x7e
10007060:	0092      	lsls	r2, r2, #2
10007062:	e6d3      	b.n	10006e0c <_malloc_r+0x320>
10007064:	687b      	ldr	r3, [r7, #4]
10007066:	e76a      	b.n	10006f3e <_malloc_r+0x452>
10007068:	20000e00 	.word	0x20000e00
1000706c:	00000554 	.word	0x00000554

10007070 <__malloc_lock>:
10007070:	b510      	push	{r4, lr}
10007072:	4802      	ldr	r0, [pc, #8]	; (1000707c <__malloc_lock+0xc>)
10007074:	f000 f97c 	bl	10007370 <__retarget_lock_acquire_recursive>
10007078:	bd10      	pop	{r4, pc}
1000707a:	46c0      	nop			; (mov r8, r8)
1000707c:	20000dfc 	.word	0x20000dfc

10007080 <__malloc_unlock>:
10007080:	b510      	push	{r4, lr}
10007082:	4802      	ldr	r0, [pc, #8]	; (1000708c <__malloc_unlock+0xc>)
10007084:	f000 f976 	bl	10007374 <__retarget_lock_release_recursive>
10007088:	bd10      	pop	{r4, pc}
1000708a:	46c0      	nop			; (mov r8, r8)
1000708c:	20000dfc 	.word	0x20000dfc

10007090 <_sbrk_r>:
10007090:	2300      	movs	r3, #0
10007092:	b570      	push	{r4, r5, r6, lr}
10007094:	4d06      	ldr	r5, [pc, #24]	; (100070b0 <_sbrk_r+0x20>)
10007096:	0004      	movs	r4, r0
10007098:	0008      	movs	r0, r1
1000709a:	602b      	str	r3, [r5, #0]
1000709c:	f7fa ffcc 	bl	10002038 <_sbrk>
100070a0:	1c43      	adds	r3, r0, #1
100070a2:	d000      	beq.n	100070a6 <_sbrk_r+0x16>
100070a4:	bd70      	pop	{r4, r5, r6, pc}
100070a6:	682b      	ldr	r3, [r5, #0]
100070a8:	2b00      	cmp	r3, #0
100070aa:	d0fb      	beq.n	100070a4 <_sbrk_r+0x14>
100070ac:	6023      	str	r3, [r4, #0]
100070ae:	e7f9      	b.n	100070a4 <_sbrk_r+0x14>
100070b0:	20000eb8 	.word	0x20000eb8

100070b4 <strlen>:
100070b4:	b510      	push	{r4, lr}
100070b6:	0783      	lsls	r3, r0, #30
100070b8:	d00a      	beq.n	100070d0 <strlen+0x1c>
100070ba:	0003      	movs	r3, r0
100070bc:	2103      	movs	r1, #3
100070be:	e002      	b.n	100070c6 <strlen+0x12>
100070c0:	3301      	adds	r3, #1
100070c2:	420b      	tst	r3, r1
100070c4:	d005      	beq.n	100070d2 <strlen+0x1e>
100070c6:	781a      	ldrb	r2, [r3, #0]
100070c8:	2a00      	cmp	r2, #0
100070ca:	d1f9      	bne.n	100070c0 <strlen+0xc>
100070cc:	1a18      	subs	r0, r3, r0
100070ce:	bd10      	pop	{r4, pc}
100070d0:	0003      	movs	r3, r0
100070d2:	6819      	ldr	r1, [r3, #0]
100070d4:	4a0c      	ldr	r2, [pc, #48]	; (10007108 <strlen+0x54>)
100070d6:	4c0d      	ldr	r4, [pc, #52]	; (1000710c <strlen+0x58>)
100070d8:	188a      	adds	r2, r1, r2
100070da:	438a      	bics	r2, r1
100070dc:	4222      	tst	r2, r4
100070de:	d10f      	bne.n	10007100 <strlen+0x4c>
100070e0:	6859      	ldr	r1, [r3, #4]
100070e2:	4a09      	ldr	r2, [pc, #36]	; (10007108 <strlen+0x54>)
100070e4:	3304      	adds	r3, #4
100070e6:	188a      	adds	r2, r1, r2
100070e8:	438a      	bics	r2, r1
100070ea:	4222      	tst	r2, r4
100070ec:	d108      	bne.n	10007100 <strlen+0x4c>
100070ee:	6859      	ldr	r1, [r3, #4]
100070f0:	4a05      	ldr	r2, [pc, #20]	; (10007108 <strlen+0x54>)
100070f2:	3304      	adds	r3, #4
100070f4:	188a      	adds	r2, r1, r2
100070f6:	438a      	bics	r2, r1
100070f8:	4222      	tst	r2, r4
100070fa:	d0f1      	beq.n	100070e0 <strlen+0x2c>
100070fc:	e000      	b.n	10007100 <strlen+0x4c>
100070fe:	3301      	adds	r3, #1
10007100:	781a      	ldrb	r2, [r3, #0]
10007102:	2a00      	cmp	r2, #0
10007104:	d1fb      	bne.n	100070fe <strlen+0x4a>
10007106:	e7e1      	b.n	100070cc <strlen+0x18>
10007108:	fefefeff 	.word	0xfefefeff
1000710c:	80808080 	.word	0x80808080

10007110 <_malloc_trim_r>:
10007110:	b5f8      	push	{r3, r4, r5, r6, r7, lr}
10007112:	000c      	movs	r4, r1
10007114:	0005      	movs	r5, r0
10007116:	f7ff ffab 	bl	10007070 <__malloc_lock>
1000711a:	4f20      	ldr	r7, [pc, #128]	; (1000719c <_malloc_trim_r+0x8c>)
1000711c:	68bb      	ldr	r3, [r7, #8]
1000711e:	685e      	ldr	r6, [r3, #4]
10007120:	2303      	movs	r3, #3
10007122:	439e      	bics	r6, r3
10007124:	4b1e      	ldr	r3, [pc, #120]	; (100071a0 <_malloc_trim_r+0x90>)
10007126:	1b34      	subs	r4, r6, r4
10007128:	469c      	mov	ip, r3
1000712a:	4464      	add	r4, ip
1000712c:	0b24      	lsrs	r4, r4, #12
1000712e:	3c01      	subs	r4, #1
10007130:	3311      	adds	r3, #17
10007132:	0324      	lsls	r4, r4, #12
10007134:	429c      	cmp	r4, r3
10007136:	db07      	blt.n	10007148 <_malloc_trim_r+0x38>
10007138:	2100      	movs	r1, #0
1000713a:	0028      	movs	r0, r5
1000713c:	f7ff ffa8 	bl	10007090 <_sbrk_r>
10007140:	68bb      	ldr	r3, [r7, #8]
10007142:	199b      	adds	r3, r3, r6
10007144:	4298      	cmp	r0, r3
10007146:	d004      	beq.n	10007152 <_malloc_trim_r+0x42>
10007148:	0028      	movs	r0, r5
1000714a:	f7ff ff99 	bl	10007080 <__malloc_unlock>
1000714e:	2000      	movs	r0, #0
10007150:	bdf8      	pop	{r3, r4, r5, r6, r7, pc}
10007152:	0028      	movs	r0, r5
10007154:	4261      	negs	r1, r4
10007156:	f7ff ff9b 	bl	10007090 <_sbrk_r>
1000715a:	1c43      	adds	r3, r0, #1
1000715c:	d00d      	beq.n	1000717a <_malloc_trim_r+0x6a>
1000715e:	2201      	movs	r2, #1
10007160:	68bb      	ldr	r3, [r7, #8]
10007162:	1b36      	subs	r6, r6, r4
10007164:	4316      	orrs	r6, r2
10007166:	605e      	str	r6, [r3, #4]
10007168:	4b0e      	ldr	r3, [pc, #56]	; (100071a4 <_malloc_trim_r+0x94>)
1000716a:	0028      	movs	r0, r5
1000716c:	681a      	ldr	r2, [r3, #0]
1000716e:	1b14      	subs	r4, r2, r4
10007170:	601c      	str	r4, [r3, #0]
10007172:	f7ff ff85 	bl	10007080 <__malloc_unlock>
10007176:	2001      	movs	r0, #1
10007178:	e7ea      	b.n	10007150 <_malloc_trim_r+0x40>
1000717a:	2100      	movs	r1, #0
1000717c:	0028      	movs	r0, r5
1000717e:	f7ff ff87 	bl	10007090 <_sbrk_r>
10007182:	68ba      	ldr	r2, [r7, #8]
10007184:	1a83      	subs	r3, r0, r2
10007186:	2b0f      	cmp	r3, #15
10007188:	ddde      	ble.n	10007148 <_malloc_trim_r+0x38>
1000718a:	4907      	ldr	r1, [pc, #28]	; (100071a8 <_malloc_trim_r+0x98>)
1000718c:	6809      	ldr	r1, [r1, #0]
1000718e:	1a40      	subs	r0, r0, r1
10007190:	4904      	ldr	r1, [pc, #16]	; (100071a4 <_malloc_trim_r+0x94>)
10007192:	6008      	str	r0, [r1, #0]
10007194:	2101      	movs	r1, #1
10007196:	430b      	orrs	r3, r1
10007198:	6053      	str	r3, [r2, #4]
1000719a:	e7d5      	b.n	10007148 <_malloc_trim_r+0x38>
1000719c:	20000720 	.word	0x20000720
100071a0:	00000fef 	.word	0x00000fef
100071a4:	20000e00 	.word	0x20000e00
100071a8:	20000b28 	.word	0x20000b28

100071ac <_free_r>:
100071ac:	b5f0      	push	{r4, r5, r6, r7, lr}
100071ae:	46c6      	mov	lr, r8
100071b0:	0005      	movs	r5, r0
100071b2:	000c      	movs	r4, r1
100071b4:	b500      	push	{lr}
100071b6:	2900      	cmp	r1, #0
100071b8:	d04f      	beq.n	1000725a <_free_r+0xae>
100071ba:	f7ff ff59 	bl	10007070 <__malloc_lock>
100071be:	0021      	movs	r1, r4
100071c0:	3908      	subs	r1, #8
100071c2:	684c      	ldr	r4, [r1, #4]
100071c4:	2601      	movs	r6, #1
100071c6:	0022      	movs	r2, r4
100071c8:	2003      	movs	r0, #3
100071ca:	43b2      	bics	r2, r6
100071cc:	188f      	adds	r7, r1, r2
100071ce:	687b      	ldr	r3, [r7, #4]
100071d0:	4383      	bics	r3, r0
100071d2:	4862      	ldr	r0, [pc, #392]	; (1000735c <_free_r+0x1b0>)
100071d4:	4698      	mov	r8, r3
100071d6:	6883      	ldr	r3, [r0, #8]
100071d8:	42bb      	cmp	r3, r7
100071da:	d06a      	beq.n	100072b2 <_free_r+0x106>
100071dc:	4643      	mov	r3, r8
100071de:	607b      	str	r3, [r7, #4]
100071e0:	4226      	tst	r6, r4
100071e2:	d11e      	bne.n	10007222 <_free_r+0x76>
100071e4:	2308      	movs	r3, #8
100071e6:	469c      	mov	ip, r3
100071e8:	680c      	ldr	r4, [r1, #0]
100071ea:	4484      	add	ip, r0
100071ec:	1b09      	subs	r1, r1, r4
100071ee:	1912      	adds	r2, r2, r4
100071f0:	688c      	ldr	r4, [r1, #8]
100071f2:	4564      	cmp	r4, ip
100071f4:	d04f      	beq.n	10007296 <_free_r+0xea>
100071f6:	68cb      	ldr	r3, [r1, #12]
100071f8:	60e3      	str	r3, [r4, #12]
100071fa:	609c      	str	r4, [r3, #8]
100071fc:	4643      	mov	r3, r8
100071fe:	18fc      	adds	r4, r7, r3
10007200:	6864      	ldr	r4, [r4, #4]
10007202:	4234      	tst	r4, r6
10007204:	d111      	bne.n	1000722a <_free_r+0x7e>
10007206:	68bb      	ldr	r3, [r7, #8]
10007208:	4c55      	ldr	r4, [pc, #340]	; (10007360 <_free_r+0x1b4>)
1000720a:	4442      	add	r2, r8
1000720c:	42a3      	cmp	r3, r4
1000720e:	d100      	bne.n	10007212 <_free_r+0x66>
10007210:	e07e      	b.n	10007310 <_free_r+0x164>
10007212:	68fc      	ldr	r4, [r7, #12]
10007214:	60dc      	str	r4, [r3, #12]
10007216:	60a3      	str	r3, [r4, #8]
10007218:	2301      	movs	r3, #1
1000721a:	4313      	orrs	r3, r2
1000721c:	604b      	str	r3, [r1, #4]
1000721e:	508a      	str	r2, [r1, r2]
10007220:	e006      	b.n	10007230 <_free_r+0x84>
10007222:	18fc      	adds	r4, r7, r3
10007224:	6864      	ldr	r4, [r4, #4]
10007226:	4234      	tst	r4, r6
10007228:	d0ed      	beq.n	10007206 <_free_r+0x5a>
1000722a:	4316      	orrs	r6, r2
1000722c:	604e      	str	r6, [r1, #4]
1000722e:	603a      	str	r2, [r7, #0]
10007230:	2380      	movs	r3, #128	; 0x80
10007232:	009b      	lsls	r3, r3, #2
10007234:	429a      	cmp	r2, r3
10007236:	d213      	bcs.n	10007260 <_free_r+0xb4>
10007238:	0954      	lsrs	r4, r2, #5
1000723a:	08d3      	lsrs	r3, r2, #3
1000723c:	2201      	movs	r2, #1
1000723e:	40a2      	lsls	r2, r4
10007240:	6844      	ldr	r4, [r0, #4]
10007242:	00db      	lsls	r3, r3, #3
10007244:	4322      	orrs	r2, r4
10007246:	6042      	str	r2, [r0, #4]
10007248:	1818      	adds	r0, r3, r0
1000724a:	6883      	ldr	r3, [r0, #8]
1000724c:	60c8      	str	r0, [r1, #12]
1000724e:	608b      	str	r3, [r1, #8]
10007250:	6081      	str	r1, [r0, #8]
10007252:	60d9      	str	r1, [r3, #12]
10007254:	0028      	movs	r0, r5
10007256:	f7ff ff13 	bl	10007080 <__malloc_unlock>
1000725a:	bc80      	pop	{r7}
1000725c:	46b8      	mov	r8, r7
1000725e:	bdf0      	pop	{r4, r5, r6, r7, pc}
10007260:	0a53      	lsrs	r3, r2, #9
10007262:	2b04      	cmp	r3, #4
10007264:	d83e      	bhi.n	100072e4 <_free_r+0x138>
10007266:	0994      	lsrs	r4, r2, #6
10007268:	0026      	movs	r6, r4
1000726a:	3439      	adds	r4, #57	; 0x39
1000726c:	3638      	adds	r6, #56	; 0x38
1000726e:	00e4      	lsls	r4, r4, #3
10007270:	1904      	adds	r4, r0, r4
10007272:	6823      	ldr	r3, [r4, #0]
10007274:	3c08      	subs	r4, #8
10007276:	2703      	movs	r7, #3
10007278:	429c      	cmp	r4, r3
1000727a:	d042      	beq.n	10007302 <_free_r+0x156>
1000727c:	6858      	ldr	r0, [r3, #4]
1000727e:	43b8      	bics	r0, r7
10007280:	4290      	cmp	r0, r2
10007282:	d902      	bls.n	1000728a <_free_r+0xde>
10007284:	689b      	ldr	r3, [r3, #8]
10007286:	429c      	cmp	r4, r3
10007288:	d1f8      	bne.n	1000727c <_free_r+0xd0>
1000728a:	68dc      	ldr	r4, [r3, #12]
1000728c:	60cc      	str	r4, [r1, #12]
1000728e:	608b      	str	r3, [r1, #8]
10007290:	60a1      	str	r1, [r4, #8]
10007292:	60d9      	str	r1, [r3, #12]
10007294:	e7de      	b.n	10007254 <_free_r+0xa8>
10007296:	4643      	mov	r3, r8
10007298:	18f8      	adds	r0, r7, r3
1000729a:	6840      	ldr	r0, [r0, #4]
1000729c:	4230      	tst	r0, r6
1000729e:	d157      	bne.n	10007350 <_free_r+0x1a4>
100072a0:	68fb      	ldr	r3, [r7, #12]
100072a2:	68b8      	ldr	r0, [r7, #8]
100072a4:	4442      	add	r2, r8
100072a6:	4316      	orrs	r6, r2
100072a8:	60c3      	str	r3, [r0, #12]
100072aa:	6098      	str	r0, [r3, #8]
100072ac:	604e      	str	r6, [r1, #4]
100072ae:	508a      	str	r2, [r1, r2]
100072b0:	e7d0      	b.n	10007254 <_free_r+0xa8>
100072b2:	0013      	movs	r3, r2
100072b4:	4443      	add	r3, r8
100072b6:	4226      	tst	r6, r4
100072b8:	d106      	bne.n	100072c8 <_free_r+0x11c>
100072ba:	680a      	ldr	r2, [r1, #0]
100072bc:	1a89      	subs	r1, r1, r2
100072be:	688c      	ldr	r4, [r1, #8]
100072c0:	189b      	adds	r3, r3, r2
100072c2:	68ca      	ldr	r2, [r1, #12]
100072c4:	60e2      	str	r2, [r4, #12]
100072c6:	6094      	str	r4, [r2, #8]
100072c8:	2201      	movs	r2, #1
100072ca:	431a      	orrs	r2, r3
100072cc:	604a      	str	r2, [r1, #4]
100072ce:	4a25      	ldr	r2, [pc, #148]	; (10007364 <_free_r+0x1b8>)
100072d0:	6081      	str	r1, [r0, #8]
100072d2:	6812      	ldr	r2, [r2, #0]
100072d4:	429a      	cmp	r2, r3
100072d6:	d8bd      	bhi.n	10007254 <_free_r+0xa8>
100072d8:	4b23      	ldr	r3, [pc, #140]	; (10007368 <_free_r+0x1bc>)
100072da:	0028      	movs	r0, r5
100072dc:	6819      	ldr	r1, [r3, #0]
100072de:	f7ff ff17 	bl	10007110 <_malloc_trim_r>
100072e2:	e7b7      	b.n	10007254 <_free_r+0xa8>
100072e4:	2b14      	cmp	r3, #20
100072e6:	d907      	bls.n	100072f8 <_free_r+0x14c>
100072e8:	2b54      	cmp	r3, #84	; 0x54
100072ea:	d81a      	bhi.n	10007322 <_free_r+0x176>
100072ec:	0b14      	lsrs	r4, r2, #12
100072ee:	0026      	movs	r6, r4
100072f0:	346f      	adds	r4, #111	; 0x6f
100072f2:	366e      	adds	r6, #110	; 0x6e
100072f4:	00e4      	lsls	r4, r4, #3
100072f6:	e7bb      	b.n	10007270 <_free_r+0xc4>
100072f8:	001e      	movs	r6, r3
100072fa:	335c      	adds	r3, #92	; 0x5c
100072fc:	365b      	adds	r6, #91	; 0x5b
100072fe:	00dc      	lsls	r4, r3, #3
10007300:	e7b6      	b.n	10007270 <_free_r+0xc4>
10007302:	2201      	movs	r2, #1
10007304:	10b6      	asrs	r6, r6, #2
10007306:	40b2      	lsls	r2, r6
10007308:	6846      	ldr	r6, [r0, #4]
1000730a:	4332      	orrs	r2, r6
1000730c:	6042      	str	r2, [r0, #4]
1000730e:	e7bd      	b.n	1000728c <_free_r+0xe0>
10007310:	60d9      	str	r1, [r3, #12]
10007312:	6099      	str	r1, [r3, #8]
10007314:	60cb      	str	r3, [r1, #12]
10007316:	608b      	str	r3, [r1, #8]
10007318:	2301      	movs	r3, #1
1000731a:	4313      	orrs	r3, r2
1000731c:	604b      	str	r3, [r1, #4]
1000731e:	508a      	str	r2, [r1, r2]
10007320:	e798      	b.n	10007254 <_free_r+0xa8>
10007322:	24aa      	movs	r4, #170	; 0xaa
10007324:	0064      	lsls	r4, r4, #1
10007326:	42a3      	cmp	r3, r4
10007328:	d805      	bhi.n	10007336 <_free_r+0x18a>
1000732a:	0bd4      	lsrs	r4, r2, #15
1000732c:	0026      	movs	r6, r4
1000732e:	3478      	adds	r4, #120	; 0x78
10007330:	3677      	adds	r6, #119	; 0x77
10007332:	00e4      	lsls	r4, r4, #3
10007334:	e79c      	b.n	10007270 <_free_r+0xc4>
10007336:	4c0d      	ldr	r4, [pc, #52]	; (1000736c <_free_r+0x1c0>)
10007338:	42a3      	cmp	r3, r4
1000733a:	d805      	bhi.n	10007348 <_free_r+0x19c>
1000733c:	0c94      	lsrs	r4, r2, #18
1000733e:	0026      	movs	r6, r4
10007340:	347d      	adds	r4, #125	; 0x7d
10007342:	367c      	adds	r6, #124	; 0x7c
10007344:	00e4      	lsls	r4, r4, #3
10007346:	e793      	b.n	10007270 <_free_r+0xc4>
10007348:	24fe      	movs	r4, #254	; 0xfe
1000734a:	267e      	movs	r6, #126	; 0x7e
1000734c:	00a4      	lsls	r4, r4, #2
1000734e:	e78f      	b.n	10007270 <_free_r+0xc4>
10007350:	0033      	movs	r3, r6
10007352:	4313      	orrs	r3, r2
10007354:	604b      	str	r3, [r1, #4]
10007356:	603a      	str	r2, [r7, #0]
10007358:	e77c      	b.n	10007254 <_free_r+0xa8>
1000735a:	46c0      	nop			; (mov r8, r8)
1000735c:	20000720 	.word	0x20000720
10007360:	20000728 	.word	0x20000728
10007364:	20000b2c 	.word	0x20000b2c
10007368:	20000e30 	.word	0x20000e30
1000736c:	00000554 	.word	0x00000554

10007370 <__retarget_lock_acquire_recursive>:
10007370:	4770      	bx	lr
10007372:	46c0      	nop			; (mov r8, r8)

10007374 <__retarget_lock_release_recursive>:
10007374:	4770      	bx	lr
10007376:	46c0      	nop			; (mov r8, r8)

10007378 <_fini>:
10007378:	b5f8      	push	{r3, r4, r5, r6, r7, lr}
1000737a:	46c0      	nop			; (mov r8, r8)
1000737c:	0000      	movs	r0, r0
	...

10007380 <__mutex_exit_veneer>:
10007380:	b401      	push	{r0}
10007382:	4802      	ldr	r0, [pc, #8]	; (1000738c <__mutex_exit_veneer+0xc>)
10007384:	4684      	mov	ip, r0
10007386:	bc01      	pop	{r0}
10007388:	4760      	bx	ip
1000738a:	bf00      	nop
1000738c:	200001c9 	.word	0x200001c9

10007390 <____aeabi_ldiv0_veneer>:
10007390:	b401      	push	{r0}
10007392:	4802      	ldr	r0, [pc, #8]	; (1000739c <____aeabi_ldiv0_veneer+0xc>)
10007394:	4684      	mov	ip, r0
10007396:	bc01      	pop	{r0}
10007398:	4760      	bx	ip
1000739a:	bf00      	nop
1000739c:	20000215 	.word	0x20000215

100073a0 <____aeabi_idiv0_veneer>:
100073a0:	b401      	push	{r0}
100073a2:	4802      	ldr	r0, [pc, #8]	; (100073ac <____aeabi_idiv0_veneer+0xc>)
100073a4:	4684      	mov	ip, r0
100073a6:	bc01      	pop	{r0}
100073a8:	4760      	bx	ip
100073aa:	bf00      	nop
100073ac:	20000215 	.word	0x20000215

100073b0 <__mutex_try_enter_block_until_veneer>:
100073b0:	b401      	push	{r0}
100073b2:	4802      	ldr	r0, [pc, #8]	; (100073bc <__mutex_try_enter_block_until_veneer+0xc>)
100073b4:	4684      	mov	ip, r0
100073b6:	bc01      	pop	{r0}
100073b8:	4760      	bx	ip
100073ba:	bf00      	nop
100073bc:	20000195 	.word	0x20000195

Disassembly of section .data:

200000c0 <mutex_try_enter>:
200000c0:	0003      	movs	r3, r0
200000c2:	6800      	ldr	r0, [r0, #0]
200000c4:	f3ef 8c10 	mrs	ip, PRIMASK
200000c8:	b672      	cpsid	i
200000ca:	6802      	ldr	r2, [r0, #0]
200000cc:	2a00      	cmp	r2, #0
200000ce:	d0fc      	beq.n	200000ca <mutex_try_enter+0xa>
200000d0:	f3bf 8f5f 	dmb	sy
200000d4:	2204      	movs	r2, #4
200000d6:	569a      	ldrsb	r2, [r3, r2]
200000d8:	2a00      	cmp	r2, #0
200000da:	db0b      	blt.n	200000f4 <mutex_try_enter+0x34>
200000dc:	2900      	cmp	r1, #0
200000de:	d010      	beq.n	20000102 <mutex_try_enter+0x42>
200000e0:	600a      	str	r2, [r1, #0]
200000e2:	2000      	movs	r0, #0
200000e4:	681b      	ldr	r3, [r3, #0]
200000e6:	f3bf 8f5f 	dmb	sy
200000ea:	2200      	movs	r2, #0
200000ec:	601a      	str	r2, [r3, #0]
200000ee:	f38c 8810 	msr	PRIMASK, ip
200000f2:	4770      	bx	lr
200000f4:	22d0      	movs	r2, #208	; 0xd0
200000f6:	0612      	lsls	r2, r2, #24
200000f8:	7812      	ldrb	r2, [r2, #0]
200000fa:	b252      	sxtb	r2, r2
200000fc:	711a      	strb	r2, [r3, #4]
200000fe:	2001      	movs	r0, #1
20000100:	e7f0      	b.n	200000e4 <mutex_try_enter+0x24>
20000102:	2000      	movs	r0, #0
20000104:	e7ee      	b.n	200000e4 <mutex_try_enter+0x24>
	...

20000108 <mutex_enter_block_until>:
20000108:	b5f8      	push	{r3, r4, r5, r6, r7, lr}
2000010a:	46ce      	mov	lr, r9
2000010c:	4647      	mov	r7, r8
2000010e:	b580      	push	{r7, lr}
20000110:	0004      	movs	r4, r0
20000112:	0017      	movs	r7, r2
20000114:	4698      	mov	r8, r3
20000116:	6803      	ldr	r3, [r0, #0]
20000118:	2b00      	cmp	r3, #0
2000011a:	d020      	beq.n	2000015e <mutex_enter_block_until+0x56>
2000011c:	23d0      	movs	r3, #208	; 0xd0
2000011e:	061b      	lsls	r3, r3, #24
20000120:	781b      	ldrb	r3, [r3, #0]
20000122:	b25b      	sxtb	r3, r3
20000124:	4699      	mov	r9, r3
20000126:	6826      	ldr	r6, [r4, #0]
20000128:	f3ef 8c10 	mrs	ip, PRIMASK
2000012c:	b672      	cpsid	i
2000012e:	6835      	ldr	r5, [r6, #0]
20000130:	2d00      	cmp	r5, #0
20000132:	d0fc      	beq.n	2000012e <mutex_enter_block_until+0x26>
20000134:	f3bf 8f5f 	dmb	sy
20000138:	2504      	movs	r5, #4
2000013a:	5765      	ldrsb	r5, [r4, r5]
2000013c:	2d00      	cmp	r5, #0
2000013e:	db14      	blt.n	2000016a <mutex_enter_block_until+0x62>
20000140:	6823      	ldr	r3, [r4, #0]
20000142:	f3bf 8f5f 	dmb	sy
20000146:	2200      	movs	r2, #0
20000148:	601a      	str	r2, [r3, #0]
2000014a:	f38c 8810 	msr	PRIMASK, ip
2000014e:	0038      	movs	r0, r7
20000150:	4641      	mov	r1, r8
20000152:	f000 f861 	bl	20000218 <__best_effort_wfe_or_timeout_veneer>
20000156:	2800      	cmp	r0, #0
20000158:	d0e5      	beq.n	20000126 <mutex_enter_block_until+0x1e>
2000015a:	2000      	movs	r0, #0
2000015c:	e00f      	b.n	2000017e <mutex_enter_block_until+0x76>
2000015e:	4b0a      	ldr	r3, [pc, #40]	; (20000188 <mutex_enter_block_until+0x80>)
20000160:	4a0a      	ldr	r2, [pc, #40]	; (2000018c <mutex_enter_block_until+0x84>)
20000162:	2185      	movs	r1, #133	; 0x85
20000164:	480a      	ldr	r0, [pc, #40]	; (20000190 <mutex_enter_block_until+0x88>)
20000166:	f000 f85f 	bl	20000228 <____assert_func_veneer>
2000016a:	464b      	mov	r3, r9
2000016c:	7123      	strb	r3, [r4, #4]
2000016e:	6823      	ldr	r3, [r4, #0]
20000170:	f3bf 8f5f 	dmb	sy
20000174:	2200      	movs	r2, #0
20000176:	601a      	str	r2, [r3, #0]
20000178:	f38c 8810 	msr	PRIMASK, ip
2000017c:	2001      	movs	r0, #1
2000017e:	bcc0      	pop	{r6, r7}
20000180:	46b9      	mov	r9, r7
20000182:	46b0      	mov	r8, r6
20000184:	bdf8      	pop	{r3, r4, r5, r6, r7, pc}
20000186:	46c0      	nop			; (mov r8, r8)
20000188:	100076b8 	.word	0x100076b8
2000018c:	10007768 	.word	0x10007768
20000190:	10007688 	.word	0x10007688

20000194 <mutex_try_enter_block_until>:
20000194:	b570      	push	{r4, r5, r6, lr}
20000196:	b082      	sub	sp, #8
20000198:	0006      	movs	r6, r0
2000019a:	0015      	movs	r5, r2
2000019c:	001c      	movs	r4, r3
2000019e:	a901      	add	r1, sp, #4
200001a0:	f7ff ff8e 	bl	200000c0 <mutex_try_enter>
200001a4:	2800      	cmp	r0, #0
200001a6:	d107      	bne.n	200001b8 <mutex_try_enter_block_until+0x24>
200001a8:	9b01      	ldr	r3, [sp, #4]
200001aa:	b25b      	sxtb	r3, r3
200001ac:	22d0      	movs	r2, #208	; 0xd0
200001ae:	0612      	lsls	r2, r2, #24
200001b0:	7812      	ldrb	r2, [r2, #0]
200001b2:	b252      	sxtb	r2, r2
200001b4:	4293      	cmp	r3, r2
200001b6:	d101      	bne.n	200001bc <mutex_try_enter_block_until+0x28>
200001b8:	b002      	add	sp, #8
200001ba:	bd70      	pop	{r4, r5, r6, pc}
200001bc:	002a      	movs	r2, r5
200001be:	0023      	movs	r3, r4
200001c0:	0030      	movs	r0, r6
200001c2:	f7ff ffa1 	bl	20000108 <mutex_enter_block_until>
200001c6:	e7f7      	b.n	200001b8 <mutex_try_enter_block_until+0x24>

200001c8 <mutex_exit>:
200001c8:	b510      	push	{r4, lr}
200001ca:	6802      	ldr	r2, [r0, #0]
200001cc:	f3ef 8110 	mrs	r1, PRIMASK
200001d0:	b672      	cpsid	i
200001d2:	6813      	ldr	r3, [r2, #0]
200001d4:	2b00      	cmp	r3, #0
200001d6:	d0fc      	beq.n	200001d2 <mutex_exit+0xa>
200001d8:	f3bf 8f5f 	dmb	sy
200001dc:	2304      	movs	r3, #4
200001de:	56c3      	ldrsb	r3, [r0, r3]
200001e0:	2b00      	cmp	r3, #0
200001e2:	db0a      	blt.n	200001fa <mutex_exit+0x32>
200001e4:	23ff      	movs	r3, #255	; 0xff
200001e6:	7103      	strb	r3, [r0, #4]
200001e8:	6803      	ldr	r3, [r0, #0]
200001ea:	f3bf 8f5f 	dmb	sy
200001ee:	2200      	movs	r2, #0
200001f0:	601a      	str	r2, [r3, #0]
200001f2:	f381 8810 	msr	PRIMASK, r1
200001f6:	bf40      	sev
200001f8:	bd10      	pop	{r4, pc}
200001fa:	4b03      	ldr	r3, [pc, #12]	; (20000208 <mutex_exit+0x40>)
200001fc:	4a03      	ldr	r2, [pc, #12]	; (2000020c <mutex_exit+0x44>)
200001fe:	21b4      	movs	r1, #180	; 0xb4
20000200:	4803      	ldr	r0, [pc, #12]	; (20000210 <mutex_exit+0x48>)
20000202:	f000 f811 	bl	20000228 <____assert_func_veneer>
20000206:	46c0      	nop			; (mov r8, r8)
20000208:	10007724 	.word	0x10007724
2000020c:	1000775c 	.word	0x1000775c
20000210:	10007688 	.word	0x10007688

20000214 <__aeabi_idiv0>:
20000214:	4770      	bx	lr
20000216:	46c0      	nop			; (mov r8, r8)

20000218 <__best_effort_wfe_or_timeout_veneer>:
20000218:	b401      	push	{r0}
2000021a:	4802      	ldr	r0, [pc, #8]	; (20000224 <__best_effort_wfe_or_timeout_veneer+0xc>)
2000021c:	4684      	mov	ip, r0
2000021e:	bc01      	pop	{r0}
20000220:	4760      	bx	ip
20000222:	bf00      	nop
20000224:	10001431 	.word	0x10001431

20000228 <____assert_func_veneer>:
20000228:	b401      	push	{r0}
2000022a:	4802      	ldr	r0, [pc, #8]	; (20000234 <____assert_func_veneer+0xc>)
2000022c:	4684      	mov	ip, r0
2000022e:	bc01      	pop	{r0}
20000230:	4760      	bx	ip
20000232:	bf00      	nop
20000234:	10002079 	.word	0x10002079

20000238 <striped_spin_lock_num>:
20000238:	00000010                                ....

2000023c <irq_handler_chain_slots>:
2000023c:	00000000 	.word	0x00000000
20000240:	00010000 	.word	0x00010000
	...
2000024c:	00020000 	.word	0x00020000
	...
20000258:	00030000 	.word	0x00030000
	...
20000264:	00ff0000 	.word	0x00ff0000
20000268:	00000000 	.word	0x00000000

2000026c <irq_handler_chain_first_slot>:
2000026c:	b501      	push	{r0, lr}
2000026e:	6848      	ldr	r0, [r1, #4]
20000270:	3101      	adds	r1, #1
20000272:	468e      	mov	lr, r1
20000274:	4700      	bx	r0

20000276 <irq_handler_chain_remove_tail>:
20000276:	4670      	mov	r0, lr
20000278:	3809      	subs	r0, #9
2000027a:	4901      	ldr	r1, [pc, #4]	; (20000280 <irq_handler_chain_remove_tail+0xa>)
2000027c:	4788      	blx	r1
2000027e:	bd01      	pop	{r0, pc}
20000280:	10000831 	.word	0x10000831

20000284 <default_alarm_pool>:
20000284:	2000029c 00000000 20000b50 20000e74     ... ....P.. t.. 
	...

2000029c <default_alarm_pool_heap>:
2000029c:	20000e84 00000000 00000000 00000010     ... ............
200002ac:	00000000                                ....

200002b0 <aeabi_bits_funcs>:
200002b0:	00003350 	.word	0x00003350
200002b4:	0000334c 	.word	0x0000334c
200002b8:	00003354 	.word	0x00003354
200002bc:	00003352 	.word	0x00003352

200002c0 <aeabi_bits_funcs_end>:
200002c0:	0000534d 	.word	0x0000534d
200002c4:	0000434d 	.word	0x0000434d
200002c8:	00003453 	.word	0x00003453
200002cc:	00003443 	.word	0x00003443

200002d0 <stdio_uart>:
200002d0:	10004621 00000000 10004695 1000473d     !F.......F..=G..
200002e0:	00000000 00000100                       ........

200002e8 <uxTopUsedPriority>:
200002e8:	00000004                                ....

200002ec <uxCriticalNesting>:
200002ec:	aaaaaaaa                                ....

200002f0 <_impure_ptr>:
200002f0:	200002f8 00000000                       ... ....

200002f8 <impure_data>:
200002f8:	00000000 200005e4 2000064c 200006b4     ....... L.. ... 
	...
200003a0:	00000001 00000000 abcd330e e66d1234     .........3..4.m.
200003b0:	0005deec 0000000b 00000000 00000000     ................
	...

20000720 <__malloc_av_>:
	...
20000728:	20000720 20000720 20000728 20000728      ..  .. (.. (.. 
20000738:	20000730 20000730 20000738 20000738     0.. 0.. 8.. 8.. 
20000748:	20000740 20000740 20000748 20000748     @.. @.. H.. H.. 
20000758:	20000750 20000750 20000758 20000758     P.. P.. X.. X.. 
20000768:	20000760 20000760 20000768 20000768     `.. `.. h.. h.. 
20000778:	20000770 20000770 20000778 20000778     p.. p.. x.. x.. 
20000788:	20000780 20000780 20000788 20000788     ... ... ... ... 
20000798:	20000790 20000790 20000798 20000798     ... ... ... ... 
200007a8:	200007a0 200007a0 200007a8 200007a8     ... ... ... ... 
200007b8:	200007b0 200007b0 200007b8 200007b8     ... ... ... ... 
200007c8:	200007c0 200007c0 200007c8 200007c8     ... ... ... ... 
200007d8:	200007d0 200007d0 200007d8 200007d8     ... ... ... ... 
200007e8:	200007e0 200007e0 200007e8 200007e8     ... ... ... ... 
200007f8:	200007f0 200007f0 200007f8 200007f8     ... ... ... ... 
20000808:	20000800 20000800 20000808 20000808     ... ... ... ... 
20000818:	20000810 20000810 20000818 20000818     ... ... ... ... 
20000828:	20000820 20000820 20000828 20000828      ..  .. (.. (.. 
20000838:	20000830 20000830 20000838 20000838     0.. 0.. 8.. 8.. 
20000848:	20000840 20000840 20000848 20000848     @.. @.. H.. H.. 
20000858:	20000850 20000850 20000858 20000858     P.. P.. X.. X.. 
20000868:	20000860 20000860 20000868 20000868     `.. `.. h.. h.. 
20000878:	20000870 20000870 20000878 20000878     p.. p.. x.. x.. 
20000888:	20000880 20000880 20000888 20000888     ... ... ... ... 
20000898:	20000890 20000890 20000898 20000898     ... ... ... ... 
200008a8:	200008a0 200008a0 200008a8 200008a8     ... ... ... ... 
200008b8:	200008b0 200008b0 200008b8 200008b8     ... ... ... ... 
200008c8:	200008c0 200008c0 200008c8 200008c8     ... ... ... ... 
200008d8:	200008d0 200008d0 200008d8 200008d8     ... ... ... ... 
200008e8:	200008e0 200008e0 200008e8 200008e8     ... ... ... ... 
200008f8:	200008f0 200008f0 200008f8 200008f8     ... ... ... ... 
20000908:	20000900 20000900 20000908 20000908     ... ... ... ... 
20000918:	20000910 20000910 20000918 20000918     ... ... ... ... 
20000928:	20000920 20000920 20000928 20000928      ..  .. (.. (.. 
20000938:	20000930 20000930 20000938 20000938     0.. 0.. 8.. 8.. 
20000948:	20000940 20000940 20000948 20000948     @.. @.. H.. H.. 
20000958:	20000950 20000950 20000958 20000958     P.. P.. X.. X.. 
20000968:	20000960 20000960 20000968 20000968     `.. `.. h.. h.. 
20000978:	20000970 20000970 20000978 20000978     p.. p.. x.. x.. 
20000988:	20000980 20000980 20000988 20000988     ... ... ... ... 
20000998:	20000990 20000990 20000998 20000998     ... ... ... ... 
200009a8:	200009a0 200009a0 200009a8 200009a8     ... ... ... ... 
200009b8:	200009b0 200009b0 200009b8 200009b8     ... ... ... ... 
200009c8:	200009c0 200009c0 200009c8 200009c8     ... ... ... ... 
200009d8:	200009d0 200009d0 200009d8 200009d8     ... ... ... ... 
200009e8:	200009e0 200009e0 200009e8 200009e8     ... ... ... ... 
200009f8:	200009f0 200009f0 200009f8 200009f8     ... ... ... ... 
20000a08:	20000a00 20000a00 20000a08 20000a08     ... ... ... ... 
20000a18:	20000a10 20000a10 20000a18 20000a18     ... ... ... ... 
20000a28:	20000a20 20000a20 20000a28 20000a28      ..  .. (.. (.. 
20000a38:	20000a30 20000a30 20000a38 20000a38     0.. 0.. 8.. 8.. 
20000a48:	20000a40 20000a40 20000a48 20000a48     @.. @.. H.. H.. 
20000a58:	20000a50 20000a50 20000a58 20000a58     P.. P.. X.. X.. 
20000a68:	20000a60 20000a60 20000a68 20000a68     `.. `.. h.. h.. 
20000a78:	20000a70 20000a70 20000a78 20000a78     p.. p.. x.. x.. 
20000a88:	20000a80 20000a80 20000a88 20000a88     ... ... ... ... 
20000a98:	20000a90 20000a90 20000a98 20000a98     ... ... ... ... 
20000aa8:	20000aa0 20000aa0 20000aa8 20000aa8     ... ... ... ... 
20000ab8:	20000ab0 20000ab0 20000ab8 20000ab8     ... ... ... ... 
20000ac8:	20000ac0 20000ac0 20000ac8 20000ac8     ... ... ... ... 
20000ad8:	20000ad0 20000ad0 20000ad8 20000ad8     ... ... ... ... 
20000ae8:	20000ae0 20000ae0 20000ae8 20000ae8     ... ... ... ... 
20000af8:	20000af0 20000af0 20000af8 20000af8     ... ... ... ... 
20000b08:	20000b00 20000b00 20000b08 20000b08     ... ... ... ... 
20000b18:	20000b10 20000b10 20000b18 20000b18     ... ... ... ... 

20000b28 <__malloc_sbrk_base>:
20000b28:	ffffffff                                ....

20000b2c <__malloc_trim_threshold>:
20000b2c:	00020000                                ....

20000b30 <print_mutex>:
	...

20000b38 <__mutex_array_end>:
20000b38:	10004331 	.word	0x10004331
20000b3c:	1000331d 	.word	0x1000331d
20000b40:	10003a35 	.word	0x10003a35
20000b44:	100041a5 	.word	0x100041a5

20000b48 <__frame_dummy_init_array_entry>:
20000b48:	100002e5                                ....
