
C:/Pico/rp2040-freertos-project/build/ProjectFiles/rp2040-freertos-project.elf:     file format elf32-littlearm

Sections:
Idx Name          Size      VMA       LMA       File off  Algn
  0 .boot2        00000100  10000000  10000000  00001000  2**0
                  CONTENTS, ALLOC, LOAD, READONLY, CODE
  1 .text         00006f30  10000100  10000100  00001100  2**4
                  CONTENTS, ALLOC, LOAD, READONLY, CODE
  2 .rodata       00000efc  10007030  10007030  00008030  2**3
                  CONTENTS, ALLOC, LOAD, READONLY, DATA
  3 .binary_info  00000024  10007f2c  10007f2c  00008f2c  2**2
                  CONTENTS, ALLOC, LOAD, DATA
  4 .ram_vector_table 000000c0  20000000  20000000  00009b4c  2**2
                  CONTENTS
  5 .data         00000a8c  200000c0  10007f50  000090c0  2**4
                  CONTENTS, ALLOC, LOAD, READONLY, CODE
  6 .uninitialized_data 00000000  20000b4c  20000b4c  00009c0c  2**0
                  CONTENTS
  7 .scratch_x    00000000  20040000  20040000  00009c0c  2**0
                  CONTENTS
  8 .scratch_y    00000000  20041000  20041000  00009c0c  2**0
                  CONTENTS
  9 .bss          000005ac  20000b50  20000b50  00009b50  2**3
                  ALLOC
 10 .heap         00000800  200010fc  200010fc  00009c0c  2**2
                  CONTENTS, READONLY
 11 .stack_dummy  00000800  20041000  20041000  0000a420  2**5
                  CONTENTS, READONLY
 12 .ARM.attributes 00000028  00000000  00000000  0000ac20  2**0
                  CONTENTS, READONLY
 13 .comment      00000049  00000000  00000000  0000ac48  2**0
                  CONTENTS, READONLY
 14 .debug_info   0001b110  00000000  00000000  0000ac91  2**0
                  CONTENTS, READONLY, DEBUGGING, OCTETS
 15 .debug_abbrev 00004e0c  00000000  00000000  00025da1  2**0
                  CONTENTS, READONLY, DEBUGGING, OCTETS
 16 .debug_loc    000136dd  00000000  00000000  0002abad  2**0
                  CONTENTS, READONLY, DEBUGGING, OCTETS
 17 .debug_aranges 00000f38  00000000  00000000  0003e290  2**3
                  CONTENTS, READONLY, DEBUGGING, OCTETS
 18 .debug_ranges 00003620  00000000  00000000  0003f1c8  2**3
                  CONTENTS, READONLY, DEBUGGING, OCTETS
 19 .debug_line   00011996  00000000  00000000  000427e8  2**0
                  CONTENTS, READONLY, DEBUGGING, OCTETS
 20 .debug_str    00004f8f  00000000  00000000  0005417e  2**0
                  CONTENTS, READONLY, DEBUGGING, OCTETS
 21 .debug_frame  0000272c  00000000  00000000  00059110  2**2
                  CONTENTS, READONLY, DEBUGGING, OCTETS

C:/Pico/rp2040-freertos-project/build/ProjectFiles/rp2040-freertos-project.elf:     file format elf32-littlearm


Disassembly of section .boot2:

10000000 <__boot2_start__>:
10000000:	4b32b500 	.word	0x4b32b500
10000004:	60582021 	.word	0x60582021
10000008:	21026898 	.word	0x21026898
1000000c:	60984388 	.word	0x60984388
10000010:	611860d8 	.word	0x611860d8
10000014:	4b2e6158 	.word	0x4b2e6158
10000018:	60992100 	.word	0x60992100
1000001c:	61592102 	.word	0x61592102
10000020:	22f02101 	.word	0x22f02101
10000024:	492b5099 	.word	0x492b5099
10000028:	21016019 	.word	0x21016019
1000002c:	20356099 	.word	0x20356099
10000030:	f844f000 	.word	0xf844f000
10000034:	42902202 	.word	0x42902202
10000038:	2106d014 	.word	0x2106d014
1000003c:	f0006619 	.word	0xf0006619
10000040:	6e19f834 	.word	0x6e19f834
10000044:	66192101 	.word	0x66192101
10000048:	66182000 	.word	0x66182000
1000004c:	f000661a 	.word	0xf000661a
10000050:	6e19f82c 	.word	0x6e19f82c
10000054:	6e196e19 	.word	0x6e196e19
10000058:	f0002005 	.word	0xf0002005
1000005c:	2101f82f 	.word	0x2101f82f
10000060:	d1f94208 	.word	0xd1f94208
10000064:	60992100 	.word	0x60992100
10000068:	6019491b 	.word	0x6019491b
1000006c:	60592100 	.word	0x60592100
10000070:	481b491a 	.word	0x481b491a
10000074:	21016001 	.word	0x21016001
10000078:	21eb6099 	.word	0x21eb6099
1000007c:	21a06619 	.word	0x21a06619
10000080:	f0006619 	.word	0xf0006619
10000084:	2100f812 	.word	0x2100f812
10000088:	49166099 	.word	0x49166099
1000008c:	60014814 	.word	0x60014814
10000090:	60992101 	.word	0x60992101
10000094:	2800bc01 	.word	0x2800bc01
10000098:	4700d000 	.word	0x4700d000
1000009c:	49134812 	.word	0x49134812
100000a0:	c8036008 	.word	0xc8036008
100000a4:	8808f380 	.word	0x8808f380
100000a8:	b5034708 	.word	0xb5034708
100000ac:	20046a99 	.word	0x20046a99
100000b0:	d0fb4201 	.word	0xd0fb4201
100000b4:	42012001 	.word	0x42012001
100000b8:	bd03d1f8 	.word	0xbd03d1f8
100000bc:	6618b502 	.word	0x6618b502
100000c0:	f7ff6618 	.word	0xf7ff6618
100000c4:	6e18fff2 	.word	0x6e18fff2
100000c8:	bd026e18 	.word	0xbd026e18
100000cc:	40020000 	.word	0x40020000
100000d0:	18000000 	.word	0x18000000
100000d4:	00070000 	.word	0x00070000
100000d8:	005f0300 	.word	0x005f0300
100000dc:	00002221 	.word	0x00002221
100000e0:	180000f4 	.word	0x180000f4
100000e4:	a0002022 	.word	0xa0002022
100000e8:	10000100 	.word	0x10000100
100000ec:	e000ed08 	.word	0xe000ed08
	...
100000fc:	7a4eb274 	.word	0x7a4eb274

Disassembly of section .text:

10000100 <__VECTOR_TABLE>:
10000100:	20042000 	.word	0x20042000
10000104:	100001f7 	.word	0x100001f7
10000108:	100001c3 	.word	0x100001c3
1000010c:	100001c5 	.word	0x100001c5
10000110:	100001c1 	.word	0x100001c1
10000114:	100001c1 	.word	0x100001c1
10000118:	100001c1 	.word	0x100001c1
1000011c:	100001c1 	.word	0x100001c1
10000120:	100001c1 	.word	0x100001c1
10000124:	100001c1 	.word	0x100001c1
10000128:	100001c1 	.word	0x100001c1
1000012c:	10006585 	.word	0x10006585
10000130:	100001c1 	.word	0x100001c1
10000134:	100001c1 	.word	0x100001c1
10000138:	100065db 	.word	0x100065db
1000013c:	10006625 	.word	0x10006625
10000140:	100001cd 	.word	0x100001cd
10000144:	100001cd 	.word	0x100001cd
10000148:	100001cd 	.word	0x100001cd
1000014c:	100001cd 	.word	0x100001cd
10000150:	100001cd 	.word	0x100001cd
10000154:	100001cd 	.word	0x100001cd
10000158:	100001cd 	.word	0x100001cd
1000015c:	100001cd 	.word	0x100001cd
10000160:	100001cd 	.word	0x100001cd
10000164:	100001cd 	.word	0x100001cd
10000168:	100001cd 	.word	0x100001cd
1000016c:	100001cd 	.word	0x100001cd
10000170:	100001cd 	.word	0x100001cd
10000174:	100001cd 	.word	0x100001cd
10000178:	100001cd 	.word	0x100001cd
1000017c:	100001cd 	.word	0x100001cd
10000180:	100001cd 	.word	0x100001cd
10000184:	100001cd 	.word	0x100001cd
10000188:	100001cd 	.word	0x100001cd
1000018c:	100001cd 	.word	0x100001cd
10000190:	100001cd 	.word	0x100001cd
10000194:	100001cd 	.word	0x100001cd
10000198:	100001cd 	.word	0x100001cd
1000019c:	100001cd 	.word	0x100001cd
100001a0:	100001cd 	.word	0x100001cd
100001a4:	100001cd 	.word	0x100001cd
100001a8:	100001cd 	.word	0x100001cd
100001ac:	100001cd 	.word	0x100001cd
100001b0:	100001cd 	.word	0x100001cd
100001b4:	100001cd 	.word	0x100001cd
100001b8:	100001cd 	.word	0x100001cd
100001bc:	100001cd 	.word	0x100001cd

100001c0 <isr_invalid>:
100001c0:	be00      	bkpt	0x0000

100001c2 <isr_nmi>:
100001c2:	be00      	bkpt	0x0000

100001c4 <isr_hardfault>:
100001c4:	be00      	bkpt	0x0000
100001c6:	be00      	bkpt	0x0000
100001c8:	be00      	bkpt	0x0000
100001ca:	be00      	bkpt	0x0000

100001cc <__unhandled_user_irq>:
100001cc:	f3ef 8005 	mrs	r0, IPSR
100001d0:	3810      	subs	r0, #16

100001d2 <unhandled_user_irq_num_in_r0>:
100001d2:	be00      	bkpt	0x0000

100001d4 <binary_info_header>:
100001d4:	7188ebf2 	.word	0x7188ebf2
100001d8:	10007f2c 	.word	0x10007f2c
100001dc:	10007f50 	.word	0x10007f50
100001e0:	10000234 	.word	0x10000234
100001e4:	e71aa390 	.word	0xe71aa390

100001e8 <_entry_point>:
100001e8:	2000      	movs	r0, #0
100001ea:	491f      	ldr	r1, [pc, #124]	; (10000268 <hold_non_core0_in_bootrom+0xa>)
100001ec:	6008      	str	r0, [r1, #0]
100001ee:	c806      	ldmia	r0!, {r1, r2}
100001f0:	f381 8808 	msr	MSP, r1
100001f4:	4710      	bx	r2

100001f6 <_reset_handler>:
100001f6:	481d      	ldr	r0, [pc, #116]	; (1000026c <hold_non_core0_in_bootrom+0xe>)
100001f8:	6800      	ldr	r0, [r0, #0]
100001fa:	2800      	cmp	r0, #0
100001fc:	d12f      	bne.n	1000025e <hold_non_core0_in_bootrom>
100001fe:	a40d      	add	r4, pc, #52	; (adr r4, 10000234 <data_cpy_table>)
10000200:	cc0e      	ldmia	r4!, {r1, r2, r3}
10000202:	2900      	cmp	r1, #0
10000204:	d002      	beq.n	1000020c <_reset_handler+0x16>
10000206:	f000 f812 	bl	1000022e <data_cpy>
1000020a:	e7f9      	b.n	10000200 <_reset_handler+0xa>
1000020c:	4918      	ldr	r1, [pc, #96]	; (10000270 <hold_non_core0_in_bootrom+0x12>)
1000020e:	4a19      	ldr	r2, [pc, #100]	; (10000274 <hold_non_core0_in_bootrom+0x16>)
10000210:	2000      	movs	r0, #0
10000212:	e000      	b.n	10000216 <bss_fill_test>

10000214 <bss_fill_loop>:
10000214:	c101      	stmia	r1!, {r0}

10000216 <bss_fill_test>:
10000216:	4291      	cmp	r1, r2
10000218:	d1fc      	bne.n	10000214 <bss_fill_loop>

1000021a <platform_entry>:
1000021a:	4917      	ldr	r1, [pc, #92]	; (10000278 <hold_non_core0_in_bootrom+0x1a>)
1000021c:	4788      	blx	r1
1000021e:	4917      	ldr	r1, [pc, #92]	; (1000027c <hold_non_core0_in_bootrom+0x1e>)
10000220:	4788      	blx	r1
10000222:	4917      	ldr	r1, [pc, #92]	; (10000280 <hold_non_core0_in_bootrom+0x22>)
10000224:	4788      	blx	r1
10000226:	be00      	bkpt	0x0000
10000228:	e7fd      	b.n	10000226 <platform_entry+0xc>

1000022a <data_cpy_loop>:
1000022a:	c901      	ldmia	r1!, {r0}
1000022c:	c201      	stmia	r2!, {r0}

1000022e <data_cpy>:
1000022e:	429a      	cmp	r2, r3
10000230:	d3fb      	bcc.n	1000022a <data_cpy_loop>
10000232:	4770      	bx	lr

10000234 <data_cpy_table>:
10000234:	10007f50 	.word	0x10007f50
10000238:	200000c0 	.word	0x200000c0
1000023c:	20000b4c 	.word	0x20000b4c
10000240:	100089dc 	.word	0x100089dc
10000244:	20040000 	.word	0x20040000
10000248:	20040000 	.word	0x20040000
1000024c:	100089dc 	.word	0x100089dc
10000250:	20041000 	.word	0x20041000
10000254:	20041000 	.word	0x20041000
10000258:	00000000 	.word	0x00000000
1000025c:	4770      	bx	lr

1000025e <hold_non_core0_in_bootrom>:
1000025e:	4809      	ldr	r0, [pc, #36]	; (10000284 <hold_non_core0_in_bootrom+0x26>)
10000260:	f002 ff7c 	bl	1000315c <rom_func_lookup>
10000264:	4700      	bx	r0
10000266:	0000      	.short	0x0000
10000268:	e000ed08 	.word	0xe000ed08
1000026c:	d0000000 	.word	0xd0000000
10000270:	20000b50 	.word	0x20000b50
10000274:	200010fc 	.word	0x200010fc
10000278:	10001ee5 	.word	0x10001ee5
1000027c:	10000399 	.word	0x10000399
10000280:	10001ea1 	.word	0x10001ea1
10000284:	00005657 	.word	0x00005657

10000288 <__bi_50>:
10000288:	50520006 5360b3ab 10007e38              ..RP..`S8~..

10000294 <__bi_38>:
10000294:	50520006 02031c86 10007e48              ..RP....H~..

100002a0 <__bi_30>:
100002a0:	50520006 9da22254 10007e60              ..RPT"..`~..

100002ac <__bi_22>:
100002ac:	50520005 68f465de 100089dc              ..RP.e.h....

100002b8 <_init>:
100002b8:	b5f8      	push	{r3, r4, r5, r6, r7, lr}
100002ba:	46c0      	nop			; (mov r8, r8)

100002bc <__do_global_dtors_aux>:
100002bc:	b510      	push	{r4, lr}
100002be:	4c06      	ldr	r4, [pc, #24]	; (100002d8 <__do_global_dtors_aux+0x1c>)
100002c0:	7823      	ldrb	r3, [r4, #0]
100002c2:	2b00      	cmp	r3, #0
100002c4:	d107      	bne.n	100002d6 <__do_global_dtors_aux+0x1a>
100002c6:	4b05      	ldr	r3, [pc, #20]	; (100002dc <__do_global_dtors_aux+0x20>)
100002c8:	2b00      	cmp	r3, #0
100002ca:	d002      	beq.n	100002d2 <__do_global_dtors_aux+0x16>
100002cc:	4804      	ldr	r0, [pc, #16]	; (100002e0 <__do_global_dtors_aux+0x24>)
100002ce:	e000      	b.n	100002d2 <__do_global_dtors_aux+0x16>
100002d0:	bf00      	nop
100002d2:	2301      	movs	r3, #1
100002d4:	7023      	strb	r3, [r4, #0]
100002d6:	bd10      	pop	{r4, pc}
100002d8:	20000c50 	.word	0x20000c50
100002dc:	00000000 	.word	0x00000000
100002e0:	10007030 	.word	0x10007030

100002e4 <frame_dummy>:
100002e4:	4b04      	ldr	r3, [pc, #16]	; (100002f8 <frame_dummy+0x14>)
100002e6:	b510      	push	{r4, lr}
100002e8:	2b00      	cmp	r3, #0
100002ea:	d003      	beq.n	100002f4 <frame_dummy+0x10>
100002ec:	4903      	ldr	r1, [pc, #12]	; (100002fc <frame_dummy+0x18>)
100002ee:	4804      	ldr	r0, [pc, #16]	; (10000300 <frame_dummy+0x1c>)
100002f0:	e000      	b.n	100002f4 <frame_dummy+0x10>
100002f2:	bf00      	nop
100002f4:	bd10      	pop	{r4, pc}
100002f6:	46c0      	nop			; (mov r8, r8)
100002f8:	00000000 	.word	0x00000000
100002fc:	20000c54 	.word	0x20000c54
10000300:	10007030 	.word	0x10007030

10000304 <led_task>:
10000304:	b570      	push	{r4, r5, r6, lr}
10000306:	b082      	sub	sp, #8
10000308:	2300      	movs	r3, #0
1000030a:	9301      	str	r3, [sp, #4]
1000030c:	2019      	movs	r0, #25
1000030e:	f000 f887 	bl	10000420 <gpio_init>
10000312:	23d0      	movs	r3, #208	; 0xd0
10000314:	061b      	lsls	r3, r3, #24
10000316:	2280      	movs	r2, #128	; 0x80
10000318:	0492      	lsls	r2, r2, #18
1000031a:	625a      	str	r2, [r3, #36]	; 0x24
1000031c:	25d0      	movs	r5, #208	; 0xd0
1000031e:	062d      	lsls	r5, r5, #24
10000320:	2680      	movs	r6, #128	; 0x80
10000322:	04b6      	lsls	r6, r6, #18
10000324:	616e      	str	r6, [r5, #20]
10000326:	2301      	movs	r3, #1
10000328:	9301      	str	r3, [sp, #4]
1000032a:	4c0b      	ldr	r4, [pc, #44]	; (10000358 <led_task+0x54>)
1000032c:	2300      	movs	r3, #0
1000032e:	2200      	movs	r2, #0
10000330:	a901      	add	r1, sp, #4
10000332:	6820      	ldr	r0, [r4, #0]
10000334:	f004 fa13 	bl	1000475e <xQueueGenericSend>
10000338:	2064      	movs	r0, #100	; 0x64
1000033a:	f005 f9f7 	bl	1000572c <vTaskDelay>
1000033e:	61ae      	str	r6, [r5, #24]
10000340:	2300      	movs	r3, #0
10000342:	9301      	str	r3, [sp, #4]
10000344:	6820      	ldr	r0, [r4, #0]
10000346:	2200      	movs	r2, #0
10000348:	a901      	add	r1, sp, #4
1000034a:	f004 fa08 	bl	1000475e <xQueueGenericSend>
1000034e:	2064      	movs	r0, #100	; 0x64
10000350:	f005 f9ec 	bl	1000572c <vTaskDelay>
10000354:	e7e2      	b.n	1000031c <led_task+0x18>
10000356:	46c0      	nop			; (mov r8, r8)
10000358:	200010f4 	.word	0x200010f4

1000035c <usb_task>:
1000035c:	b500      	push	{lr}
1000035e:	b083      	sub	sp, #12
10000360:	2201      	movs	r2, #1
10000362:	4b0a      	ldr	r3, [pc, #40]	; (1000038c <usb_task+0x30>)
10000364:	6818      	ldr	r0, [r3, #0]
10000366:	4252      	negs	r2, r2
10000368:	a901      	add	r1, sp, #4
1000036a:	f004 faec 	bl	10004946 <xQueueReceive>
1000036e:	9b01      	ldr	r3, [sp, #4]
10000370:	2b01      	cmp	r3, #1
10000372:	d006      	beq.n	10000382 <usb_task+0x26>
10000374:	9b01      	ldr	r3, [sp, #4]
10000376:	2b00      	cmp	r3, #0
10000378:	d1f2      	bne.n	10000360 <usb_task+0x4>
1000037a:	4805      	ldr	r0, [pc, #20]	; (10000390 <usb_task+0x34>)
1000037c:	f003 ff62 	bl	10004244 <__wrap_puts>
10000380:	e7ee      	b.n	10000360 <usb_task+0x4>
10000382:	4804      	ldr	r0, [pc, #16]	; (10000394 <usb_task+0x38>)
10000384:	f003 ff5e 	bl	10004244 <__wrap_puts>
10000388:	e7f4      	b.n	10000374 <usb_task+0x18>
1000038a:	46c0      	nop			; (mov r8, r8)
1000038c:	200010f4 	.word	0x200010f4
10000390:	1000703c 	.word	0x1000703c
10000394:	10007030 	.word	0x10007030

10000398 <main>:
10000398:	b570      	push	{r4, r5, r6, lr}
1000039a:	b082      	sub	sp, #8
1000039c:	f003 ff8e 	bl	100042bc <stdio_init_all>
100003a0:	2200      	movs	r2, #0
100003a2:	2104      	movs	r1, #4
100003a4:	2001      	movs	r0, #1
100003a6:	f004 f99b 	bl	100046e0 <xQueueGenericCreate>
100003aa:	4b0c      	ldr	r3, [pc, #48]	; (100003dc <main+0x44>)
100003ac:	6018      	str	r0, [r3, #0]
100003ae:	2480      	movs	r4, #128	; 0x80
100003b0:	0064      	lsls	r4, r4, #1
100003b2:	2600      	movs	r6, #0
100003b4:	9601      	str	r6, [sp, #4]
100003b6:	2501      	movs	r5, #1
100003b8:	9500      	str	r5, [sp, #0]
100003ba:	2300      	movs	r3, #0
100003bc:	0022      	movs	r2, r4
100003be:	4908      	ldr	r1, [pc, #32]	; (100003e0 <main+0x48>)
100003c0:	4808      	ldr	r0, [pc, #32]	; (100003e4 <main+0x4c>)
100003c2:	f004 fe73 	bl	100050ac <xTaskCreate>
100003c6:	9601      	str	r6, [sp, #4]
100003c8:	9500      	str	r5, [sp, #0]
100003ca:	2300      	movs	r3, #0
100003cc:	0022      	movs	r2, r4
100003ce:	4906      	ldr	r1, [pc, #24]	; (100003e8 <main+0x50>)
100003d0:	4806      	ldr	r0, [pc, #24]	; (100003ec <main+0x54>)
100003d2:	f004 fe6b 	bl	100050ac <xTaskCreate>
100003d6:	f004 fff7 	bl	100053c8 <vTaskStartScheduler>
100003da:	e7fe      	b.n	100003da <main+0x42>
100003dc:	200010f4 	.word	0x200010f4
100003e0:	1000704c 	.word	0x1000704c
100003e4:	10000305 	.word	0x10000305
100003e8:	10007058 	.word	0x10007058
100003ec:	1000035d 	.word	0x1000035d

100003f0 <gpio_set_function>:
100003f0:	b510      	push	{r4, lr}
100003f2:	0083      	lsls	r3, r0, #2
100003f4:	4a08      	ldr	r2, [pc, #32]	; (10000418 <gpio_set_function+0x28>)
100003f6:	4694      	mov	ip, r2
100003f8:	4463      	add	r3, ip
100003fa:	681c      	ldr	r4, [r3, #0]
100003fc:	2240      	movs	r2, #64	; 0x40
100003fe:	4062      	eors	r2, r4
10000400:	24c0      	movs	r4, #192	; 0xc0
10000402:	4014      	ands	r4, r2
10000404:	2280      	movs	r2, #128	; 0x80
10000406:	0152      	lsls	r2, r2, #5
10000408:	4313      	orrs	r3, r2
1000040a:	601c      	str	r4, [r3, #0]
1000040c:	00c0      	lsls	r0, r0, #3
1000040e:	4b03      	ldr	r3, [pc, #12]	; (1000041c <gpio_set_function+0x2c>)
10000410:	469c      	mov	ip, r3
10000412:	4460      	add	r0, ip
10000414:	6041      	str	r1, [r0, #4]
10000416:	bd10      	pop	{r4, pc}
10000418:	4001c004 	.word	0x4001c004
1000041c:	40014000 	.word	0x40014000

10000420 <gpio_init>:
10000420:	b510      	push	{r4, lr}
10000422:	2301      	movs	r3, #1
10000424:	4083      	lsls	r3, r0
10000426:	22d0      	movs	r2, #208	; 0xd0
10000428:	0612      	lsls	r2, r2, #24
1000042a:	6293      	str	r3, [r2, #40]	; 0x28
1000042c:	6193      	str	r3, [r2, #24]
1000042e:	2105      	movs	r1, #5
10000430:	f7ff ffde 	bl	100003f0 <gpio_set_function>
10000434:	bd10      	pop	{r4, pc}
	...

10000438 <running_on_fpga>:
10000438:	4b03      	ldr	r3, [pc, #12]	; (10000448 <running_on_fpga+0x10>)
1000043a:	681b      	ldr	r3, [r3, #0]
1000043c:	2002      	movs	r0, #2
1000043e:	4018      	ands	r0, r3
10000440:	1e43      	subs	r3, r0, #1
10000442:	4198      	sbcs	r0, r3
10000444:	b2c0      	uxtb	r0, r0
10000446:	4770      	bx	lr
10000448:	4006c000 	.word	0x4006c000

1000044c <hw_claim_lock>:
1000044c:	f3ef 8010 	mrs	r0, PRIMASK
10000450:	b672      	cpsid	i
10000452:	4b03      	ldr	r3, [pc, #12]	; (10000460 <hw_claim_lock+0x14>)
10000454:	681b      	ldr	r3, [r3, #0]
10000456:	2b00      	cmp	r3, #0
10000458:	d0fb      	beq.n	10000452 <hw_claim_lock+0x6>
1000045a:	f3bf 8f5f 	dmb	sy
1000045e:	4770      	bx	lr
10000460:	d000012c 	.word	0xd000012c

10000464 <hw_claim_unlock>:
10000464:	f3bf 8f5f 	dmb	sy
10000468:	4b02      	ldr	r3, [pc, #8]	; (10000474 <hw_claim_unlock+0x10>)
1000046a:	2200      	movs	r2, #0
1000046c:	601a      	str	r2, [r3, #0]
1000046e:	f380 8810 	msr	PRIMASK, r0
10000472:	4770      	bx	lr
10000474:	d000012c 	.word	0xd000012c

10000478 <hw_claim_or_assert>:
10000478:	b5f8      	push	{r3, r4, r5, r6, r7, lr}
1000047a:	0006      	movs	r6, r0
1000047c:	000c      	movs	r4, r1
1000047e:	0015      	movs	r5, r2
10000480:	f7ff ffe4 	bl	1000044c <hw_claim_lock>
10000484:	08e3      	lsrs	r3, r4, #3
10000486:	18f7      	adds	r7, r6, r3
10000488:	5cf1      	ldrb	r1, [r6, r3]
1000048a:	2207      	movs	r2, #7
1000048c:	4022      	ands	r2, r4
1000048e:	2301      	movs	r3, #1
10000490:	4093      	lsls	r3, r2
10000492:	420b      	tst	r3, r1
10000494:	d105      	bne.n	100004a2 <hw_claim_or_assert+0x2a>
10000496:	b2db      	uxtb	r3, r3
10000498:	430b      	orrs	r3, r1
1000049a:	703b      	strb	r3, [r7, #0]
1000049c:	f7ff ffe2 	bl	10000464 <hw_claim_unlock>
100004a0:	bdf8      	pop	{r3, r4, r5, r6, r7, pc}
100004a2:	0021      	movs	r1, r4
100004a4:	0028      	movs	r0, r5
100004a6:	f001 fd99 	bl	10001fdc <panic>
	...

100004ac <spin_locks_reset>:
100004ac:	2300      	movs	r3, #0
100004ae:	e007      	b.n	100004c0 <spin_locks_reset+0x14>
100004b0:	4a05      	ldr	r2, [pc, #20]	; (100004c8 <spin_locks_reset+0x1c>)
100004b2:	189a      	adds	r2, r3, r2
100004b4:	0092      	lsls	r2, r2, #2
100004b6:	f3bf 8f5f 	dmb	sy
100004ba:	2100      	movs	r1, #0
100004bc:	6011      	str	r1, [r2, #0]
100004be:	3301      	adds	r3, #1
100004c0:	2b1f      	cmp	r3, #31
100004c2:	d9f5      	bls.n	100004b0 <spin_locks_reset+0x4>
100004c4:	4770      	bx	lr
100004c6:	46c0      	nop			; (mov r8, r8)
100004c8:	34000040 	.word	0x34000040

100004cc <next_striped_spin_lock_num>:
100004cc:	4a05      	ldr	r2, [pc, #20]	; (100004e4 <next_striped_spin_lock_num+0x18>)
100004ce:	7810      	ldrb	r0, [r2, #0]
100004d0:	1c43      	adds	r3, r0, #1
100004d2:	b2db      	uxtb	r3, r3
100004d4:	7013      	strb	r3, [r2, #0]
100004d6:	2b17      	cmp	r3, #23
100004d8:	d902      	bls.n	100004e0 <next_striped_spin_lock_num+0x14>
100004da:	0013      	movs	r3, r2
100004dc:	2210      	movs	r2, #16
100004de:	701a      	strb	r2, [r3, #0]
100004e0:	4770      	bx	lr
100004e2:	46c0      	nop			; (mov r8, r8)
100004e4:	20000238 	.word	0x20000238

100004e8 <set_raw_irq_handler_and_unlock>:
100004e8:	4b07      	ldr	r3, [pc, #28]	; (10000508 <set_raw_irq_handler_and_unlock+0x20>)
100004ea:	689b      	ldr	r3, [r3, #8]
100004ec:	3010      	adds	r0, #16
100004ee:	0080      	lsls	r0, r0, #2
100004f0:	5019      	str	r1, [r3, r0]
100004f2:	f3bf 8f5f 	dmb	sy
100004f6:	f3bf 8f5f 	dmb	sy
100004fa:	4b04      	ldr	r3, [pc, #16]	; (1000050c <set_raw_irq_handler_and_unlock+0x24>)
100004fc:	2100      	movs	r1, #0
100004fe:	6019      	str	r1, [r3, #0]
10000500:	f382 8810 	msr	PRIMASK, r2
10000504:	4770      	bx	lr
10000506:	46c0      	nop			; (mov r8, r8)
10000508:	e000ed00 	.word	0xe000ed00
1000050c:	d0000124 	.word	0xd0000124

10000510 <make_branch>:
10000510:	b510      	push	{r4, lr}
10000512:	1a09      	subs	r1, r1, r0
10000514:	1f08      	subs	r0, r1, #4
10000516:	4b0a      	ldr	r3, [pc, #40]	; (10000540 <make_branch+0x30>)
10000518:	469c      	mov	ip, r3
1000051a:	4461      	add	r1, ip
1000051c:	4a09      	ldr	r2, [pc, #36]	; (10000544 <make_branch+0x34>)
1000051e:	4291      	cmp	r1, r2
10000520:	d808      	bhi.n	10000534 <make_branch+0x24>
10000522:	07c3      	lsls	r3, r0, #31
10000524:	d406      	bmi.n	10000534 <make_branch+0x24>
10000526:	1040      	asrs	r0, r0, #1
10000528:	0540      	lsls	r0, r0, #21
1000052a:	0d40      	lsrs	r0, r0, #21
1000052c:	4b06      	ldr	r3, [pc, #24]	; (10000548 <make_branch+0x38>)
1000052e:	4318      	orrs	r0, r3
10000530:	b280      	uxth	r0, r0
10000532:	bd10      	pop	{r4, pc}
10000534:	4b05      	ldr	r3, [pc, #20]	; (1000054c <make_branch+0x3c>)
10000536:	4a06      	ldr	r2, [pc, #24]	; (10000550 <make_branch+0x40>)
10000538:	21a3      	movs	r1, #163	; 0xa3
1000053a:	4806      	ldr	r0, [pc, #24]	; (10000554 <make_branch+0x44>)
1000053c:	f001 fcb4 	bl	10001ea8 <__assert_func>
10000540:	000007fc 	.word	0x000007fc
10000544:	00000ffe 	.word	0x00000ffe
10000548:	ffffe000 	.word	0xffffe000
1000054c:	10007064 	.word	0x10007064
10000550:	100072ac 	.word	0x100072ac
10000554:	10007094 	.word	0x10007094

10000558 <insert_branch_and_link>:
10000558:	b510      	push	{r4, lr}
1000055a:	1a09      	subs	r1, r1, r0
1000055c:	3904      	subs	r1, #4
1000055e:	084c      	lsrs	r4, r1, #1
10000560:	0b09      	lsrs	r1, r1, #12
10000562:	d108      	bne.n	10000576 <insert_branch_and_link+0x1e>
10000564:	0549      	lsls	r1, r1, #21
10000566:	0d49      	lsrs	r1, r1, #21
10000568:	4a06      	ldr	r2, [pc, #24]	; (10000584 <insert_branch_and_link+0x2c>)
1000056a:	4311      	orrs	r1, r2
1000056c:	8001      	strh	r1, [r0, #0]
1000056e:	4b06      	ldr	r3, [pc, #24]	; (10000588 <insert_branch_and_link+0x30>)
10000570:	4323      	orrs	r3, r4
10000572:	8043      	strh	r3, [r0, #2]
10000574:	bd10      	pop	{r4, pc}
10000576:	4b05      	ldr	r3, [pc, #20]	; (1000058c <insert_branch_and_link+0x34>)
10000578:	4a05      	ldr	r2, [pc, #20]	; (10000590 <insert_branch_and_link+0x38>)
1000057a:	21ab      	movs	r1, #171	; 0xab
1000057c:	4805      	ldr	r0, [pc, #20]	; (10000594 <insert_branch_and_link+0x3c>)
1000057e:	f001 fc93 	bl	10001ea8 <__assert_func>
10000582:	46c0      	nop			; (mov r8, r8)
10000584:	fffff000 	.word	0xfffff000
10000588:	fffff800 	.word	0xfffff800
1000058c:	100070c8 	.word	0x100070c8
10000590:	10007280 	.word	0x10007280
10000594:	10007094 	.word	0x10007094

10000598 <irq_is_enabled>:
10000598:	2301      	movs	r3, #1
1000059a:	4083      	lsls	r3, r0
1000059c:	4a03      	ldr	r2, [pc, #12]	; (100005ac <irq_is_enabled+0x14>)
1000059e:	6810      	ldr	r0, [r2, #0]
100005a0:	4018      	ands	r0, r3
100005a2:	1e43      	subs	r3, r0, #1
100005a4:	4198      	sbcs	r0, r3
100005a6:	b2c0      	uxtb	r0, r0
100005a8:	4770      	bx	lr
100005aa:	46c0      	nop			; (mov r8, r8)
100005ac:	e000e100 	.word	0xe000e100

100005b0 <irq_set_mask_enabled>:
100005b0:	2900      	cmp	r1, #0
100005b2:	d004      	beq.n	100005be <irq_set_mask_enabled+0xe>
100005b4:	4b03      	ldr	r3, [pc, #12]	; (100005c4 <irq_set_mask_enabled+0x14>)
100005b6:	6018      	str	r0, [r3, #0]
100005b8:	4b03      	ldr	r3, [pc, #12]	; (100005c8 <irq_set_mask_enabled+0x18>)
100005ba:	6018      	str	r0, [r3, #0]
100005bc:	4770      	bx	lr
100005be:	4b03      	ldr	r3, [pc, #12]	; (100005cc <irq_set_mask_enabled+0x1c>)
100005c0:	6018      	str	r0, [r3, #0]
100005c2:	e7fb      	b.n	100005bc <irq_set_mask_enabled+0xc>
100005c4:	e000e280 	.word	0xe000e280
100005c8:	e000e100 	.word	0xe000e100
100005cc:	e000e180 	.word	0xe000e180

100005d0 <irq_set_enabled>:
100005d0:	b510      	push	{r4, lr}
100005d2:	2301      	movs	r3, #1
100005d4:	4083      	lsls	r3, r0
100005d6:	0018      	movs	r0, r3
100005d8:	f7ff ffea 	bl	100005b0 <irq_set_mask_enabled>
100005dc:	bd10      	pop	{r4, pc}
	...

100005e0 <irq_get_vtable_handler>:
100005e0:	4b02      	ldr	r3, [pc, #8]	; (100005ec <irq_get_vtable_handler+0xc>)
100005e2:	689b      	ldr	r3, [r3, #8]
100005e4:	3010      	adds	r0, #16
100005e6:	0080      	lsls	r0, r0, #2
100005e8:	58c0      	ldr	r0, [r0, r3]
100005ea:	4770      	bx	lr
100005ec:	e000ed00 	.word	0xe000ed00

100005f0 <irq_set_exclusive_handler>:
100005f0:	b570      	push	{r4, r5, r6, lr}
100005f2:	0004      	movs	r4, r0
100005f4:	000d      	movs	r5, r1
100005f6:	f3ef 8610 	mrs	r6, PRIMASK
100005fa:	b672      	cpsid	i
100005fc:	4b0c      	ldr	r3, [pc, #48]	; (10000630 <irq_set_exclusive_handler+0x40>)
100005fe:	681b      	ldr	r3, [r3, #0]
10000600:	2b00      	cmp	r3, #0
10000602:	d0fb      	beq.n	100005fc <irq_set_exclusive_handler+0xc>
10000604:	f3bf 8f5f 	dmb	sy
10000608:	0020      	movs	r0, r4
1000060a:	f7ff ffe9 	bl	100005e0 <irq_get_vtable_handler>
1000060e:	4b09      	ldr	r3, [pc, #36]	; (10000634 <irq_set_exclusive_handler+0x44>)
10000610:	4298      	cmp	r0, r3
10000612:	d001      	beq.n	10000618 <irq_set_exclusive_handler+0x28>
10000614:	42a8      	cmp	r0, r5
10000616:	d105      	bne.n	10000624 <irq_set_exclusive_handler+0x34>
10000618:	0032      	movs	r2, r6
1000061a:	0029      	movs	r1, r5
1000061c:	0020      	movs	r0, r4
1000061e:	f7ff ff63 	bl	100004e8 <set_raw_irq_handler_and_unlock>
10000622:	bd70      	pop	{r4, r5, r6, pc}
10000624:	4b04      	ldr	r3, [pc, #16]	; (10000638 <irq_set_exclusive_handler+0x48>)
10000626:	4a05      	ldr	r2, [pc, #20]	; (1000063c <irq_set_exclusive_handler+0x4c>)
10000628:	2186      	movs	r1, #134	; 0x86
1000062a:	4805      	ldr	r0, [pc, #20]	; (10000640 <irq_set_exclusive_handler+0x50>)
1000062c:	f001 fc3c 	bl	10001ea8 <__assert_func>
10000630:	d0000124 	.word	0xd0000124
10000634:	100001cd 	.word	0x100001cd
10000638:	100070d8 	.word	0x100070d8
1000063c:	100072c8 	.word	0x100072c8
10000640:	10007094 	.word	0x10007094

10000644 <irq_remove_handler>:
10000644:	b5f0      	push	{r4, r5, r6, r7, lr}
10000646:	46ce      	mov	lr, r9
10000648:	4647      	mov	r7, r8
1000064a:	b580      	push	{r7, lr}
1000064c:	b083      	sub	sp, #12
1000064e:	0006      	movs	r6, r0
10000650:	000d      	movs	r5, r1
10000652:	f3ef 8810 	mrs	r8, PRIMASK
10000656:	b672      	cpsid	i
10000658:	4b56      	ldr	r3, [pc, #344]	; (100007b4 <irq_remove_handler+0x170>)
1000065a:	681b      	ldr	r3, [r3, #0]
1000065c:	2b00      	cmp	r3, #0
1000065e:	d0fb      	beq.n	10000658 <irq_remove_handler+0x14>
10000660:	f3bf 8f5f 	dmb	sy
10000664:	4b54      	ldr	r3, [pc, #336]	; (100007b8 <irq_remove_handler+0x174>)
10000666:	689a      	ldr	r2, [r3, #8]
10000668:	0034      	movs	r4, r6
1000066a:	3410      	adds	r4, #16
1000066c:	00a3      	lsls	r3, r4, #2
1000066e:	58d7      	ldr	r7, [r2, r3]
10000670:	4b52      	ldr	r3, [pc, #328]	; (100007bc <irq_remove_handler+0x178>)
10000672:	429f      	cmp	r7, r3
10000674:	d007      	beq.n	10000686 <irq_remove_handler+0x42>
10000676:	42af      	cmp	r7, r5
10000678:	d100      	bne.n	1000067c <irq_remove_handler+0x38>
1000067a:	e098      	b.n	100007ae <irq_remove_handler+0x16a>
1000067c:	9701      	str	r7, [sp, #4]
1000067e:	4b50      	ldr	r3, [pc, #320]	; (100007c0 <irq_remove_handler+0x17c>)
10000680:	1afb      	subs	r3, r7, r3
10000682:	2b2f      	cmp	r3, #47	; 0x2f
10000684:	d909      	bls.n	1000069a <irq_remove_handler+0x56>
10000686:	4642      	mov	r2, r8
10000688:	0039      	movs	r1, r7
1000068a:	0030      	movs	r0, r6
1000068c:	f7ff ff2c 	bl	100004e8 <set_raw_irq_handler_and_unlock>
10000690:	b003      	add	sp, #12
10000692:	bcc0      	pop	{r6, r7}
10000694:	46b9      	mov	r9, r7
10000696:	46b0      	mov	r8, r6
10000698:	bdf0      	pop	{r4, r5, r6, r7, pc}
1000069a:	0030      	movs	r0, r6
1000069c:	f7ff ff7c 	bl	10000598 <irq_is_enabled>
100006a0:	4681      	mov	r9, r0
100006a2:	2100      	movs	r1, #0
100006a4:	0030      	movs	r0, r6
100006a6:	f7ff ff93 	bl	100005d0 <irq_set_enabled>
100006aa:	f3bf 8f5f 	dmb	sy
100006ae:	f3ef 8105 	mrs	r1, IPSR
100006b2:	2900      	cmp	r1, #0
100006b4:	d001      	beq.n	100006ba <irq_remove_handler+0x76>
100006b6:	428c      	cmp	r4, r1
100006b8:	d111      	bne.n	100006de <irq_remove_handler+0x9a>
100006ba:	2301      	movs	r3, #1
100006bc:	9c01      	ldr	r4, [sp, #4]
100006be:	439c      	bics	r4, r3
100006c0:	2200      	movs	r2, #0
100006c2:	68a3      	ldr	r3, [r4, #8]
100006c4:	42ab      	cmp	r3, r5
100006c6:	d012      	beq.n	100006ee <irq_remove_handler+0xaa>
100006c8:	2206      	movs	r2, #6
100006ca:	56a2      	ldrsb	r2, [r4, r2]
100006cc:	2a00      	cmp	r2, #0
100006ce:	db0d      	blt.n	100006ec <irq_remove_handler+0xa8>
100006d0:	0053      	lsls	r3, r2, #1
100006d2:	189b      	adds	r3, r3, r2
100006d4:	009b      	lsls	r3, r3, #2
100006d6:	0022      	movs	r2, r4
100006d8:	4c39      	ldr	r4, [pc, #228]	; (100007c0 <irq_remove_handler+0x17c>)
100006da:	18e4      	adds	r4, r4, r3
100006dc:	e7f1      	b.n	100006c2 <irq_remove_handler+0x7e>
100006de:	2136      	movs	r1, #54	; 0x36
100006e0:	4b38      	ldr	r3, [pc, #224]	; (100007c4 <irq_remove_handler+0x180>)
100006e2:	4a39      	ldr	r2, [pc, #228]	; (100007c8 <irq_remove_handler+0x184>)
100006e4:	31ff      	adds	r1, #255	; 0xff
100006e6:	4839      	ldr	r0, [pc, #228]	; (100007cc <irq_remove_handler+0x188>)
100006e8:	f001 fbde 	bl	10001ea8 <__assert_func>
100006ec:	0022      	movs	r2, r4
100006ee:	42ab      	cmp	r3, r5
100006f0:	d156      	bne.n	100007a0 <irq_remove_handler+0x15c>
100006f2:	2506      	movs	r5, #6
100006f4:	5765      	ldrsb	r5, [r4, r5]
100006f6:	2d00      	cmp	r5, #0
100006f8:	db38      	blt.n	1000076c <irq_remove_handler+0x128>
100006fa:	006b      	lsls	r3, r5, #1
100006fc:	195b      	adds	r3, r3, r5
100006fe:	009a      	lsls	r2, r3, #2
10000700:	4b2f      	ldr	r3, [pc, #188]	; (100007c0 <irq_remove_handler+0x17c>)
10000702:	189b      	adds	r3, r3, r2
10000704:	689a      	ldr	r2, [r3, #8]
10000706:	60a2      	str	r2, [r4, #8]
10000708:	79da      	ldrb	r2, [r3, #7]
1000070a:	71e2      	strb	r2, [r4, #7]
1000070c:	2206      	movs	r2, #6
1000070e:	569a      	ldrsb	r2, [r3, r2]
10000710:	71a2      	strb	r2, [r4, #6]
10000712:	799b      	ldrb	r3, [r3, #6]
10000714:	b25b      	sxtb	r3, r3
10000716:	2b00      	cmp	r3, #0
10000718:	da0f      	bge.n	1000073a <irq_remove_handler+0xf6>
1000071a:	482d      	ldr	r0, [pc, #180]	; (100007d0 <irq_remove_handler+0x18c>)
1000071c:	80a0      	strh	r0, [r4, #4]
1000071e:	006b      	lsls	r3, r5, #1
10000720:	195b      	adds	r3, r3, r5
10000722:	009b      	lsls	r3, r3, #2
10000724:	4a26      	ldr	r2, [pc, #152]	; (100007c0 <irq_remove_handler+0x17c>)
10000726:	18d3      	adds	r3, r2, r3
10000728:	4a2a      	ldr	r2, [pc, #168]	; (100007d4 <irq_remove_handler+0x190>)
1000072a:	7811      	ldrb	r1, [r2, #0]
1000072c:	7199      	strb	r1, [r3, #6]
1000072e:	7015      	strb	r5, [r2, #0]
10000730:	4649      	mov	r1, r9
10000732:	0030      	movs	r0, r6
10000734:	f7ff ff4c 	bl	100005d0 <irq_set_enabled>
10000738:	e7a5      	b.n	10000686 <irq_remove_handler+0x42>
1000073a:	1d20      	adds	r0, r4, #4
1000073c:	006b      	lsls	r3, r5, #1
1000073e:	195b      	adds	r3, r3, r5
10000740:	009b      	lsls	r3, r3, #2
10000742:	4a1f      	ldr	r2, [pc, #124]	; (100007c0 <irq_remove_handler+0x17c>)
10000744:	189b      	adds	r3, r3, r2
10000746:	1d1a      	adds	r2, r3, #4
10000748:	889b      	ldrh	r3, [r3, #4]
1000074a:	0ad9      	lsrs	r1, r3, #11
1000074c:	291c      	cmp	r1, #28
1000074e:	d107      	bne.n	10000760 <irq_remove_handler+0x11c>
10000750:	055b      	lsls	r3, r3, #21
10000752:	155b      	asrs	r3, r3, #21
10000754:	3302      	adds	r3, #2
10000756:	0059      	lsls	r1, r3, #1
10000758:	1851      	adds	r1, r2, r1
1000075a:	f7ff fed9 	bl	10000510 <make_branch>
1000075e:	e7dd      	b.n	1000071c <irq_remove_handler+0xd8>
10000760:	4b1d      	ldr	r3, [pc, #116]	; (100007d8 <irq_remove_handler+0x194>)
10000762:	4a1e      	ldr	r2, [pc, #120]	; (100007dc <irq_remove_handler+0x198>)
10000764:	21b1      	movs	r1, #177	; 0xb1
10000766:	4819      	ldr	r0, [pc, #100]	; (100007cc <irq_remove_handler+0x188>)
10000768:	f001 fb9e 	bl	10001ea8 <__assert_func>
1000076c:	2900      	cmp	r1, #0
1000076e:	d112      	bne.n	10000796 <irq_remove_handler+0x152>
10000770:	2a00      	cmp	r2, #0
10000772:	d00e      	beq.n	10000792 <irq_remove_handler+0x14e>
10000774:	23ff      	movs	r3, #255	; 0xff
10000776:	7193      	strb	r3, [r2, #6]
10000778:	4b19      	ldr	r3, [pc, #100]	; (100007e0 <irq_remove_handler+0x19c>)
1000077a:	8093      	strh	r3, [r2, #4]
1000077c:	4a15      	ldr	r2, [pc, #84]	; (100007d4 <irq_remove_handler+0x190>)
1000077e:	7813      	ldrb	r3, [r2, #0]
10000780:	71a3      	strb	r3, [r4, #6]
10000782:	4b18      	ldr	r3, [pc, #96]	; (100007e4 <irq_remove_handler+0x1a0>)
10000784:	490e      	ldr	r1, [pc, #56]	; (100007c0 <irq_remove_handler+0x17c>)
10000786:	1a64      	subs	r4, r4, r1
10000788:	4164      	adcs	r4, r4
1000078a:	4363      	muls	r3, r4
1000078c:	0d1b      	lsrs	r3, r3, #20
1000078e:	7013      	strb	r3, [r2, #0]
10000790:	e7ce      	b.n	10000730 <irq_remove_handler+0xec>
10000792:	4f0a      	ldr	r7, [pc, #40]	; (100007bc <irq_remove_handler+0x178>)
10000794:	e7f2      	b.n	1000077c <irq_remove_handler+0x138>
10000796:	1d20      	adds	r0, r4, #4
10000798:	4913      	ldr	r1, [pc, #76]	; (100007e8 <irq_remove_handler+0x1a4>)
1000079a:	f7ff fedd 	bl	10000558 <insert_branch_and_link>
1000079e:	e7c7      	b.n	10000730 <irq_remove_handler+0xec>
100007a0:	216a      	movs	r1, #106	; 0x6a
100007a2:	4b12      	ldr	r3, [pc, #72]	; (100007ec <irq_remove_handler+0x1a8>)
100007a4:	4a08      	ldr	r2, [pc, #32]	; (100007c8 <irq_remove_handler+0x184>)
100007a6:	31ff      	adds	r1, #255	; 0xff
100007a8:	4808      	ldr	r0, [pc, #32]	; (100007cc <irq_remove_handler+0x188>)
100007aa:	f001 fb7d 	bl	10001ea8 <__assert_func>
100007ae:	4f03      	ldr	r7, [pc, #12]	; (100007bc <irq_remove_handler+0x178>)
100007b0:	e769      	b.n	10000686 <irq_remove_handler+0x42>
100007b2:	46c0      	nop			; (mov r8, r8)
100007b4:	d0000124 	.word	0xd0000124
100007b8:	e000ed00 	.word	0xe000ed00
100007bc:	100001cd 	.word	0x100001cd
100007c0:	2000023c 	.word	0x2000023c
100007c4:	100071ec 	.word	0x100071ec
100007c8:	10007298 	.word	0x10007298
100007cc:	10007094 	.word	0x10007094
100007d0:	0000bd01 	.word	0x0000bd01
100007d4:	200010f9 	.word	0x200010f9
100007d8:	100071d4 	.word	0x100071d4
100007dc:	100072b8 	.word	0x100072b8
100007e0:	ffffbd01 	.word	0xffffbd01
100007e4:	0000aaaa 	.word	0x0000aaaa
100007e8:	20000276 	.word	0x20000276
100007ec:	10007220 	.word	0x10007220

100007f0 <irq_add_tail_to_free_list>:
100007f0:	b570      	push	{r4, r5, r6, lr}
100007f2:	2101      	movs	r1, #1
100007f4:	4301      	orrs	r1, r0
100007f6:	4b2e      	ldr	r3, [pc, #184]	; (100008b0 <irq_add_tail_to_free_list+0xc0>)
100007f8:	1acb      	subs	r3, r1, r3
100007fa:	2b2f      	cmp	r3, #47	; 0x2f
100007fc:	d828      	bhi.n	10000850 <irq_add_tail_to_free_list+0x60>
100007fe:	f3ef 8305 	mrs	r3, IPSR
10000802:	2b00      	cmp	r3, #0
10000804:	d02b      	beq.n	1000085e <irq_add_tail_to_free_list+0x6e>
10000806:	f3ef 8c10 	mrs	ip, PRIMASK
1000080a:	b672      	cpsid	i
1000080c:	4a29      	ldr	r2, [pc, #164]	; (100008b4 <irq_add_tail_to_free_list+0xc4>)
1000080e:	6812      	ldr	r2, [r2, #0]
10000810:	2a00      	cmp	r2, #0
10000812:	d0fb      	beq.n	1000080c <irq_add_tail_to_free_list+0x1c>
10000814:	f3bf 8f5f 	dmb	sy
10000818:	4a27      	ldr	r2, [pc, #156]	; (100008b8 <irq_add_tail_to_free_list+0xc8>)
1000081a:	0004      	movs	r4, r0
1000081c:	4d24      	ldr	r5, [pc, #144]	; (100008b0 <irq_add_tail_to_free_list+0xc0>)
1000081e:	1b64      	subs	r4, r4, r5
10000820:	4164      	adcs	r4, r4
10000822:	4362      	muls	r2, r4
10000824:	0d12      	lsrs	r2, r2, #20
10000826:	b254      	sxtb	r4, r2
10000828:	4a24      	ldr	r2, [pc, #144]	; (100008bc <irq_add_tail_to_free_list+0xcc>)
1000082a:	6892      	ldr	r2, [r2, #8]
1000082c:	009b      	lsls	r3, r3, #2
1000082e:	58d2      	ldr	r2, [r2, r3]
10000830:	428a      	cmp	r2, r1
10000832:	d01b      	beq.n	1000086c <irq_add_tail_to_free_list+0x7c>
10000834:	2200      	movs	r2, #0
10000836:	2a03      	cmp	r2, #3
10000838:	d832      	bhi.n	100008a0 <irq_add_tail_to_free_list+0xb0>
1000083a:	0053      	lsls	r3, r2, #1
1000083c:	189b      	adds	r3, r3, r2
1000083e:	009b      	lsls	r3, r3, #2
10000840:	491b      	ldr	r1, [pc, #108]	; (100008b0 <irq_add_tail_to_free_list+0xc0>)
10000842:	18cb      	adds	r3, r1, r3
10000844:	799b      	ldrb	r3, [r3, #6]
10000846:	b25b      	sxtb	r3, r3
10000848:	42a3      	cmp	r3, r4
1000084a:	d01f      	beq.n	1000088c <irq_add_tail_to_free_list+0x9c>
1000084c:	3201      	adds	r2, #1
1000084e:	e7f2      	b.n	10000836 <irq_add_tail_to_free_list+0x46>
10000850:	21c7      	movs	r1, #199	; 0xc7
10000852:	4b1b      	ldr	r3, [pc, #108]	; (100008c0 <irq_add_tail_to_free_list+0xd0>)
10000854:	4a1b      	ldr	r2, [pc, #108]	; (100008c4 <irq_add_tail_to_free_list+0xd4>)
10000856:	0049      	lsls	r1, r1, #1
10000858:	481b      	ldr	r0, [pc, #108]	; (100008c8 <irq_add_tail_to_free_list+0xd8>)
1000085a:	f001 fb25 	bl	10001ea8 <__assert_func>
1000085e:	2192      	movs	r1, #146	; 0x92
10000860:	4b1a      	ldr	r3, [pc, #104]	; (100008cc <irq_add_tail_to_free_list+0xdc>)
10000862:	4a18      	ldr	r2, [pc, #96]	; (100008c4 <irq_add_tail_to_free_list+0xd4>)
10000864:	31ff      	adds	r1, #255	; 0xff
10000866:	4818      	ldr	r0, [pc, #96]	; (100008c8 <irq_add_tail_to_free_list+0xd8>)
10000868:	f001 fb1e 	bl	10001ea8 <__assert_func>
1000086c:	4a13      	ldr	r2, [pc, #76]	; (100008bc <irq_add_tail_to_free_list+0xcc>)
1000086e:	6892      	ldr	r2, [r2, #8]
10000870:	4917      	ldr	r1, [pc, #92]	; (100008d0 <irq_add_tail_to_free_list+0xe0>)
10000872:	50d1      	str	r1, [r2, r3]
10000874:	4b17      	ldr	r3, [pc, #92]	; (100008d4 <irq_add_tail_to_free_list+0xe4>)
10000876:	781a      	ldrb	r2, [r3, #0]
10000878:	7182      	strb	r2, [r0, #6]
1000087a:	701c      	strb	r4, [r3, #0]
1000087c:	f3bf 8f5f 	dmb	sy
10000880:	4b0c      	ldr	r3, [pc, #48]	; (100008b4 <irq_add_tail_to_free_list+0xc4>)
10000882:	2200      	movs	r2, #0
10000884:	601a      	str	r2, [r3, #0]
10000886:	f38c 8810 	msr	PRIMASK, ip
1000088a:	bd70      	pop	{r4, r5, r6, pc}
1000088c:	000d      	movs	r5, r1
1000088e:	0053      	lsls	r3, r2, #1
10000890:	1899      	adds	r1, r3, r2
10000892:	0089      	lsls	r1, r1, #2
10000894:	1869      	adds	r1, r5, r1
10000896:	26ff      	movs	r6, #255	; 0xff
10000898:	718e      	strb	r6, [r1, #6]
1000089a:	4a0f      	ldr	r2, [pc, #60]	; (100008d8 <irq_add_tail_to_free_list+0xe8>)
1000089c:	808a      	strh	r2, [r1, #4]
1000089e:	e7e9      	b.n	10000874 <irq_add_tail_to_free_list+0x84>
100008a0:	21d1      	movs	r1, #209	; 0xd1
100008a2:	4b0e      	ldr	r3, [pc, #56]	; (100008dc <irq_add_tail_to_free_list+0xec>)
100008a4:	4a07      	ldr	r2, [pc, #28]	; (100008c4 <irq_add_tail_to_free_list+0xd4>)
100008a6:	0049      	lsls	r1, r1, #1
100008a8:	4807      	ldr	r0, [pc, #28]	; (100008c8 <irq_add_tail_to_free_list+0xd8>)
100008aa:	f001 fafd 	bl	10001ea8 <__assert_func>
100008ae:	46c0      	nop			; (mov r8, r8)
100008b0:	2000023c 	.word	0x2000023c
100008b4:	d0000124 	.word	0xd0000124
100008b8:	0000aaaa 	.word	0x0000aaaa
100008bc:	e000ed00 	.word	0xe000ed00
100008c0:	10007228 	.word	0x10007228
100008c4:	10007264 	.word	0x10007264
100008c8:	10007094 	.word	0x10007094
100008cc:	10007250 	.word	0x10007250
100008d0:	100001cd 	.word	0x100001cd
100008d4:	200010f9 	.word	0x200010f9
100008d8:	ffffbd01 	.word	0xffffbd01
100008dc:	1000725c 	.word	0x1000725c

100008e0 <irq_init_priorities>:
100008e0:	2200      	movs	r2, #0
100008e2:	4b04      	ldr	r3, [pc, #16]	; (100008f4 <irq_init_priorities+0x14>)
100008e4:	e002      	b.n	100008ec <irq_init_priorities+0xc>
100008e6:	4904      	ldr	r1, [pc, #16]	; (100008f8 <irq_init_priorities+0x18>)
100008e8:	c302      	stmia	r3!, {r1}
100008ea:	3201      	adds	r2, #1
100008ec:	2a07      	cmp	r2, #7
100008ee:	d9fa      	bls.n	100008e6 <irq_init_priorities+0x6>
100008f0:	4770      	bx	lr
100008f2:	46c0      	nop			; (mov r8, r8)
100008f4:	e000e400 	.word	0xe000e400
100008f8:	80808080 	.word	0x80808080

100008fc <lock_init>:
100008fc:	4b02      	ldr	r3, [pc, #8]	; (10000908 <lock_init+0xc>)
100008fe:	469c      	mov	ip, r3
10000900:	4461      	add	r1, ip
10000902:	0089      	lsls	r1, r1, #2
10000904:	6001      	str	r1, [r0, #0]
10000906:	4770      	bx	lr
10000908:	34000040 	.word	0x34000040

1000090c <mutex_init>:
1000090c:	b510      	push	{r4, lr}
1000090e:	0004      	movs	r4, r0
10000910:	f7ff fddc 	bl	100004cc <next_striped_spin_lock_num>
10000914:	0001      	movs	r1, r0
10000916:	0020      	movs	r0, r4
10000918:	f7ff fff0 	bl	100008fc <lock_init>
1000091c:	23ff      	movs	r3, #255	; 0xff
1000091e:	7123      	strb	r3, [r4, #4]
10000920:	f3bf 8f5f 	dmb	sy
10000924:	bd10      	pop	{r4, pc}

10000926 <recursive_mutex_init>:
10000926:	b510      	push	{r4, lr}
10000928:	0004      	movs	r4, r0
1000092a:	f7ff fdcf 	bl	100004cc <next_striped_spin_lock_num>
1000092e:	0001      	movs	r1, r0
10000930:	0020      	movs	r0, r4
10000932:	f7ff ffe3 	bl	100008fc <lock_init>
10000936:	23ff      	movs	r3, #255	; 0xff
10000938:	7123      	strb	r3, [r4, #4]
1000093a:	2300      	movs	r3, #0
1000093c:	7163      	strb	r3, [r4, #5]
1000093e:	f3bf 8f5f 	dmb	sy
10000942:	bd10      	pop	{r4, pc}

10000944 <alarm_pool_post_alloc_init>:
10000944:	b570      	push	{r4, r5, r6, lr}
10000946:	0005      	movs	r5, r0
10000948:	000c      	movs	r4, r1
1000094a:	0008      	movs	r0, r1
1000094c:	f000 fe0e 	bl	1000156c <hardware_alarm_cancel>
10000950:	4909      	ldr	r1, [pc, #36]	; (10000978 <alarm_pool_post_alloc_init+0x34>)
10000952:	0020      	movs	r0, r4
10000954:	f000 fd4e 	bl	100013f4 <hardware_alarm_set_callback>
10000958:	f7ff fdb8 	bl	100004cc <next_striped_spin_lock_num>
1000095c:	4b07      	ldr	r3, [pc, #28]	; (1000097c <alarm_pool_post_alloc_init+0x38>)
1000095e:	469c      	mov	ip, r3
10000960:	4460      	add	r0, ip
10000962:	0080      	lsls	r0, r0, #2
10000964:	6068      	str	r0, [r5, #4]
10000966:	752c      	strb	r4, [r5, #20]
10000968:	23d0      	movs	r3, #208	; 0xd0
1000096a:	061b      	lsls	r3, r3, #24
1000096c:	781b      	ldrb	r3, [r3, #0]
1000096e:	756b      	strb	r3, [r5, #21]
10000970:	00a4      	lsls	r4, r4, #2
10000972:	4b03      	ldr	r3, [pc, #12]	; (10000980 <alarm_pool_post_alloc_init+0x3c>)
10000974:	50e5      	str	r5, [r4, r3]
10000976:	bd70      	pop	{r4, r5, r6, pc}
10000978:	10000c89 	.word	0x10000c89
1000097c:	34000040 	.word	0x34000040
10000980:	20000ec4 	.word	0x20000ec4

10000984 <sleep_until_callback>:
10000984:	4b0a      	ldr	r3, [pc, #40]	; (100009b0 <sleep_until_callback+0x2c>)
10000986:	681a      	ldr	r2, [r3, #0]
10000988:	f3ef 8110 	mrs	r1, PRIMASK
1000098c:	b672      	cpsid	i
1000098e:	6813      	ldr	r3, [r2, #0]
10000990:	2b00      	cmp	r3, #0
10000992:	d0fc      	beq.n	1000098e <sleep_until_callback+0xa>
10000994:	f3bf 8f5f 	dmb	sy
10000998:	4b05      	ldr	r3, [pc, #20]	; (100009b0 <sleep_until_callback+0x2c>)
1000099a:	681b      	ldr	r3, [r3, #0]
1000099c:	f3bf 8f5f 	dmb	sy
100009a0:	2200      	movs	r2, #0
100009a2:	601a      	str	r2, [r3, #0]
100009a4:	f381 8810 	msr	PRIMASK, r1
100009a8:	bf40      	sev
100009aa:	2000      	movs	r0, #0
100009ac:	2100      	movs	r1, #0
100009ae:	4770      	bx	lr
100009b0:	200010d8 	.word	0x200010d8

100009b4 <timer_pool_entry_comparator>:
100009b4:	b510      	push	{r4, lr}
100009b6:	2900      	cmp	r1, #0
100009b8:	d022      	beq.n	10000a00 <timer_pool_entry_comparator+0x4c>
100009ba:	6803      	ldr	r3, [r0, #0]
100009bc:	7b1b      	ldrb	r3, [r3, #12]
100009be:	4299      	cmp	r1, r3
100009c0:	d81e      	bhi.n	10000a00 <timer_pool_entry_comparator+0x4c>
100009c2:	4b17      	ldr	r3, [pc, #92]	; (10000a20 <timer_pool_entry_comparator+0x6c>)
100009c4:	469c      	mov	ip, r3
100009c6:	4461      	add	r1, ip
100009c8:	0109      	lsls	r1, r1, #4
100009ca:	6883      	ldr	r3, [r0, #8]
100009cc:	469c      	mov	ip, r3
100009ce:	4461      	add	r1, ip
100009d0:	680c      	ldr	r4, [r1, #0]
100009d2:	6849      	ldr	r1, [r1, #4]
100009d4:	2a00      	cmp	r2, #0
100009d6:	d019      	beq.n	10000a0c <timer_pool_entry_comparator+0x58>
100009d8:	6803      	ldr	r3, [r0, #0]
100009da:	7b1b      	ldrb	r3, [r3, #12]
100009dc:	429a      	cmp	r2, r3
100009de:	d815      	bhi.n	10000a0c <timer_pool_entry_comparator+0x58>
100009e0:	6883      	ldr	r3, [r0, #8]
100009e2:	480f      	ldr	r0, [pc, #60]	; (10000a20 <timer_pool_entry_comparator+0x6c>)
100009e4:	4684      	mov	ip, r0
100009e6:	4462      	add	r2, ip
100009e8:	0112      	lsls	r2, r2, #4
100009ea:	189a      	adds	r2, r3, r2
100009ec:	6810      	ldr	r0, [r2, #0]
100009ee:	6853      	ldr	r3, [r2, #4]
100009f0:	0002      	movs	r2, r0
100009f2:	2001      	movs	r0, #1
100009f4:	428b      	cmp	r3, r1
100009f6:	d801      	bhi.n	100009fc <timer_pool_entry_comparator+0x48>
100009f8:	d00e      	beq.n	10000a18 <timer_pool_entry_comparator+0x64>
100009fa:	2000      	movs	r0, #0
100009fc:	b2c0      	uxtb	r0, r0
100009fe:	bd10      	pop	{r4, pc}
10000a00:	4b08      	ldr	r3, [pc, #32]	; (10000a24 <timer_pool_entry_comparator+0x70>)
10000a02:	4a09      	ldr	r2, [pc, #36]	; (10000a28 <timer_pool_entry_comparator+0x74>)
10000a04:	213c      	movs	r1, #60	; 0x3c
10000a06:	4809      	ldr	r0, [pc, #36]	; (10000a2c <timer_pool_entry_comparator+0x78>)
10000a08:	f001 fa4e 	bl	10001ea8 <__assert_func>
10000a0c:	4b05      	ldr	r3, [pc, #20]	; (10000a24 <timer_pool_entry_comparator+0x70>)
10000a0e:	4a06      	ldr	r2, [pc, #24]	; (10000a28 <timer_pool_entry_comparator+0x74>)
10000a10:	213c      	movs	r1, #60	; 0x3c
10000a12:	4806      	ldr	r0, [pc, #24]	; (10000a2c <timer_pool_entry_comparator+0x78>)
10000a14:	f001 fa48 	bl	10001ea8 <__assert_func>
10000a18:	42a2      	cmp	r2, r4
10000a1a:	d8ef      	bhi.n	100009fc <timer_pool_entry_comparator+0x48>
10000a1c:	e7ed      	b.n	100009fa <timer_pool_entry_comparator+0x46>
10000a1e:	46c0      	nop			; (mov r8, r8)
10000a20:	0fffffff 	.word	0x0fffffff
10000a24:	10007428 	.word	0x10007428
10000a28:	10007630 	.word	0x10007630
10000a2c:	100073f8 	.word	0x100073f8

10000a30 <ph_add_child_node>:
10000a30:	b510      	push	{r4, lr}
10000a32:	2900      	cmp	r1, #0
10000a34:	d01e      	beq.n	10000a74 <ph_add_child_node+0x44>
10000a36:	7b03      	ldrb	r3, [r0, #12]
10000a38:	4299      	cmp	r1, r3
10000a3a:	d81b      	bhi.n	10000a74 <ph_add_child_node+0x44>
10000a3c:	004b      	lsls	r3, r1, #1
10000a3e:	185b      	adds	r3, r3, r1
10000a40:	3b03      	subs	r3, #3
10000a42:	6804      	ldr	r4, [r0, #0]
10000a44:	46a4      	mov	ip, r4
10000a46:	4463      	add	r3, ip
10000a48:	2900      	cmp	r1, #0
10000a4a:	d019      	beq.n	10000a80 <ph_add_child_node+0x50>
10000a4c:	2a00      	cmp	r2, #0
10000a4e:	d01d      	beq.n	10000a8c <ph_add_child_node+0x5c>
10000a50:	4291      	cmp	r1, r2
10000a52:	d021      	beq.n	10000a98 <ph_add_child_node+0x68>
10000a54:	2a00      	cmp	r2, #0
10000a56:	d025      	beq.n	10000aa4 <ph_add_child_node+0x74>
10000a58:	7b04      	ldrb	r4, [r0, #12]
10000a5a:	42a2      	cmp	r2, r4
10000a5c:	d822      	bhi.n	10000aa4 <ph_add_child_node+0x74>
10000a5e:	6804      	ldr	r4, [r0, #0]
10000a60:	0050      	lsls	r0, r2, #1
10000a62:	1880      	adds	r0, r0, r2
10000a64:	3803      	subs	r0, #3
10000a66:	1820      	adds	r0, r4, r0
10000a68:	7081      	strb	r1, [r0, #2]
10000a6a:	7819      	ldrb	r1, [r3, #0]
10000a6c:	2900      	cmp	r1, #0
10000a6e:	d11f      	bne.n	10000ab0 <ph_add_child_node+0x80>
10000a70:	701a      	strb	r2, [r3, #0]
10000a72:	bd10      	pop	{r4, pc}
10000a74:	4b10      	ldr	r3, [pc, #64]	; (10000ab8 <ph_add_child_node+0x88>)
10000a76:	4a11      	ldr	r2, [pc, #68]	; (10000abc <ph_add_child_node+0x8c>)
10000a78:	2168      	movs	r1, #104	; 0x68
10000a7a:	4811      	ldr	r0, [pc, #68]	; (10000ac0 <ph_add_child_node+0x90>)
10000a7c:	f001 fa14 	bl	10001ea8 <__assert_func>
10000a80:	4b10      	ldr	r3, [pc, #64]	; (10000ac4 <ph_add_child_node+0x94>)
10000a82:	4a11      	ldr	r2, [pc, #68]	; (10000ac8 <ph_add_child_node+0x98>)
10000a84:	316f      	adds	r1, #111	; 0x6f
10000a86:	480e      	ldr	r0, [pc, #56]	; (10000ac0 <ph_add_child_node+0x90>)
10000a88:	f001 fa0e 	bl	10001ea8 <__assert_func>
10000a8c:	4b0f      	ldr	r3, [pc, #60]	; (10000acc <ph_add_child_node+0x9c>)
10000a8e:	4a0e      	ldr	r2, [pc, #56]	; (10000ac8 <ph_add_child_node+0x98>)
10000a90:	2170      	movs	r1, #112	; 0x70
10000a92:	480b      	ldr	r0, [pc, #44]	; (10000ac0 <ph_add_child_node+0x90>)
10000a94:	f001 fa08 	bl	10001ea8 <__assert_func>
10000a98:	4b0d      	ldr	r3, [pc, #52]	; (10000ad0 <ph_add_child_node+0xa0>)
10000a9a:	4a0b      	ldr	r2, [pc, #44]	; (10000ac8 <ph_add_child_node+0x98>)
10000a9c:	2171      	movs	r1, #113	; 0x71
10000a9e:	4808      	ldr	r0, [pc, #32]	; (10000ac0 <ph_add_child_node+0x90>)
10000aa0:	f001 fa02 	bl	10001ea8 <__assert_func>
10000aa4:	4b04      	ldr	r3, [pc, #16]	; (10000ab8 <ph_add_child_node+0x88>)
10000aa6:	4a05      	ldr	r2, [pc, #20]	; (10000abc <ph_add_child_node+0x8c>)
10000aa8:	2168      	movs	r1, #104	; 0x68
10000aaa:	4805      	ldr	r0, [pc, #20]	; (10000ac0 <ph_add_child_node+0x90>)
10000aac:	f001 f9fc 	bl	10001ea8 <__assert_func>
10000ab0:	7041      	strb	r1, [r0, #1]
10000ab2:	701a      	strb	r2, [r3, #0]
10000ab4:	e7dd      	b.n	10000a72 <ph_add_child_node+0x42>
10000ab6:	46c0      	nop			; (mov r8, r8)
10000ab8:	1000744c 	.word	0x1000744c
10000abc:	1000769c 	.word	0x1000769c
10000ac0:	10007468 	.word	0x10007468
10000ac4:	100074a8 	.word	0x100074a8
10000ac8:	10007678 	.word	0x10007678
10000acc:	100074b4 	.word	0x100074b4
10000ad0:	100074c0 	.word	0x100074c0

10000ad4 <ph_merge_nodes>:
10000ad4:	b570      	push	{r4, r5, r6, lr}
10000ad6:	0006      	movs	r6, r0
10000ad8:	000d      	movs	r5, r1
10000ada:	0014      	movs	r4, r2
10000adc:	2900      	cmp	r1, #0
10000ade:	d014      	beq.n	10000b0a <ph_merge_nodes+0x36>
10000ae0:	2a00      	cmp	r2, #0
10000ae2:	d014      	beq.n	10000b0e <ph_merge_nodes+0x3a>
10000ae4:	6880      	ldr	r0, [r0, #8]
10000ae6:	6873      	ldr	r3, [r6, #4]
10000ae8:	4798      	blx	r3
10000aea:	2800      	cmp	r0, #0
10000aec:	d006      	beq.n	10000afc <ph_merge_nodes+0x28>
10000aee:	0022      	movs	r2, r4
10000af0:	0029      	movs	r1, r5
10000af2:	0030      	movs	r0, r6
10000af4:	f7ff ff9c 	bl	10000a30 <ph_add_child_node>
10000af8:	0028      	movs	r0, r5
10000afa:	e007      	b.n	10000b0c <ph_merge_nodes+0x38>
10000afc:	002a      	movs	r2, r5
10000afe:	0021      	movs	r1, r4
10000b00:	0030      	movs	r0, r6
10000b02:	f7ff ff95 	bl	10000a30 <ph_add_child_node>
10000b06:	0020      	movs	r0, r4
10000b08:	e000      	b.n	10000b0c <ph_merge_nodes+0x38>
10000b0a:	0010      	movs	r0, r2
10000b0c:	bd70      	pop	{r4, r5, r6, pc}
10000b0e:	0008      	movs	r0, r1
10000b10:	e7fc      	b.n	10000b0c <ph_merge_nodes+0x38>
	...

10000b14 <add_alarm_under_lock>:
10000b14:	b5f0      	push	{r4, r5, r6, r7, lr}
10000b16:	b083      	sub	sp, #12
10000b18:	0005      	movs	r5, r0
10000b1a:	9200      	str	r2, [sp, #0]
10000b1c:	9301      	str	r3, [sp, #4]
10000b1e:	ab0a      	add	r3, sp, #40	; 0x28
10000b20:	781c      	ldrb	r4, [r3, #0]
10000b22:	ab0b      	add	r3, sp, #44	; 0x2c
10000b24:	781f      	ldrb	r7, [r3, #0]
10000b26:	2c00      	cmp	r4, #0
10000b28:	d026      	beq.n	10000b78 <add_alarm_under_lock+0x64>
10000b2a:	6803      	ldr	r3, [r0, #0]
10000b2c:	7b5a      	ldrb	r2, [r3, #13]
10000b2e:	4294      	cmp	r4, r2
10000b30:	d107      	bne.n	10000b42 <add_alarm_under_lock+0x2e>
10000b32:	2301      	movs	r3, #1
10000b34:	2b00      	cmp	r3, #0
10000b36:	d119      	bne.n	10000b6c <add_alarm_under_lock+0x58>
10000b38:	2c00      	cmp	r4, #0
10000b3a:	d13b      	bne.n	10000bb4 <add_alarm_under_lock+0xa0>
10000b3c:	0020      	movs	r0, r4
10000b3e:	b003      	add	sp, #12
10000b40:	bdf0      	pop	{r4, r5, r6, r7, pc}
10000b42:	2c00      	cmp	r4, #0
10000b44:	d00c      	beq.n	10000b60 <add_alarm_under_lock+0x4c>
10000b46:	7b1a      	ldrb	r2, [r3, #12]
10000b48:	4294      	cmp	r4, r2
10000b4a:	d809      	bhi.n	10000b60 <add_alarm_under_lock+0x4c>
10000b4c:	681a      	ldr	r2, [r3, #0]
10000b4e:	0063      	lsls	r3, r4, #1
10000b50:	191b      	adds	r3, r3, r4
10000b52:	3b03      	subs	r3, #3
10000b54:	18d3      	adds	r3, r2, r3
10000b56:	789b      	ldrb	r3, [r3, #2]
10000b58:	2b00      	cmp	r3, #0
10000b5a:	d0eb      	beq.n	10000b34 <add_alarm_under_lock+0x20>
10000b5c:	2301      	movs	r3, #1
10000b5e:	e7e9      	b.n	10000b34 <add_alarm_under_lock+0x20>
10000b60:	4b3e      	ldr	r3, [pc, #248]	; (10000c5c <add_alarm_under_lock+0x148>)
10000b62:	4a3f      	ldr	r2, [pc, #252]	; (10000c60 <add_alarm_under_lock+0x14c>)
10000b64:	2168      	movs	r1, #104	; 0x68
10000b66:	483f      	ldr	r0, [pc, #252]	; (10000c64 <add_alarm_under_lock+0x150>)
10000b68:	f001 f99e 	bl	10001ea8 <__assert_func>
10000b6c:	4b3e      	ldr	r3, [pc, #248]	; (10000c68 <add_alarm_under_lock+0x154>)
10000b6e:	4a3f      	ldr	r2, [pc, #252]	; (10000c6c <add_alarm_under_lock+0x158>)
10000b70:	2167      	movs	r1, #103	; 0x67
10000b72:	483f      	ldr	r0, [pc, #252]	; (10000c70 <add_alarm_under_lock+0x15c>)
10000b74:	f001 f998 	bl	10001ea8 <__assert_func>
10000b78:	6803      	ldr	r3, [r0, #0]
10000b7a:	7b9c      	ldrb	r4, [r3, #14]
10000b7c:	2c00      	cmp	r4, #0
10000b7e:	d0db      	beq.n	10000b38 <add_alarm_under_lock+0x24>
10000b80:	d012      	beq.n	10000ba8 <add_alarm_under_lock+0x94>
10000b82:	7b1a      	ldrb	r2, [r3, #12]
10000b84:	4294      	cmp	r4, r2
10000b86:	d80f      	bhi.n	10000ba8 <add_alarm_under_lock+0x94>
10000b88:	0062      	lsls	r2, r4, #1
10000b8a:	1912      	adds	r2, r2, r4
10000b8c:	3a03      	subs	r2, #3
10000b8e:	6819      	ldr	r1, [r3, #0]
10000b90:	468c      	mov	ip, r1
10000b92:	4462      	add	r2, ip
10000b94:	7851      	ldrb	r1, [r2, #1]
10000b96:	7399      	strb	r1, [r3, #14]
10000b98:	2900      	cmp	r1, #0
10000b9a:	d100      	bne.n	10000b9e <add_alarm_under_lock+0x8a>
10000b9c:	73d9      	strb	r1, [r3, #15]
10000b9e:	2300      	movs	r3, #0
10000ba0:	7093      	strb	r3, [r2, #2]
10000ba2:	7053      	strb	r3, [r2, #1]
10000ba4:	7013      	strb	r3, [r2, #0]
10000ba6:	e7c7      	b.n	10000b38 <add_alarm_under_lock+0x24>
10000ba8:	4b2c      	ldr	r3, [pc, #176]	; (10000c5c <add_alarm_under_lock+0x148>)
10000baa:	4a2d      	ldr	r2, [pc, #180]	; (10000c60 <add_alarm_under_lock+0x14c>)
10000bac:	2168      	movs	r1, #104	; 0x68
10000bae:	482d      	ldr	r0, [pc, #180]	; (10000c64 <add_alarm_under_lock+0x150>)
10000bb0:	f001 f97a 	bl	10001ea8 <__assert_func>
10000bb4:	2c00      	cmp	r4, #0
10000bb6:	d03a      	beq.n	10000c2e <add_alarm_under_lock+0x11a>
10000bb8:	682b      	ldr	r3, [r5, #0]
10000bba:	7b1b      	ldrb	r3, [r3, #12]
10000bbc:	429c      	cmp	r4, r3
10000bbe:	d836      	bhi.n	10000c2e <add_alarm_under_lock+0x11a>
10000bc0:	4b2c      	ldr	r3, [pc, #176]	; (10000c74 <add_alarm_under_lock+0x160>)
10000bc2:	18e3      	adds	r3, r4, r3
10000bc4:	011b      	lsls	r3, r3, #4
10000bc6:	68aa      	ldr	r2, [r5, #8]
10000bc8:	4694      	mov	ip, r2
10000bca:	4463      	add	r3, ip
10000bcc:	9a00      	ldr	r2, [sp, #0]
10000bce:	601a      	str	r2, [r3, #0]
10000bd0:	9a01      	ldr	r2, [sp, #4]
10000bd2:	605a      	str	r2, [r3, #4]
10000bd4:	9a08      	ldr	r2, [sp, #32]
10000bd6:	609a      	str	r2, [r3, #8]
10000bd8:	9a09      	ldr	r2, [sp, #36]	; 0x24
10000bda:	60da      	str	r2, [r3, #12]
10000bdc:	682e      	ldr	r6, [r5, #0]
10000bde:	2c00      	cmp	r4, #0
10000be0:	d02b      	beq.n	10000c3a <add_alarm_under_lock+0x126>
10000be2:	d030      	beq.n	10000c46 <add_alarm_under_lock+0x132>
10000be4:	7b33      	ldrb	r3, [r6, #12]
10000be6:	429c      	cmp	r4, r3
10000be8:	d82d      	bhi.n	10000c46 <add_alarm_under_lock+0x132>
10000bea:	0063      	lsls	r3, r4, #1
10000bec:	191b      	adds	r3, r3, r4
10000bee:	3b03      	subs	r3, #3
10000bf0:	6832      	ldr	r2, [r6, #0]
10000bf2:	4694      	mov	ip, r2
10000bf4:	4463      	add	r3, ip
10000bf6:	2200      	movs	r2, #0
10000bf8:	709a      	strb	r2, [r3, #2]
10000bfa:	705a      	strb	r2, [r3, #1]
10000bfc:	701a      	strb	r2, [r3, #0]
10000bfe:	7b71      	ldrb	r1, [r6, #13]
10000c00:	0022      	movs	r2, r4
10000c02:	0030      	movs	r0, r6
10000c04:	f7ff ff66 	bl	10000ad4 <ph_merge_nodes>
10000c08:	7370      	strb	r0, [r6, #13]
10000c0a:	4284      	cmp	r4, r0
10000c0c:	d000      	beq.n	10000c10 <add_alarm_under_lock+0xfc>
10000c0e:	e795      	b.n	10000b3c <add_alarm_under_lock+0x28>
10000c10:	7d28      	ldrb	r0, [r5, #20]
10000c12:	9a00      	ldr	r2, [sp, #0]
10000c14:	9b01      	ldr	r3, [sp, #4]
10000c16:	f000 fc35 	bl	10001484 <hardware_alarm_set_target>
10000c1a:	1e06      	subs	r6, r0, #0
10000c1c:	d001      	beq.n	10000c22 <add_alarm_under_lock+0x10e>
10000c1e:	2f00      	cmp	r7, #0
10000c20:	d017      	beq.n	10000c52 <add_alarm_under_lock+0x13e>
10000c22:	9b0c      	ldr	r3, [sp, #48]	; 0x30
10000c24:	2b00      	cmp	r3, #0
10000c26:	d100      	bne.n	10000c2a <add_alarm_under_lock+0x116>
10000c28:	e788      	b.n	10000b3c <add_alarm_under_lock+0x28>
10000c2a:	701e      	strb	r6, [r3, #0]
10000c2c:	e786      	b.n	10000b3c <add_alarm_under_lock+0x28>
10000c2e:	4b12      	ldr	r3, [pc, #72]	; (10000c78 <add_alarm_under_lock+0x164>)
10000c30:	4a12      	ldr	r2, [pc, #72]	; (10000c7c <add_alarm_under_lock+0x168>)
10000c32:	213c      	movs	r1, #60	; 0x3c
10000c34:	480e      	ldr	r0, [pc, #56]	; (10000c70 <add_alarm_under_lock+0x15c>)
10000c36:	f001 f937 	bl	10001ea8 <__assert_func>
10000c3a:	4b11      	ldr	r3, [pc, #68]	; (10000c80 <add_alarm_under_lock+0x16c>)
10000c3c:	4a11      	ldr	r2, [pc, #68]	; (10000c84 <add_alarm_under_lock+0x170>)
10000c3e:	21a5      	movs	r1, #165	; 0xa5
10000c40:	4808      	ldr	r0, [pc, #32]	; (10000c64 <add_alarm_under_lock+0x150>)
10000c42:	f001 f931 	bl	10001ea8 <__assert_func>
10000c46:	4b05      	ldr	r3, [pc, #20]	; (10000c5c <add_alarm_under_lock+0x148>)
10000c48:	4a05      	ldr	r2, [pc, #20]	; (10000c60 <add_alarm_under_lock+0x14c>)
10000c4a:	2168      	movs	r1, #104	; 0x68
10000c4c:	4805      	ldr	r0, [pc, #20]	; (10000c64 <add_alarm_under_lock+0x150>)
10000c4e:	f001 f92b 	bl	10001ea8 <__assert_func>
10000c52:	6828      	ldr	r0, [r5, #0]
10000c54:	0021      	movs	r1, r4
10000c56:	f000 fe4d 	bl	100018f4 <ph_remove_and_free_node>
10000c5a:	e7e2      	b.n	10000c22 <add_alarm_under_lock+0x10e>
10000c5c:	1000744c 	.word	0x1000744c
10000c60:	1000769c 	.word	0x1000769c
10000c64:	10007468 	.word	0x10007468
10000c68:	100074d8 	.word	0x100074d8
10000c6c:	100076a8 	.word	0x100076a8
10000c70:	100073f8 	.word	0x100073f8
10000c74:	0fffffff 	.word	0x0fffffff
10000c78:	10007428 	.word	0x10007428
10000c7c:	10007630 	.word	0x10007630
10000c80:	100073f4 	.word	0x100073f4
10000c84:	1000768c 	.word	0x1000768c

10000c88 <alarm_pool_alarm_callback>:
10000c88:	b5f0      	push	{r4, r5, r6, r7, lr}
10000c8a:	46de      	mov	lr, fp
10000c8c:	4657      	mov	r7, sl
10000c8e:	464e      	mov	r6, r9
10000c90:	4645      	mov	r5, r8
10000c92:	b5e0      	push	{r5, r6, r7, lr}
10000c94:	b08b      	sub	sp, #44	; 0x2c
10000c96:	9009      	str	r0, [sp, #36]	; 0x24
10000c98:	2300      	movs	r3, #0
10000c9a:	9308      	str	r3, [sp, #32]
10000c9c:	0082      	lsls	r2, r0, #2
10000c9e:	4bb5      	ldr	r3, [pc, #724]	; (10000f74 <alarm_pool_alarm_callback+0x2ec>)
10000ca0:	58d6      	ldr	r6, [r2, r3]
10000ca2:	0037      	movs	r7, r6
10000ca4:	e052      	b.n	10000d4c <alarm_pool_alarm_callback+0xc4>
10000ca6:	4bb4      	ldr	r3, [pc, #720]	; (10000f78 <alarm_pool_alarm_callback+0x2f0>)
10000ca8:	4ab4      	ldr	r2, [pc, #720]	; (10000f7c <alarm_pool_alarm_callback+0x2f4>)
10000caa:	213f      	movs	r1, #63	; 0x3f
10000cac:	48b4      	ldr	r0, [pc, #720]	; (10000f80 <alarm_pool_alarm_callback+0x2f8>)
10000cae:	f001 f8fb 	bl	10001ea8 <__assert_func>
10000cb2:	4bb4      	ldr	r3, [pc, #720]	; (10000f84 <alarm_pool_alarm_callback+0x2fc>)
10000cb4:	4ab4      	ldr	r2, [pc, #720]	; (10000f88 <alarm_pool_alarm_callback+0x300>)
10000cb6:	213c      	movs	r1, #60	; 0x3c
10000cb8:	48b4      	ldr	r0, [pc, #720]	; (10000f8c <alarm_pool_alarm_callback+0x304>)
10000cba:	f001 f8f5 	bl	10001ea8 <__assert_func>
10000cbe:	2900      	cmp	r1, #0
10000cc0:	d101      	bne.n	10000cc6 <alarm_pool_alarm_callback+0x3e>
10000cc2:	2800      	cmp	r0, #0
10000cc4:	d169      	bne.n	10000d9a <alarm_pool_alarm_callback+0x112>
10000cc6:	2100      	movs	r1, #0
10000cc8:	4640      	mov	r0, r8
10000cca:	f000 fe09 	bl	100018e0 <ph_remove_head>
10000cce:	42a0      	cmp	r0, r4
10000cd0:	d119      	bne.n	10000d06 <alarm_pool_alarm_callback+0x7e>
10000cd2:	682a      	ldr	r2, [r5, #0]
10000cd4:	686b      	ldr	r3, [r5, #4]
10000cd6:	9206      	str	r2, [sp, #24]
10000cd8:	9307      	str	r3, [sp, #28]
10000cda:	68ab      	ldr	r3, [r5, #8]
10000cdc:	4698      	mov	r8, r3
10000cde:	68eb      	ldr	r3, [r5, #12]
10000ce0:	469a      	mov	sl, r3
10000ce2:	4643      	mov	r3, r8
10000ce4:	2b00      	cmp	r3, #0
10000ce6:	d014      	beq.n	10000d12 <alarm_pool_alarm_callback+0x8a>
10000ce8:	2c00      	cmp	r4, #0
10000cea:	d018      	beq.n	10000d1e <alarm_pool_alarm_callback+0x96>
10000cec:	683b      	ldr	r3, [r7, #0]
10000cee:	7b1b      	ldrb	r3, [r3, #12]
10000cf0:	429c      	cmp	r4, r3
10000cf2:	d814      	bhi.n	10000d1e <alarm_pool_alarm_callback+0x96>
10000cf4:	1e63      	subs	r3, r4, #1
10000cf6:	68fa      	ldr	r2, [r7, #12]
10000cf8:	5cd3      	ldrb	r3, [r2, r3]
10000cfa:	9308      	str	r3, [sp, #32]
10000cfc:	021b      	lsls	r3, r3, #8
10000cfe:	4318      	orrs	r0, r3
10000d00:	6138      	str	r0, [r7, #16]
10000d02:	2000      	movs	r0, #0
10000d04:	e015      	b.n	10000d32 <alarm_pool_alarm_callback+0xaa>
10000d06:	4ba2      	ldr	r3, [pc, #648]	; (10000f90 <alarm_pool_alarm_callback+0x308>)
10000d08:	4aa2      	ldr	r2, [pc, #648]	; (10000f94 <alarm_pool_alarm_callback+0x30c>)
10000d0a:	218e      	movs	r1, #142	; 0x8e
10000d0c:	489f      	ldr	r0, [pc, #636]	; (10000f8c <alarm_pool_alarm_callback+0x304>)
10000d0e:	f001 f8cb 	bl	10001ea8 <__assert_func>
10000d12:	4ba1      	ldr	r3, [pc, #644]	; (10000f98 <alarm_pool_alarm_callback+0x310>)
10000d14:	4a9f      	ldr	r2, [pc, #636]	; (10000f94 <alarm_pool_alarm_callback+0x30c>)
10000d16:	2192      	movs	r1, #146	; 0x92
10000d18:	489c      	ldr	r0, [pc, #624]	; (10000f8c <alarm_pool_alarm_callback+0x304>)
10000d1a:	f001 f8c5 	bl	10001ea8 <__assert_func>
10000d1e:	4b99      	ldr	r3, [pc, #612]	; (10000f84 <alarm_pool_alarm_callback+0x2fc>)
10000d20:	4a9e      	ldr	r2, [pc, #632]	; (10000f9c <alarm_pool_alarm_callback+0x314>)
10000d22:	2141      	movs	r1, #65	; 0x41
10000d24:	4899      	ldr	r0, [pc, #612]	; (10000f8c <alarm_pool_alarm_callback+0x304>)
10000d26:	f001 f8bf 	bl	10001ea8 <__assert_func>
10000d2a:	2300      	movs	r3, #0
10000d2c:	469a      	mov	sl, r3
10000d2e:	4698      	mov	r8, r3
10000d30:	2000      	movs	r0, #0
10000d32:	687b      	ldr	r3, [r7, #4]
10000d34:	f3bf 8f5f 	dmb	sy
10000d38:	2200      	movs	r2, #0
10000d3a:	601a      	str	r2, [r3, #0]
10000d3c:	f386 8810 	msr	PRIMASK, r6
10000d40:	4643      	mov	r3, r8
10000d42:	2b00      	cmp	r3, #0
10000d44:	d132      	bne.n	10000dac <alarm_pool_alarm_callback+0x124>
10000d46:	2800      	cmp	r0, #0
10000d48:	d100      	bne.n	10000d4c <alarm_pool_alarm_callback+0xc4>
10000d4a:	e10c      	b.n	10000f66 <alarm_pool_alarm_callback+0x2de>
10000d4c:	f000 fb46 	bl	100013dc <time_us_64>
10000d50:	0002      	movs	r2, r0
10000d52:	1e0b      	subs	r3, r1, #0
10000d54:	dba7      	blt.n	10000ca6 <alarm_pool_alarm_callback+0x1e>
10000d56:	2000      	movs	r0, #0
10000d58:	2100      	movs	r1, #0
10000d5a:	9006      	str	r0, [sp, #24]
10000d5c:	9107      	str	r1, [sp, #28]
10000d5e:	6878      	ldr	r0, [r7, #4]
10000d60:	f3ef 8610 	mrs	r6, PRIMASK
10000d64:	b672      	cpsid	i
10000d66:	6801      	ldr	r1, [r0, #0]
10000d68:	2900      	cmp	r1, #0
10000d6a:	d0fc      	beq.n	10000d66 <alarm_pool_alarm_callback+0xde>
10000d6c:	f3bf 8f5f 	dmb	sy
10000d70:	6839      	ldr	r1, [r7, #0]
10000d72:	4688      	mov	r8, r1
10000d74:	7b4c      	ldrb	r4, [r1, #13]
10000d76:	2c00      	cmp	r4, #0
10000d78:	d0d7      	beq.n	10000d2a <alarm_pool_alarm_callback+0xa2>
10000d7a:	d09a      	beq.n	10000cb2 <alarm_pool_alarm_callback+0x2a>
10000d7c:	7b09      	ldrb	r1, [r1, #12]
10000d7e:	428c      	cmp	r4, r1
10000d80:	d897      	bhi.n	10000cb2 <alarm_pool_alarm_callback+0x2a>
10000d82:	4987      	ldr	r1, [pc, #540]	; (10000fa0 <alarm_pool_alarm_callback+0x318>)
10000d84:	1865      	adds	r5, r4, r1
10000d86:	012d      	lsls	r5, r5, #4
10000d88:	68b9      	ldr	r1, [r7, #8]
10000d8a:	468c      	mov	ip, r1
10000d8c:	4465      	add	r5, ip
10000d8e:	6828      	ldr	r0, [r5, #0]
10000d90:	6869      	ldr	r1, [r5, #4]
10000d92:	1a80      	subs	r0, r0, r2
10000d94:	4199      	sbcs	r1, r3
10000d96:	2900      	cmp	r1, #0
10000d98:	dd91      	ble.n	10000cbe <alarm_pool_alarm_callback+0x36>
10000d9a:	682a      	ldr	r2, [r5, #0]
10000d9c:	686b      	ldr	r3, [r5, #4]
10000d9e:	9809      	ldr	r0, [sp, #36]	; 0x24
10000da0:	f000 fb70 	bl	10001484 <hardware_alarm_set_target>
10000da4:	2300      	movs	r3, #0
10000da6:	469a      	mov	sl, r3
10000da8:	4698      	mov	r8, r3
10000daa:	e7c2      	b.n	10000d32 <alarm_pool_alarm_callback+0xaa>
10000dac:	9b08      	ldr	r3, [sp, #32]
10000dae:	021b      	lsls	r3, r3, #8
10000db0:	4323      	orrs	r3, r4
10000db2:	4699      	mov	r9, r3
10000db4:	4651      	mov	r1, sl
10000db6:	0018      	movs	r0, r3
10000db8:	47c0      	blx	r8
10000dba:	0005      	movs	r5, r0
10000dbc:	000e      	movs	r6, r1
10000dbe:	687a      	ldr	r2, [r7, #4]
10000dc0:	f3ef 8b10 	mrs	fp, PRIMASK
10000dc4:	b672      	cpsid	i
10000dc6:	6813      	ldr	r3, [r2, #0]
10000dc8:	4259      	negs	r1, r3
10000dca:	414b      	adcs	r3, r1
10000dcc:	b2d9      	uxtb	r1, r3
10000dce:	2b00      	cmp	r3, #0
10000dd0:	d1f9      	bne.n	10000dc6 <alarm_pool_alarm_callback+0x13e>
10000dd2:	f3bf 8f5f 	dmb	sy
10000dd6:	2e00      	cmp	r6, #0
10000dd8:	db1e      	blt.n	10000e18 <alarm_pool_alarm_callback+0x190>
10000dda:	2e00      	cmp	r6, #0
10000ddc:	dd46      	ble.n	10000e6c <alarm_pool_alarm_callback+0x1e4>
10000dde:	693b      	ldr	r3, [r7, #16]
10000de0:	2b00      	cmp	r3, #0
10000de2:	d047      	beq.n	10000e74 <alarm_pool_alarm_callback+0x1ec>
10000de4:	454b      	cmp	r3, r9
10000de6:	d16d      	bne.n	10000ec4 <alarm_pool_alarm_callback+0x23c>
10000de8:	f000 faf8 	bl	100013dc <time_us_64>
10000dec:	0002      	movs	r2, r0
10000dee:	1e0b      	subs	r3, r1, #0
10000df0:	db6e      	blt.n	10000ed0 <alarm_pool_alarm_callback+0x248>
10000df2:	1952      	adds	r2, r2, r5
10000df4:	4173      	adcs	r3, r6
10000df6:	2b00      	cmp	r3, #0
10000df8:	db70      	blt.n	10000edc <alarm_pool_alarm_callback+0x254>
10000dfa:	2b00      	cmp	r3, #0
10000dfc:	db72      	blt.n	10000ee4 <alarm_pool_alarm_callback+0x25c>
10000dfe:	2100      	movs	r1, #0
10000e00:	9104      	str	r1, [sp, #16]
10000e02:	3101      	adds	r1, #1
10000e04:	9103      	str	r1, [sp, #12]
10000e06:	9402      	str	r4, [sp, #8]
10000e08:	4651      	mov	r1, sl
10000e0a:	9101      	str	r1, [sp, #4]
10000e0c:	4641      	mov	r1, r8
10000e0e:	9100      	str	r1, [sp, #0]
10000e10:	0038      	movs	r0, r7
10000e12:	f7ff fe7f 	bl	10000b14 <add_alarm_under_lock>
10000e16:	e04c      	b.n	10000eb2 <alarm_pool_alarm_callback+0x22a>
10000e18:	693b      	ldr	r3, [r7, #16]
10000e1a:	2b00      	cmp	r3, #0
10000e1c:	d0dd      	beq.n	10000dda <alarm_pool_alarm_callback+0x152>
10000e1e:	454b      	cmp	r3, r9
10000e20:	d114      	bne.n	10000e4c <alarm_pool_alarm_callback+0x1c4>
10000e22:	9a06      	ldr	r2, [sp, #24]
10000e24:	9b07      	ldr	r3, [sp, #28]
10000e26:	1b52      	subs	r2, r2, r5
10000e28:	41b3      	sbcs	r3, r6
10000e2a:	2b00      	cmp	r3, #0
10000e2c:	db14      	blt.n	10000e58 <alarm_pool_alarm_callback+0x1d0>
10000e2e:	2b00      	cmp	r3, #0
10000e30:	db16      	blt.n	10000e60 <alarm_pool_alarm_callback+0x1d8>
10000e32:	2100      	movs	r1, #0
10000e34:	9104      	str	r1, [sp, #16]
10000e36:	3101      	adds	r1, #1
10000e38:	9103      	str	r1, [sp, #12]
10000e3a:	9402      	str	r4, [sp, #8]
10000e3c:	4651      	mov	r1, sl
10000e3e:	9101      	str	r1, [sp, #4]
10000e40:	4641      	mov	r1, r8
10000e42:	9100      	str	r1, [sp, #0]
10000e44:	0038      	movs	r0, r7
10000e46:	f7ff fe65 	bl	10000b14 <add_alarm_under_lock>
10000e4a:	e032      	b.n	10000eb2 <alarm_pool_alarm_callback+0x22a>
10000e4c:	4b55      	ldr	r3, [pc, #340]	; (10000fa4 <alarm_pool_alarm_callback+0x31c>)
10000e4e:	4a51      	ldr	r2, [pc, #324]	; (10000f94 <alarm_pool_alarm_callback+0x30c>)
10000e50:	21a1      	movs	r1, #161	; 0xa1
10000e52:	484e      	ldr	r0, [pc, #312]	; (10000f8c <alarm_pool_alarm_callback+0x304>)
10000e54:	f001 f828 	bl	10001ea8 <__assert_func>
10000e58:	2201      	movs	r2, #1
10000e5a:	4252      	negs	r2, r2
10000e5c:	4b52      	ldr	r3, [pc, #328]	; (10000fa8 <alarm_pool_alarm_callback+0x320>)
10000e5e:	e7e6      	b.n	10000e2e <alarm_pool_alarm_callback+0x1a6>
10000e60:	4b45      	ldr	r3, [pc, #276]	; (10000f78 <alarm_pool_alarm_callback+0x2f0>)
10000e62:	4a46      	ldr	r2, [pc, #280]	; (10000f7c <alarm_pool_alarm_callback+0x2f4>)
10000e64:	213f      	movs	r1, #63	; 0x3f
10000e66:	4846      	ldr	r0, [pc, #280]	; (10000f80 <alarm_pool_alarm_callback+0x2f8>)
10000e68:	f001 f81e 	bl	10001ea8 <__assert_func>
10000e6c:	2e00      	cmp	r6, #0
10000e6e:	d101      	bne.n	10000e74 <alarm_pool_alarm_callback+0x1ec>
10000e70:	2d00      	cmp	r5, #0
10000e72:	d1b4      	bne.n	10000dde <alarm_pool_alarm_callback+0x156>
10000e74:	683b      	ldr	r3, [r7, #0]
10000e76:	2c00      	cmp	r4, #0
10000e78:	d050      	beq.n	10000f1c <alarm_pool_alarm_callback+0x294>
10000e7a:	7b5a      	ldrb	r2, [r3, #13]
10000e7c:	4294      	cmp	r4, r2
10000e7e:	d137      	bne.n	10000ef0 <alarm_pool_alarm_callback+0x268>
10000e80:	2101      	movs	r1, #1
10000e82:	2900      	cmp	r1, #0
10000e84:	d14a      	bne.n	10000f1c <alarm_pool_alarm_callback+0x294>
10000e86:	7bda      	ldrb	r2, [r3, #15]
10000e88:	2a00      	cmp	r2, #0
10000e8a:	d14d      	bne.n	10000f28 <alarm_pool_alarm_callback+0x2a0>
10000e8c:	7b9a      	ldrb	r2, [r3, #14]
10000e8e:	2a00      	cmp	r2, #0
10000e90:	d103      	bne.n	10000e9a <alarm_pool_alarm_callback+0x212>
10000e92:	7bda      	ldrb	r2, [r3, #15]
10000e94:	2a00      	cmp	r2, #0
10000e96:	d15a      	bne.n	10000f4e <alarm_pool_alarm_callback+0x2c6>
10000e98:	739c      	strb	r4, [r3, #14]
10000e9a:	73dc      	strb	r4, [r3, #15]
10000e9c:	2c00      	cmp	r4, #0
10000e9e:	d05c      	beq.n	10000f5a <alarm_pool_alarm_callback+0x2d2>
10000ea0:	683b      	ldr	r3, [r7, #0]
10000ea2:	7b1b      	ldrb	r3, [r3, #12]
10000ea4:	429c      	cmp	r4, r3
10000ea6:	d858      	bhi.n	10000f5a <alarm_pool_alarm_callback+0x2d2>
10000ea8:	68fa      	ldr	r2, [r7, #12]
10000eaa:	3c01      	subs	r4, #1
10000eac:	5d13      	ldrb	r3, [r2, r4]
10000eae:	3301      	adds	r3, #1
10000eb0:	5513      	strb	r3, [r2, r4]
10000eb2:	2300      	movs	r3, #0
10000eb4:	613b      	str	r3, [r7, #16]
10000eb6:	687a      	ldr	r2, [r7, #4]
10000eb8:	f3bf 8f5f 	dmb	sy
10000ebc:	6013      	str	r3, [r2, #0]
10000ebe:	f38b 8810 	msr	PRIMASK, fp
10000ec2:	e743      	b.n	10000d4c <alarm_pool_alarm_callback+0xc4>
10000ec4:	4b37      	ldr	r3, [pc, #220]	; (10000fa4 <alarm_pool_alarm_callback+0x31c>)
10000ec6:	4a33      	ldr	r2, [pc, #204]	; (10000f94 <alarm_pool_alarm_callback+0x30c>)
10000ec8:	21a4      	movs	r1, #164	; 0xa4
10000eca:	4830      	ldr	r0, [pc, #192]	; (10000f8c <alarm_pool_alarm_callback+0x304>)
10000ecc:	f000 ffec 	bl	10001ea8 <__assert_func>
10000ed0:	4b29      	ldr	r3, [pc, #164]	; (10000f78 <alarm_pool_alarm_callback+0x2f0>)
10000ed2:	4a2a      	ldr	r2, [pc, #168]	; (10000f7c <alarm_pool_alarm_callback+0x2f4>)
10000ed4:	213f      	movs	r1, #63	; 0x3f
10000ed6:	482a      	ldr	r0, [pc, #168]	; (10000f80 <alarm_pool_alarm_callback+0x2f8>)
10000ed8:	f000 ffe6 	bl	10001ea8 <__assert_func>
10000edc:	2201      	movs	r2, #1
10000ede:	4252      	negs	r2, r2
10000ee0:	4b31      	ldr	r3, [pc, #196]	; (10000fa8 <alarm_pool_alarm_callback+0x320>)
10000ee2:	e78a      	b.n	10000dfa <alarm_pool_alarm_callback+0x172>
10000ee4:	4b24      	ldr	r3, [pc, #144]	; (10000f78 <alarm_pool_alarm_callback+0x2f0>)
10000ee6:	4a25      	ldr	r2, [pc, #148]	; (10000f7c <alarm_pool_alarm_callback+0x2f4>)
10000ee8:	213f      	movs	r1, #63	; 0x3f
10000eea:	4825      	ldr	r0, [pc, #148]	; (10000f80 <alarm_pool_alarm_callback+0x2f8>)
10000eec:	f000 ffdc 	bl	10001ea8 <__assert_func>
10000ef0:	2c00      	cmp	r4, #0
10000ef2:	d00d      	beq.n	10000f10 <alarm_pool_alarm_callback+0x288>
10000ef4:	7b1a      	ldrb	r2, [r3, #12]
10000ef6:	4294      	cmp	r4, r2
10000ef8:	d80a      	bhi.n	10000f10 <alarm_pool_alarm_callback+0x288>
10000efa:	0062      	lsls	r2, r4, #1
10000efc:	1912      	adds	r2, r2, r4
10000efe:	3a03      	subs	r2, #3
10000f00:	6818      	ldr	r0, [r3, #0]
10000f02:	4684      	mov	ip, r0
10000f04:	4462      	add	r2, ip
10000f06:	7892      	ldrb	r2, [r2, #2]
10000f08:	2a00      	cmp	r2, #0
10000f0a:	d0ba      	beq.n	10000e82 <alarm_pool_alarm_callback+0x1fa>
10000f0c:	2101      	movs	r1, #1
10000f0e:	e7b8      	b.n	10000e82 <alarm_pool_alarm_callback+0x1fa>
10000f10:	4b26      	ldr	r3, [pc, #152]	; (10000fac <alarm_pool_alarm_callback+0x324>)
10000f12:	4a27      	ldr	r2, [pc, #156]	; (10000fb0 <alarm_pool_alarm_callback+0x328>)
10000f14:	2168      	movs	r1, #104	; 0x68
10000f16:	4827      	ldr	r0, [pc, #156]	; (10000fb4 <alarm_pool_alarm_callback+0x32c>)
10000f18:	f000 ffc6 	bl	10001ea8 <__assert_func>
10000f1c:	4b26      	ldr	r3, [pc, #152]	; (10000fb8 <alarm_pool_alarm_callback+0x330>)
10000f1e:	4a27      	ldr	r2, [pc, #156]	; (10000fbc <alarm_pool_alarm_callback+0x334>)
10000f20:	21f6      	movs	r1, #246	; 0xf6
10000f22:	4824      	ldr	r0, [pc, #144]	; (10000fb4 <alarm_pool_alarm_callback+0x32c>)
10000f24:	f000 ffc0 	bl	10001ea8 <__assert_func>
10000f28:	2a00      	cmp	r2, #0
10000f2a:	d00a      	beq.n	10000f42 <alarm_pool_alarm_callback+0x2ba>
10000f2c:	7b19      	ldrb	r1, [r3, #12]
10000f2e:	428a      	cmp	r2, r1
10000f30:	d807      	bhi.n	10000f42 <alarm_pool_alarm_callback+0x2ba>
10000f32:	0051      	lsls	r1, r2, #1
10000f34:	188a      	adds	r2, r1, r2
10000f36:	3a03      	subs	r2, #3
10000f38:	6819      	ldr	r1, [r3, #0]
10000f3a:	468c      	mov	ip, r1
10000f3c:	4462      	add	r2, ip
10000f3e:	7054      	strb	r4, [r2, #1]
10000f40:	e7a4      	b.n	10000e8c <alarm_pool_alarm_callback+0x204>
10000f42:	4b1a      	ldr	r3, [pc, #104]	; (10000fac <alarm_pool_alarm_callback+0x324>)
10000f44:	4a1a      	ldr	r2, [pc, #104]	; (10000fb0 <alarm_pool_alarm_callback+0x328>)
10000f46:	2168      	movs	r1, #104	; 0x68
10000f48:	481a      	ldr	r0, [pc, #104]	; (10000fb4 <alarm_pool_alarm_callback+0x32c>)
10000f4a:	f000 ffad 	bl	10001ea8 <__assert_func>
10000f4e:	4b1c      	ldr	r3, [pc, #112]	; (10000fc0 <alarm_pool_alarm_callback+0x338>)
10000f50:	4a1a      	ldr	r2, [pc, #104]	; (10000fbc <alarm_pool_alarm_callback+0x334>)
10000f52:	21fb      	movs	r1, #251	; 0xfb
10000f54:	4817      	ldr	r0, [pc, #92]	; (10000fb4 <alarm_pool_alarm_callback+0x32c>)
10000f56:	f000 ffa7 	bl	10001ea8 <__assert_func>
10000f5a:	4b0a      	ldr	r3, [pc, #40]	; (10000f84 <alarm_pool_alarm_callback+0x2fc>)
10000f5c:	4a0f      	ldr	r2, [pc, #60]	; (10000f9c <alarm_pool_alarm_callback+0x314>)
10000f5e:	2141      	movs	r1, #65	; 0x41
10000f60:	480a      	ldr	r0, [pc, #40]	; (10000f8c <alarm_pool_alarm_callback+0x304>)
10000f62:	f000 ffa1 	bl	10001ea8 <__assert_func>
10000f66:	b00b      	add	sp, #44	; 0x2c
10000f68:	bcf0      	pop	{r4, r5, r6, r7}
10000f6a:	46bb      	mov	fp, r7
10000f6c:	46b2      	mov	sl, r6
10000f6e:	46a9      	mov	r9, r5
10000f70:	46a0      	mov	r8, r4
10000f72:	bdf0      	pop	{r4, r5, r6, r7, pc}
10000f74:	20000ec4 	.word	0x20000ec4
10000f78:	10007330 	.word	0x10007330
10000f7c:	100075fc 	.word	0x100075fc
10000f80:	1000734c 	.word	0x1000734c
10000f84:	10007428 	.word	0x10007428
10000f88:	10007630 	.word	0x10007630
10000f8c:	100073f8 	.word	0x100073f8
10000f90:	10007500 	.word	0x10007500
10000f94:	10007614 	.word	0x10007614
10000f98:	10007518 	.word	0x10007518
10000f9c:	10007654 	.word	0x10007654
10000fa0:	0fffffff 	.word	0x0fffffff
10000fa4:	10007524 	.word	0x10007524
10000fa8:	7fffffff 	.word	0x7fffffff
10000fac:	1000744c 	.word	0x1000744c
10000fb0:	1000769c 	.word	0x1000769c
10000fb4:	10007468 	.word	0x10007468
10000fb8:	10007560 	.word	0x10007560
10000fbc:	10007668 	.word	0x10007668
10000fc0:	10007584 	.word	0x10007584

10000fc4 <alarm_pool_init_default>:
10000fc4:	b510      	push	{r4, lr}
10000fc6:	4b0c      	ldr	r3, [pc, #48]	; (10000ff8 <alarm_pool_init_default+0x34>)
10000fc8:	685b      	ldr	r3, [r3, #4]
10000fca:	2b00      	cmp	r3, #0
10000fcc:	d004      	beq.n	10000fd8 <alarm_pool_init_default+0x14>
10000fce:	210a      	movs	r1, #10
10000fd0:	480a      	ldr	r0, [pc, #40]	; (10000ffc <alarm_pool_init_default+0x38>)
10000fd2:	f7ff fc93 	bl	100008fc <lock_init>
10000fd6:	bd10      	pop	{r4, pc}
10000fd8:	4c07      	ldr	r4, [pc, #28]	; (10000ff8 <alarm_pool_init_default+0x34>)
10000fda:	0023      	movs	r3, r4
10000fdc:	4a08      	ldr	r2, [pc, #32]	; (10001000 <alarm_pool_init_default+0x3c>)
10000fde:	2110      	movs	r1, #16
10000fe0:	6820      	ldr	r0, [r4, #0]
10000fe2:	f000 fb8d 	bl	10001700 <ph_post_alloc_init>
10000fe6:	2003      	movs	r0, #3
10000fe8:	f000 f9ec 	bl	100013c4 <hardware_alarm_claim>
10000fec:	2103      	movs	r1, #3
10000fee:	0020      	movs	r0, r4
10000ff0:	f7ff fca8 	bl	10000944 <alarm_pool_post_alloc_init>
10000ff4:	e7eb      	b.n	10000fce <alarm_pool_init_default+0xa>
10000ff6:	46c0      	nop			; (mov r8, r8)
10000ff8:	20000284 	.word	0x20000284
10000ffc:	200010d8 	.word	0x200010d8
10001000:	100009b5 	.word	0x100009b5

10001004 <alarm_pool_get_default>:
10001004:	b510      	push	{r4, lr}
10001006:	4b06      	ldr	r3, [pc, #24]	; (10001020 <alarm_pool_get_default+0x1c>)
10001008:	685b      	ldr	r3, [r3, #4]
1000100a:	2b00      	cmp	r3, #0
1000100c:	d001      	beq.n	10001012 <alarm_pool_get_default+0xe>
1000100e:	4804      	ldr	r0, [pc, #16]	; (10001020 <alarm_pool_get_default+0x1c>)
10001010:	bd10      	pop	{r4, pc}
10001012:	4b04      	ldr	r3, [pc, #16]	; (10001024 <alarm_pool_get_default+0x20>)
10001014:	4a04      	ldr	r2, [pc, #16]	; (10001028 <alarm_pool_get_default+0x24>)
10001016:	215e      	movs	r1, #94	; 0x5e
10001018:	4804      	ldr	r0, [pc, #16]	; (1000102c <alarm_pool_get_default+0x28>)
1000101a:	f000 ff45 	bl	10001ea8 <__assert_func>
1000101e:	46c0      	nop			; (mov r8, r8)
10001020:	20000284 	.word	0x20000284
10001024:	10007598 	.word	0x10007598
10001028:	1000763c 	.word	0x1000763c
1000102c:	100073f8 	.word	0x100073f8

10001030 <alarm_pool_add_alarm_at>:
10001030:	b5f0      	push	{r4, r5, r6, r7, lr}
10001032:	46de      	mov	lr, fp
10001034:	4657      	mov	r7, sl
10001036:	464e      	mov	r6, r9
10001038:	4645      	mov	r5, r8
1000103a:	b5e0      	push	{r5, r6, r7, lr}
1000103c:	b08b      	sub	sp, #44	; 0x2c
1000103e:	4680      	mov	r8, r0
10001040:	0016      	movs	r6, r2
10001042:	001f      	movs	r7, r3
10001044:	9b14      	ldr	r3, [sp, #80]	; 0x50
10001046:	469a      	mov	sl, r3
10001048:	9b15      	ldr	r3, [sp, #84]	; 0x54
1000104a:	4699      	mov	r9, r3
1000104c:	ab16      	add	r3, sp, #88	; 0x58
1000104e:	781b      	ldrb	r3, [r3, #0]
10001050:	469b      	mov	fp, r3
10001052:	231f      	movs	r3, #31
10001054:	aa02      	add	r2, sp, #8
10001056:	4694      	mov	ip, r2
10001058:	4463      	add	r3, ip
1000105a:	2200      	movs	r2, #0
1000105c:	701a      	strb	r2, [r3, #0]
1000105e:	e02b      	b.n	100010b8 <alarm_pool_add_alarm_at+0x88>
10001060:	2800      	cmp	r0, #0
10001062:	d009      	beq.n	10001078 <alarm_pool_add_alarm_at+0x48>
10001064:	4642      	mov	r2, r8
10001066:	6812      	ldr	r2, [r2, #0]
10001068:	7b12      	ldrb	r2, [r2, #12]
1000106a:	4290      	cmp	r0, r2
1000106c:	d804      	bhi.n	10001078 <alarm_pool_add_alarm_at+0x48>
1000106e:	1e42      	subs	r2, r0, #1
10001070:	4641      	mov	r1, r8
10001072:	68c9      	ldr	r1, [r1, #12]
10001074:	5c8a      	ldrb	r2, [r1, r2]
10001076:	e041      	b.n	100010fc <alarm_pool_add_alarm_at+0xcc>
10001078:	4b40      	ldr	r3, [pc, #256]	; (1000117c <alarm_pool_add_alarm_at+0x14c>)
1000107a:	4a41      	ldr	r2, [pc, #260]	; (10001180 <alarm_pool_add_alarm_at+0x150>)
1000107c:	2141      	movs	r1, #65	; 0x41
1000107e:	4841      	ldr	r0, [pc, #260]	; (10001184 <alarm_pool_add_alarm_at+0x154>)
10001080:	f000 ff12 	bl	10001ea8 <__assert_func>
10001084:	9807      	ldr	r0, [sp, #28]
10001086:	e04c      	b.n	10001122 <alarm_pool_add_alarm_at+0xf2>
10001088:	1b36      	subs	r6, r6, r4
1000108a:	41af      	sbcs	r7, r5
1000108c:	2f00      	cmp	r7, #0
1000108e:	db07      	blt.n	100010a0 <alarm_pool_add_alarm_at+0x70>
10001090:	2f00      	cmp	r7, #0
10001092:	da11      	bge.n	100010b8 <alarm_pool_add_alarm_at+0x88>
10001094:	4b3c      	ldr	r3, [pc, #240]	; (10001188 <alarm_pool_add_alarm_at+0x158>)
10001096:	4a3d      	ldr	r2, [pc, #244]	; (1000118c <alarm_pool_add_alarm_at+0x15c>)
10001098:	213f      	movs	r1, #63	; 0x3f
1000109a:	483d      	ldr	r0, [pc, #244]	; (10001190 <alarm_pool_add_alarm_at+0x160>)
1000109c:	f000 ff04 	bl	10001ea8 <__assert_func>
100010a0:	2601      	movs	r6, #1
100010a2:	4276      	negs	r6, r6
100010a4:	4f3b      	ldr	r7, [pc, #236]	; (10001194 <alarm_pool_add_alarm_at+0x164>)
100010a6:	e7f3      	b.n	10001090 <alarm_pool_add_alarm_at+0x60>
100010a8:	4b37      	ldr	r3, [pc, #220]	; (10001188 <alarm_pool_add_alarm_at+0x158>)
100010aa:	4a38      	ldr	r2, [pc, #224]	; (1000118c <alarm_pool_add_alarm_at+0x15c>)
100010ac:	213f      	movs	r1, #63	; 0x3f
100010ae:	4838      	ldr	r0, [pc, #224]	; (10001190 <alarm_pool_add_alarm_at+0x160>)
100010b0:	f000 fefa 	bl	10001ea8 <__assert_func>
100010b4:	2f00      	cmp	r7, #0
100010b6:	db4f      	blt.n	10001158 <alarm_pool_add_alarm_at+0x128>
100010b8:	4643      	mov	r3, r8
100010ba:	685a      	ldr	r2, [r3, #4]
100010bc:	f3ef 8410 	mrs	r4, PRIMASK
100010c0:	b672      	cpsid	i
100010c2:	6813      	ldr	r3, [r2, #0]
100010c4:	4259      	negs	r1, r3
100010c6:	414b      	adcs	r3, r1
100010c8:	b2d9      	uxtb	r1, r3
100010ca:	9107      	str	r1, [sp, #28]
100010cc:	2b00      	cmp	r3, #0
100010ce:	d1f8      	bne.n	100010c2 <alarm_pool_add_alarm_at+0x92>
100010d0:	f3bf 8f5f 	dmb	sy
100010d4:	331f      	adds	r3, #31
100010d6:	aa02      	add	r2, sp, #8
100010d8:	4694      	mov	ip, r2
100010da:	4463      	add	r3, ip
100010dc:	9304      	str	r3, [sp, #16]
100010de:	2300      	movs	r3, #0
100010e0:	9303      	str	r3, [sp, #12]
100010e2:	9302      	str	r3, [sp, #8]
100010e4:	464b      	mov	r3, r9
100010e6:	9301      	str	r3, [sp, #4]
100010e8:	4653      	mov	r3, sl
100010ea:	9300      	str	r3, [sp, #0]
100010ec:	0032      	movs	r2, r6
100010ee:	003b      	movs	r3, r7
100010f0:	4640      	mov	r0, r8
100010f2:	f7ff fd0f 	bl	10000b14 <add_alarm_under_lock>
100010f6:	1e03      	subs	r3, r0, #0
100010f8:	d1b2      	bne.n	10001060 <alarm_pool_add_alarm_at+0x30>
100010fa:	0002      	movs	r2, r0
100010fc:	4641      	mov	r1, r8
100010fe:	6849      	ldr	r1, [r1, #4]
10001100:	f3bf 8f5f 	dmb	sy
10001104:	2500      	movs	r5, #0
10001106:	600d      	str	r5, [r1, #0]
10001108:	f384 8810 	msr	PRIMASK, r4
1000110c:	2b00      	cmp	r3, #0
1000110e:	d029      	beq.n	10001164 <alarm_pool_add_alarm_at+0x134>
10001110:	231f      	movs	r3, #31
10001112:	a902      	add	r1, sp, #8
10001114:	468c      	mov	ip, r1
10001116:	4463      	add	r3, ip
10001118:	781b      	ldrb	r3, [r3, #0]
1000111a:	2b00      	cmp	r3, #0
1000111c:	d1b2      	bne.n	10001084 <alarm_pool_add_alarm_at+0x54>
1000111e:	0212      	lsls	r2, r2, #8
10001120:	4310      	orrs	r0, r2
10001122:	2b00      	cmp	r3, #0
10001124:	d020      	beq.n	10001168 <alarm_pool_add_alarm_at+0x138>
10001126:	465b      	mov	r3, fp
10001128:	2b00      	cmp	r3, #0
1000112a:	d01d      	beq.n	10001168 <alarm_pool_add_alarm_at+0x138>
1000112c:	4649      	mov	r1, r9
1000112e:	47d0      	blx	sl
10001130:	0004      	movs	r4, r0
10001132:	000d      	movs	r5, r1
10001134:	0003      	movs	r3, r0
10001136:	430b      	orrs	r3, r1
10001138:	d01d      	beq.n	10001176 <alarm_pool_add_alarm_at+0x146>
1000113a:	2900      	cmp	r1, #0
1000113c:	dba4      	blt.n	10001088 <alarm_pool_add_alarm_at+0x58>
1000113e:	f000 f94d 	bl	100013dc <time_us_64>
10001142:	0006      	movs	r6, r0
10001144:	1e0f      	subs	r7, r1, #0
10001146:	dbaf      	blt.n	100010a8 <alarm_pool_add_alarm_at+0x78>
10001148:	1936      	adds	r6, r6, r4
1000114a:	416f      	adcs	r7, r5
1000114c:	2f00      	cmp	r7, #0
1000114e:	dab1      	bge.n	100010b4 <alarm_pool_add_alarm_at+0x84>
10001150:	2601      	movs	r6, #1
10001152:	4276      	negs	r6, r6
10001154:	4f0f      	ldr	r7, [pc, #60]	; (10001194 <alarm_pool_add_alarm_at+0x164>)
10001156:	e7ad      	b.n	100010b4 <alarm_pool_add_alarm_at+0x84>
10001158:	4b0b      	ldr	r3, [pc, #44]	; (10001188 <alarm_pool_add_alarm_at+0x158>)
1000115a:	4a0c      	ldr	r2, [pc, #48]	; (1000118c <alarm_pool_add_alarm_at+0x15c>)
1000115c:	213f      	movs	r1, #63	; 0x3f
1000115e:	480c      	ldr	r0, [pc, #48]	; (10001190 <alarm_pool_add_alarm_at+0x160>)
10001160:	f000 fea2 	bl	10001ea8 <__assert_func>
10001164:	2001      	movs	r0, #1
10001166:	4240      	negs	r0, r0
10001168:	b00b      	add	sp, #44	; 0x2c
1000116a:	bcf0      	pop	{r4, r5, r6, r7}
1000116c:	46bb      	mov	fp, r7
1000116e:	46b2      	mov	sl, r6
10001170:	46a9      	mov	r9, r5
10001172:	46a0      	mov	r8, r4
10001174:	bdf0      	pop	{r4, r5, r6, r7, pc}
10001176:	9807      	ldr	r0, [sp, #28]
10001178:	e7f6      	b.n	10001168 <alarm_pool_add_alarm_at+0x138>
1000117a:	46c0      	nop			; (mov r8, r8)
1000117c:	10007428 	.word	0x10007428
10001180:	10007654 	.word	0x10007654
10001184:	100073f8 	.word	0x100073f8
10001188:	10007330 	.word	0x10007330
1000118c:	100075fc 	.word	0x100075fc
10001190:	1000734c 	.word	0x1000734c
10001194:	7fffffff 	.word	0x7fffffff

10001198 <alarm_pool_cancel_alarm>:
10001198:	b5f8      	push	{r3, r4, r5, r6, r7, lr}
1000119a:	0004      	movs	r4, r0
1000119c:	6842      	ldr	r2, [r0, #4]
1000119e:	f3ef 8510 	mrs	r5, PRIMASK
100011a2:	b672      	cpsid	i
100011a4:	6813      	ldr	r3, [r2, #0]
100011a6:	4258      	negs	r0, r3
100011a8:	4143      	adcs	r3, r0
100011aa:	b2d8      	uxtb	r0, r3
100011ac:	2b00      	cmp	r3, #0
100011ae:	d1f9      	bne.n	100011a4 <alarm_pool_cancel_alarm+0xc>
100011b0:	f3bf 8f5f 	dmb	sy
100011b4:	b2cb      	uxtb	r3, r1
100011b6:	6822      	ldr	r2, [r4, #0]
100011b8:	7b56      	ldrb	r6, [r2, #13]
100011ba:	42b3      	cmp	r3, r6
100011bc:	d11b      	bne.n	100011f6 <alarm_pool_cancel_alarm+0x5e>
100011be:	2001      	movs	r0, #1
100011c0:	2800      	cmp	r0, #0
100011c2:	d048      	beq.n	10001256 <alarm_pool_cancel_alarm+0xbe>
100011c4:	6920      	ldr	r0, [r4, #16]
100011c6:	4288      	cmp	r0, r1
100011c8:	d02b      	beq.n	10001222 <alarm_pool_cancel_alarm+0x8a>
100011ca:	0a09      	lsrs	r1, r1, #8
100011cc:	b2c9      	uxtb	r1, r1
100011ce:	2b00      	cmp	r3, #0
100011d0:	d02e      	beq.n	10001230 <alarm_pool_cancel_alarm+0x98>
100011d2:	6820      	ldr	r0, [r4, #0]
100011d4:	7b00      	ldrb	r0, [r0, #12]
100011d6:	4283      	cmp	r3, r0
100011d8:	d82a      	bhi.n	10001230 <alarm_pool_cancel_alarm+0x98>
100011da:	1e58      	subs	r0, r3, #1
100011dc:	68e6      	ldr	r6, [r4, #12]
100011de:	5c30      	ldrb	r0, [r6, r0]
100011e0:	4288      	cmp	r0, r1
100011e2:	d02b      	beq.n	1000123c <alarm_pool_cancel_alarm+0xa4>
100011e4:	2000      	movs	r0, #0
100011e6:	6863      	ldr	r3, [r4, #4]
100011e8:	f3bf 8f5f 	dmb	sy
100011ec:	2200      	movs	r2, #0
100011ee:	601a      	str	r2, [r3, #0]
100011f0:	f385 8810 	msr	PRIMASK, r5
100011f4:	bdf8      	pop	{r3, r4, r5, r6, r7, pc}
100011f6:	2b00      	cmp	r3, #0
100011f8:	d00d      	beq.n	10001216 <alarm_pool_cancel_alarm+0x7e>
100011fa:	7b16      	ldrb	r6, [r2, #12]
100011fc:	42b3      	cmp	r3, r6
100011fe:	d80a      	bhi.n	10001216 <alarm_pool_cancel_alarm+0x7e>
10001200:	005e      	lsls	r6, r3, #1
10001202:	18f6      	adds	r6, r6, r3
10001204:	3e03      	subs	r6, #3
10001206:	6817      	ldr	r7, [r2, #0]
10001208:	46bc      	mov	ip, r7
1000120a:	4466      	add	r6, ip
1000120c:	78b6      	ldrb	r6, [r6, #2]
1000120e:	2e00      	cmp	r6, #0
10001210:	d0d6      	beq.n	100011c0 <alarm_pool_cancel_alarm+0x28>
10001212:	2001      	movs	r0, #1
10001214:	e7d4      	b.n	100011c0 <alarm_pool_cancel_alarm+0x28>
10001216:	4b13      	ldr	r3, [pc, #76]	; (10001264 <alarm_pool_cancel_alarm+0xcc>)
10001218:	4a13      	ldr	r2, [pc, #76]	; (10001268 <alarm_pool_cancel_alarm+0xd0>)
1000121a:	2168      	movs	r1, #104	; 0x68
1000121c:	4813      	ldr	r0, [pc, #76]	; (1000126c <alarm_pool_cancel_alarm+0xd4>)
1000121e:	f000 fe43 	bl	10001ea8 <__assert_func>
10001222:	2195      	movs	r1, #149	; 0x95
10001224:	4b12      	ldr	r3, [pc, #72]	; (10001270 <alarm_pool_cancel_alarm+0xd8>)
10001226:	4a13      	ldr	r2, [pc, #76]	; (10001274 <alarm_pool_cancel_alarm+0xdc>)
10001228:	0049      	lsls	r1, r1, #1
1000122a:	4813      	ldr	r0, [pc, #76]	; (10001278 <alarm_pool_cancel_alarm+0xe0>)
1000122c:	f000 fe3c 	bl	10001ea8 <__assert_func>
10001230:	4b12      	ldr	r3, [pc, #72]	; (1000127c <alarm_pool_cancel_alarm+0xe4>)
10001232:	4a13      	ldr	r2, [pc, #76]	; (10001280 <alarm_pool_cancel_alarm+0xe8>)
10001234:	2141      	movs	r1, #65	; 0x41
10001236:	4810      	ldr	r0, [pc, #64]	; (10001278 <alarm_pool_cancel_alarm+0xe0>)
10001238:	f000 fe36 	bl	10001ea8 <__assert_func>
1000123c:	0019      	movs	r1, r3
1000123e:	0010      	movs	r0, r2
10001240:	f000 fb58 	bl	100018f4 <ph_remove_and_free_node>
10001244:	2800      	cmp	r0, #0
10001246:	d1ce      	bne.n	100011e6 <alarm_pool_cancel_alarm+0x4e>
10001248:	2132      	movs	r1, #50	; 0x32
1000124a:	4b0e      	ldr	r3, [pc, #56]	; (10001284 <alarm_pool_cancel_alarm+0xec>)
1000124c:	4a09      	ldr	r2, [pc, #36]	; (10001274 <alarm_pool_cancel_alarm+0xdc>)
1000124e:	31ff      	adds	r1, #255	; 0xff
10001250:	4809      	ldr	r0, [pc, #36]	; (10001278 <alarm_pool_cancel_alarm+0xe0>)
10001252:	f000 fe29 	bl	10001ea8 <__assert_func>
10001256:	6923      	ldr	r3, [r4, #16]
10001258:	428b      	cmp	r3, r1
1000125a:	d1c4      	bne.n	100011e6 <alarm_pool_cancel_alarm+0x4e>
1000125c:	2300      	movs	r3, #0
1000125e:	6123      	str	r3, [r4, #16]
10001260:	e7c1      	b.n	100011e6 <alarm_pool_cancel_alarm+0x4e>
10001262:	46c0      	nop			; (mov r8, r8)
10001264:	1000744c 	.word	0x1000744c
10001268:	1000769c 	.word	0x1000769c
1000126c:	10007468 	.word	0x10007468
10001270:	100075bc 	.word	0x100075bc
10001274:	100075e4 	.word	0x100075e4
10001278:	100073f8 	.word	0x100073f8
1000127c:	10007428 	.word	0x10007428
10001280:	10007654 	.word	0x10007654
10001284:	100075e0 	.word	0x100075e0

10001288 <best_effort_wfe_or_timeout>:
10001288:	b570      	push	{r4, r5, r6, lr}
1000128a:	b084      	sub	sp, #16
1000128c:	0005      	movs	r5, r0
1000128e:	000c      	movs	r4, r1
10001290:	f3ef 8305 	mrs	r3, IPSR
10001294:	2b00      	cmp	r3, #0
10001296:	d11e      	bne.n	100012d6 <best_effort_wfe_or_timeout+0x4e>
10001298:	f7ff feb4 	bl	10001004 <alarm_pool_get_default>
1000129c:	2300      	movs	r3, #0
1000129e:	9302      	str	r3, [sp, #8]
100012a0:	9301      	str	r3, [sp, #4]
100012a2:	4b22      	ldr	r3, [pc, #136]	; (1000132c <best_effort_wfe_or_timeout+0xa4>)
100012a4:	9300      	str	r3, [sp, #0]
100012a6:	002a      	movs	r2, r5
100012a8:	0023      	movs	r3, r4
100012aa:	f7ff fec1 	bl	10001030 <alarm_pool_add_alarm_at>
100012ae:	1e06      	subs	r6, r0, #0
100012b0:	dd23      	ble.n	100012fa <best_effort_wfe_or_timeout+0x72>
100012b2:	bf20      	wfe
100012b4:	f7ff fea6 	bl	10001004 <alarm_pool_get_default>
100012b8:	0031      	movs	r1, r6
100012ba:	f7ff ff6d 	bl	10001198 <alarm_pool_cancel_alarm>
100012be:	4b1c      	ldr	r3, [pc, #112]	; (10001330 <best_effort_wfe_or_timeout+0xa8>)
100012c0:	6a5b      	ldr	r3, [r3, #36]	; 0x24
100012c2:	429c      	cmp	r4, r3
100012c4:	d82d      	bhi.n	10001322 <best_effort_wfe_or_timeout+0x9a>
100012c6:	4a1a      	ldr	r2, [pc, #104]	; (10001330 <best_effort_wfe_or_timeout+0xa8>)
100012c8:	6a92      	ldr	r2, [r2, #40]	; 0x28
100012ca:	42aa      	cmp	r2, r5
100012cc:	d22c      	bcs.n	10001328 <best_effort_wfe_or_timeout+0xa0>
100012ce:	429c      	cmp	r4, r3
100012d0:	d025      	beq.n	1000131e <best_effort_wfe_or_timeout+0x96>
100012d2:	2001      	movs	r0, #1
100012d4:	e026      	b.n	10001324 <best_effort_wfe_or_timeout+0x9c>
100012d6:	4b16      	ldr	r3, [pc, #88]	; (10001330 <best_effort_wfe_or_timeout+0xa8>)
100012d8:	6a5b      	ldr	r3, [r3, #36]	; 0x24
100012da:	4299      	cmp	r1, r3
100012dc:	d809      	bhi.n	100012f2 <best_effort_wfe_or_timeout+0x6a>
100012de:	4a14      	ldr	r2, [pc, #80]	; (10001330 <best_effort_wfe_or_timeout+0xa8>)
100012e0:	6a92      	ldr	r2, [r2, #40]	; 0x28
100012e2:	4282      	cmp	r2, r0
100012e4:	d207      	bcs.n	100012f6 <best_effort_wfe_or_timeout+0x6e>
100012e6:	4299      	cmp	r1, r3
100012e8:	d001      	beq.n	100012ee <best_effort_wfe_or_timeout+0x66>
100012ea:	2001      	movs	r0, #1
100012ec:	e01a      	b.n	10001324 <best_effort_wfe_or_timeout+0x9c>
100012ee:	2000      	movs	r0, #0
100012f0:	e018      	b.n	10001324 <best_effort_wfe_or_timeout+0x9c>
100012f2:	2000      	movs	r0, #0
100012f4:	e016      	b.n	10001324 <best_effort_wfe_or_timeout+0x9c>
100012f6:	2001      	movs	r0, #1
100012f8:	e014      	b.n	10001324 <best_effort_wfe_or_timeout+0x9c>
100012fa:	4b0d      	ldr	r3, [pc, #52]	; (10001330 <best_effort_wfe_or_timeout+0xa8>)
100012fc:	6a5b      	ldr	r3, [r3, #36]	; 0x24
100012fe:	429c      	cmp	r4, r3
10001300:	d809      	bhi.n	10001316 <best_effort_wfe_or_timeout+0x8e>
10001302:	4a0b      	ldr	r2, [pc, #44]	; (10001330 <best_effort_wfe_or_timeout+0xa8>)
10001304:	6a92      	ldr	r2, [r2, #40]	; 0x28
10001306:	42aa      	cmp	r2, r5
10001308:	d207      	bcs.n	1000131a <best_effort_wfe_or_timeout+0x92>
1000130a:	429c      	cmp	r4, r3
1000130c:	d001      	beq.n	10001312 <best_effort_wfe_or_timeout+0x8a>
1000130e:	2001      	movs	r0, #1
10001310:	e008      	b.n	10001324 <best_effort_wfe_or_timeout+0x9c>
10001312:	2000      	movs	r0, #0
10001314:	e006      	b.n	10001324 <best_effort_wfe_or_timeout+0x9c>
10001316:	2000      	movs	r0, #0
10001318:	e004      	b.n	10001324 <best_effort_wfe_or_timeout+0x9c>
1000131a:	2001      	movs	r0, #1
1000131c:	e002      	b.n	10001324 <best_effort_wfe_or_timeout+0x9c>
1000131e:	2000      	movs	r0, #0
10001320:	e000      	b.n	10001324 <best_effort_wfe_or_timeout+0x9c>
10001322:	2000      	movs	r0, #0
10001324:	b004      	add	sp, #16
10001326:	bd70      	pop	{r4, r5, r6, pc}
10001328:	2001      	movs	r0, #1
1000132a:	e7fb      	b.n	10001324 <best_effort_wfe_or_timeout+0x9c>
1000132c:	10000985 	.word	0x10000985
10001330:	40054000 	.word	0x40054000

10001334 <hardware_alarm_irq_handler>:
10001334:	b570      	push	{r4, r5, r6, lr}
10001336:	f3ef 8005 	mrs	r0, IPSR
1000133a:	3810      	subs	r0, #16
1000133c:	f3ef 8c10 	mrs	ip, PRIMASK
10001340:	b672      	cpsid	i
10001342:	4b1a      	ldr	r3, [pc, #104]	; (100013ac <hardware_alarm_irq_handler+0x78>)
10001344:	681b      	ldr	r3, [r3, #0]
10001346:	2b00      	cmp	r3, #0
10001348:	d0fb      	beq.n	10001342 <hardware_alarm_irq_handler+0xe>
1000134a:	f3bf 8f5f 	dmb	sy
1000134e:	2201      	movs	r2, #1
10001350:	0013      	movs	r3, r2
10001352:	4083      	lsls	r3, r0
10001354:	4916      	ldr	r1, [pc, #88]	; (100013b0 <hardware_alarm_irq_handler+0x7c>)
10001356:	634b      	str	r3, [r1, #52]	; 0x34
10001358:	4916      	ldr	r1, [pc, #88]	; (100013b4 <hardware_alarm_irq_handler+0x80>)
1000135a:	600b      	str	r3, [r1, #0]
1000135c:	4916      	ldr	r1, [pc, #88]	; (100013b8 <hardware_alarm_irq_handler+0x84>)
1000135e:	7809      	ldrb	r1, [r1, #0]
10001360:	000c      	movs	r4, r1
10001362:	40c4      	lsrs	r4, r0
10001364:	4222      	tst	r2, r4
10001366:	d014      	beq.n	10001392 <hardware_alarm_irq_handler+0x5e>
10001368:	4a11      	ldr	r2, [pc, #68]	; (100013b0 <hardware_alarm_irq_handler+0x7c>)
1000136a:	6a54      	ldr	r4, [r2, #36]	; 0x24
1000136c:	0082      	lsls	r2, r0, #2
1000136e:	4d13      	ldr	r5, [pc, #76]	; (100013bc <hardware_alarm_irq_handler+0x88>)
10001370:	5952      	ldr	r2, [r2, r5]
10001372:	4294      	cmp	r4, r2
10001374:	d306      	bcc.n	10001384 <hardware_alarm_irq_handler+0x50>
10001376:	0082      	lsls	r2, r0, #2
10001378:	4c11      	ldr	r4, [pc, #68]	; (100013c0 <hardware_alarm_irq_handler+0x8c>)
1000137a:	5912      	ldr	r2, [r2, r4]
1000137c:	4399      	bics	r1, r3
1000137e:	4b0e      	ldr	r3, [pc, #56]	; (100013b8 <hardware_alarm_irq_handler+0x84>)
10001380:	7019      	strb	r1, [r3, #0]
10001382:	e007      	b.n	10001394 <hardware_alarm_irq_handler+0x60>
10001384:	4a0a      	ldr	r2, [pc, #40]	; (100013b0 <hardware_alarm_irq_handler+0x7c>)
10001386:	1d03      	adds	r3, r0, #4
10001388:	009b      	lsls	r3, r3, #2
1000138a:	5899      	ldr	r1, [r3, r2]
1000138c:	5099      	str	r1, [r3, r2]
1000138e:	2200      	movs	r2, #0
10001390:	e000      	b.n	10001394 <hardware_alarm_irq_handler+0x60>
10001392:	2200      	movs	r2, #0
10001394:	f3bf 8f5f 	dmb	sy
10001398:	4b04      	ldr	r3, [pc, #16]	; (100013ac <hardware_alarm_irq_handler+0x78>)
1000139a:	2100      	movs	r1, #0
1000139c:	6019      	str	r1, [r3, #0]
1000139e:	f38c 8810 	msr	PRIMASK, ip
100013a2:	2a00      	cmp	r2, #0
100013a4:	d000      	beq.n	100013a8 <hardware_alarm_irq_handler+0x74>
100013a6:	4790      	blx	r2
100013a8:	bd70      	pop	{r4, r5, r6, pc}
100013aa:	46c0      	nop			; (mov r8, r8)
100013ac:	d0000128 	.word	0xd0000128
100013b0:	40054000 	.word	0x40054000
100013b4:	4005703c 	.word	0x4005703c
100013b8:	200010fa 	.word	0x200010fa
100013bc:	200010dc 	.word	0x200010dc
100013c0:	20000e34 	.word	0x20000e34

100013c4 <hardware_alarm_claim>:
100013c4:	b510      	push	{r4, lr}
100013c6:	0001      	movs	r1, r0
100013c8:	4a02      	ldr	r2, [pc, #8]	; (100013d4 <hardware_alarm_claim+0x10>)
100013ca:	4803      	ldr	r0, [pc, #12]	; (100013d8 <hardware_alarm_claim+0x14>)
100013cc:	f7ff f854 	bl	10000478 <hw_claim_or_assert>
100013d0:	bd10      	pop	{r4, pc}
100013d2:	46c0      	nop			; (mov r8, r8)
100013d4:	100076c0 	.word	0x100076c0
100013d8:	200010f8 	.word	0x200010f8

100013dc <time_us_64>:
100013dc:	4b04      	ldr	r3, [pc, #16]	; (100013f0 <time_us_64+0x14>)
100013de:	6a5b      	ldr	r3, [r3, #36]	; 0x24
100013e0:	4a03      	ldr	r2, [pc, #12]	; (100013f0 <time_us_64+0x14>)
100013e2:	6a90      	ldr	r0, [r2, #40]	; 0x28
100013e4:	0019      	movs	r1, r3
100013e6:	6a53      	ldr	r3, [r2, #36]	; 0x24
100013e8:	4299      	cmp	r1, r3
100013ea:	d1f9      	bne.n	100013e0 <time_us_64+0x4>
100013ec:	4770      	bx	lr
100013ee:	46c0      	nop			; (mov r8, r8)
100013f0:	40054000 	.word	0x40054000

100013f4 <hardware_alarm_set_callback>:
100013f4:	b570      	push	{r4, r5, r6, lr}
100013f6:	0004      	movs	r4, r0
100013f8:	000d      	movs	r5, r1
100013fa:	f3ef 8610 	mrs	r6, PRIMASK
100013fe:	b672      	cpsid	i
10001400:	4b1b      	ldr	r3, [pc, #108]	; (10001470 <hardware_alarm_set_callback+0x7c>)
10001402:	681b      	ldr	r3, [r3, #0]
10001404:	2b00      	cmp	r3, #0
10001406:	d0fb      	beq.n	10001400 <hardware_alarm_set_callback+0xc>
10001408:	f3bf 8f5f 	dmb	sy
1000140c:	2d00      	cmp	r5, #0
1000140e:	d01c      	beq.n	1000144a <hardware_alarm_set_callback+0x56>
10001410:	0020      	movs	r0, r4
10001412:	f7ff f8e5 	bl	100005e0 <irq_get_vtable_handler>
10001416:	4b17      	ldr	r3, [pc, #92]	; (10001474 <hardware_alarm_set_callback+0x80>)
10001418:	4283      	cmp	r3, r0
1000141a:	d00b      	beq.n	10001434 <hardware_alarm_set_callback+0x40>
1000141c:	0019      	movs	r1, r3
1000141e:	0020      	movs	r0, r4
10001420:	f7ff f8e6 	bl	100005f0 <irq_set_exclusive_handler>
10001424:	2101      	movs	r1, #1
10001426:	0020      	movs	r0, r4
10001428:	f7ff f8d2 	bl	100005d0 <irq_set_enabled>
1000142c:	2301      	movs	r3, #1
1000142e:	40a3      	lsls	r3, r4
10001430:	4a11      	ldr	r2, [pc, #68]	; (10001478 <hardware_alarm_set_callback+0x84>)
10001432:	6013      	str	r3, [r2, #0]
10001434:	00a4      	lsls	r4, r4, #2
10001436:	4b11      	ldr	r3, [pc, #68]	; (1000147c <hardware_alarm_set_callback+0x88>)
10001438:	50e5      	str	r5, [r4, r3]
1000143a:	f3bf 8f5f 	dmb	sy
1000143e:	4b0c      	ldr	r3, [pc, #48]	; (10001470 <hardware_alarm_set_callback+0x7c>)
10001440:	2200      	movs	r2, #0
10001442:	601a      	str	r2, [r3, #0]
10001444:	f386 8810 	msr	PRIMASK, r6
10001448:	bd70      	pop	{r4, r5, r6, pc}
1000144a:	00a2      	lsls	r2, r4, #2
1000144c:	4b0b      	ldr	r3, [pc, #44]	; (1000147c <hardware_alarm_set_callback+0x88>)
1000144e:	2100      	movs	r1, #0
10001450:	50d1      	str	r1, [r2, r3]
10001452:	2201      	movs	r2, #1
10001454:	40a2      	lsls	r2, r4
10001456:	490a      	ldr	r1, [pc, #40]	; (10001480 <hardware_alarm_set_callback+0x8c>)
10001458:	780b      	ldrb	r3, [r1, #0]
1000145a:	4393      	bics	r3, r2
1000145c:	700b      	strb	r3, [r1, #0]
1000145e:	4905      	ldr	r1, [pc, #20]	; (10001474 <hardware_alarm_set_callback+0x80>)
10001460:	0020      	movs	r0, r4
10001462:	f7ff f8ef 	bl	10000644 <irq_remove_handler>
10001466:	2100      	movs	r1, #0
10001468:	0020      	movs	r0, r4
1000146a:	f7ff f8b1 	bl	100005d0 <irq_set_enabled>
1000146e:	e7e4      	b.n	1000143a <hardware_alarm_set_callback+0x46>
10001470:	d0000128 	.word	0xd0000128
10001474:	10001335 	.word	0x10001335
10001478:	40056038 	.word	0x40056038
1000147c:	20000e34 	.word	0x20000e34
10001480:	200010fa 	.word	0x200010fa

10001484 <hardware_alarm_set_target>:
10001484:	b5f0      	push	{r4, r5, r6, r7, lr}
10001486:	46de      	mov	lr, fp
10001488:	b500      	push	{lr}
1000148a:	b084      	sub	sp, #16
1000148c:	0004      	movs	r4, r0
1000148e:	0015      	movs	r5, r2
10001490:	9201      	str	r2, [sp, #4]
10001492:	001e      	movs	r6, r3
10001494:	9302      	str	r3, [sp, #8]
10001496:	f7ff ffa1 	bl	100013dc <time_us_64>
1000149a:	9503      	str	r5, [sp, #12]
1000149c:	428e      	cmp	r6, r1
1000149e:	d802      	bhi.n	100014a6 <hardware_alarm_set_target+0x22>
100014a0:	d14e      	bne.n	10001540 <hardware_alarm_set_target+0xbc>
100014a2:	4285      	cmp	r5, r0
100014a4:	d94c      	bls.n	10001540 <hardware_alarm_set_target+0xbc>
100014a6:	f3ef 8b10 	mrs	fp, PRIMASK
100014aa:	b672      	cpsid	i
100014ac:	4b27      	ldr	r3, [pc, #156]	; (1000154c <hardware_alarm_set_target+0xc8>)
100014ae:	681b      	ldr	r3, [r3, #0]
100014b0:	2b00      	cmp	r3, #0
100014b2:	d0fb      	beq.n	100014ac <hardware_alarm_set_target+0x28>
100014b4:	f3bf 8f5f 	dmb	sy
100014b8:	4a25      	ldr	r2, [pc, #148]	; (10001550 <hardware_alarm_set_target+0xcc>)
100014ba:	7817      	ldrb	r7, [r2, #0]
100014bc:	2501      	movs	r5, #1
100014be:	40a5      	lsls	r5, r4
100014c0:	b2eb      	uxtb	r3, r5
100014c2:	433b      	orrs	r3, r7
100014c4:	7013      	strb	r3, [r2, #0]
100014c6:	4b23      	ldr	r3, [pc, #140]	; (10001554 <hardware_alarm_set_target+0xd0>)
100014c8:	635d      	str	r5, [r3, #52]	; 0x34
100014ca:	1d22      	adds	r2, r4, #4
100014cc:	0092      	lsls	r2, r2, #2
100014ce:	9901      	ldr	r1, [sp, #4]
100014d0:	50d1      	str	r1, [r2, r3]
100014d2:	00a2      	lsls	r2, r4, #2
100014d4:	4920      	ldr	r1, [pc, #128]	; (10001558 <hardware_alarm_set_target+0xd4>)
100014d6:	9802      	ldr	r0, [sp, #8]
100014d8:	5050      	str	r0, [r2, r1]
100014da:	6a1b      	ldr	r3, [r3, #32]
100014dc:	422b      	tst	r3, r5
100014de:	d112      	bne.n	10001506 <hardware_alarm_set_target+0x82>
100014e0:	4b1c      	ldr	r3, [pc, #112]	; (10001554 <hardware_alarm_set_target+0xd0>)
100014e2:	6c1b      	ldr	r3, [r3, #64]	; 0x40
100014e4:	422b      	tst	r3, r5
100014e6:	d008      	beq.n	100014fa <hardware_alarm_set_target+0x76>
100014e8:	2000      	movs	r0, #0
100014ea:	f3bf 8f5f 	dmb	sy
100014ee:	4b17      	ldr	r3, [pc, #92]	; (1000154c <hardware_alarm_set_target+0xc8>)
100014f0:	2200      	movs	r2, #0
100014f2:	601a      	str	r2, [r3, #0]
100014f4:	f38b 8810 	msr	PRIMASK, fp
100014f8:	e023      	b.n	10001542 <hardware_alarm_set_target+0xbe>
100014fa:	4b18      	ldr	r3, [pc, #96]	; (1000155c <hardware_alarm_set_target+0xd8>)
100014fc:	4a18      	ldr	r2, [pc, #96]	; (10001560 <hardware_alarm_set_target+0xdc>)
100014fe:	21c5      	movs	r1, #197	; 0xc5
10001500:	4818      	ldr	r0, [pc, #96]	; (10001564 <hardware_alarm_set_target+0xe0>)
10001502:	f000 fcd1 	bl	10001ea8 <__assert_func>
10001506:	f7ff ff69 	bl	100013dc <time_us_64>
1000150a:	428e      	cmp	r6, r1
1000150c:	d814      	bhi.n	10001538 <hardware_alarm_set_target+0xb4>
1000150e:	d102      	bne.n	10001516 <hardware_alarm_set_target+0x92>
10001510:	9b03      	ldr	r3, [sp, #12]
10001512:	4283      	cmp	r3, r0
10001514:	d810      	bhi.n	10001538 <hardware_alarm_set_target+0xb4>
10001516:	4b0e      	ldr	r3, [pc, #56]	; (10001550 <hardware_alarm_set_target+0xcc>)
10001518:	781b      	ldrb	r3, [r3, #0]
1000151a:	42bb      	cmp	r3, r7
1000151c:	d00e      	beq.n	1000153c <hardware_alarm_set_target+0xb8>
1000151e:	4b0d      	ldr	r3, [pc, #52]	; (10001554 <hardware_alarm_set_target+0xd0>)
10001520:	621d      	str	r5, [r3, #32]
10001522:	635d      	str	r5, [r3, #52]	; 0x34
10001524:	201f      	movs	r0, #31
10001526:	4004      	ands	r4, r0
10001528:	2301      	movs	r3, #1
1000152a:	40a3      	lsls	r3, r4
1000152c:	4a0e      	ldr	r2, [pc, #56]	; (10001568 <hardware_alarm_set_target+0xe4>)
1000152e:	6013      	str	r3, [r2, #0]
10001530:	4b07      	ldr	r3, [pc, #28]	; (10001550 <hardware_alarm_set_target+0xcc>)
10001532:	701f      	strb	r7, [r3, #0]
10001534:	381e      	subs	r0, #30
10001536:	e7d8      	b.n	100014ea <hardware_alarm_set_target+0x66>
10001538:	2000      	movs	r0, #0
1000153a:	e7d6      	b.n	100014ea <hardware_alarm_set_target+0x66>
1000153c:	2001      	movs	r0, #1
1000153e:	e7d4      	b.n	100014ea <hardware_alarm_set_target+0x66>
10001540:	2001      	movs	r0, #1
10001542:	b004      	add	sp, #16
10001544:	bc80      	pop	{r7}
10001546:	46bb      	mov	fp, r7
10001548:	bdf0      	pop	{r4, r5, r6, r7, pc}
1000154a:	46c0      	nop			; (mov r8, r8)
1000154c:	d0000128 	.word	0xd0000128
10001550:	200010fa 	.word	0x200010fa
10001554:	40054000 	.word	0x40054000
10001558:	200010dc 	.word	0x200010dc
1000155c:	100076e4 	.word	0x100076e4
10001560:	10007740 	.word	0x10007740
10001564:	10007708 	.word	0x10007708
10001568:	e000e280 	.word	0xe000e280

1000156c <hardware_alarm_cancel>:
1000156c:	f3ef 8c10 	mrs	ip, PRIMASK
10001570:	b672      	cpsid	i
10001572:	4b0b      	ldr	r3, [pc, #44]	; (100015a0 <hardware_alarm_cancel+0x34>)
10001574:	681b      	ldr	r3, [r3, #0]
10001576:	2b00      	cmp	r3, #0
10001578:	d0fb      	beq.n	10001572 <hardware_alarm_cancel+0x6>
1000157a:	f3bf 8f5f 	dmb	sy
1000157e:	2301      	movs	r3, #1
10001580:	4083      	lsls	r3, r0
10001582:	4a08      	ldr	r2, [pc, #32]	; (100015a4 <hardware_alarm_cancel+0x38>)
10001584:	6213      	str	r3, [r2, #32]
10001586:	4908      	ldr	r1, [pc, #32]	; (100015a8 <hardware_alarm_cancel+0x3c>)
10001588:	780a      	ldrb	r2, [r1, #0]
1000158a:	439a      	bics	r2, r3
1000158c:	700a      	strb	r2, [r1, #0]
1000158e:	f3bf 8f5f 	dmb	sy
10001592:	4b03      	ldr	r3, [pc, #12]	; (100015a0 <hardware_alarm_cancel+0x34>)
10001594:	2200      	movs	r2, #0
10001596:	601a      	str	r2, [r3, #0]
10001598:	f38c 8810 	msr	PRIMASK, ip
1000159c:	4770      	bx	lr
1000159e:	46c0      	nop			; (mov r8, r8)
100015a0:	d0000128 	.word	0xd0000128
100015a4:	40054000 	.word	0x40054000
100015a8:	200010fa 	.word	0x200010fa

100015ac <ph_add_child_node>:
100015ac:	b510      	push	{r4, lr}
100015ae:	2900      	cmp	r1, #0
100015b0:	d01e      	beq.n	100015f0 <ph_add_child_node+0x44>
100015b2:	7b03      	ldrb	r3, [r0, #12]
100015b4:	4299      	cmp	r1, r3
100015b6:	d81b      	bhi.n	100015f0 <ph_add_child_node+0x44>
100015b8:	004b      	lsls	r3, r1, #1
100015ba:	185b      	adds	r3, r3, r1
100015bc:	3b03      	subs	r3, #3
100015be:	6804      	ldr	r4, [r0, #0]
100015c0:	46a4      	mov	ip, r4
100015c2:	4463      	add	r3, ip
100015c4:	2900      	cmp	r1, #0
100015c6:	d019      	beq.n	100015fc <ph_add_child_node+0x50>
100015c8:	2a00      	cmp	r2, #0
100015ca:	d01d      	beq.n	10001608 <ph_add_child_node+0x5c>
100015cc:	4291      	cmp	r1, r2
100015ce:	d021      	beq.n	10001614 <ph_add_child_node+0x68>
100015d0:	2a00      	cmp	r2, #0
100015d2:	d025      	beq.n	10001620 <ph_add_child_node+0x74>
100015d4:	7b04      	ldrb	r4, [r0, #12]
100015d6:	42a2      	cmp	r2, r4
100015d8:	d822      	bhi.n	10001620 <ph_add_child_node+0x74>
100015da:	6804      	ldr	r4, [r0, #0]
100015dc:	0050      	lsls	r0, r2, #1
100015de:	1880      	adds	r0, r0, r2
100015e0:	3803      	subs	r0, #3
100015e2:	1820      	adds	r0, r4, r0
100015e4:	7081      	strb	r1, [r0, #2]
100015e6:	7819      	ldrb	r1, [r3, #0]
100015e8:	2900      	cmp	r1, #0
100015ea:	d11f      	bne.n	1000162c <ph_add_child_node+0x80>
100015ec:	701a      	strb	r2, [r3, #0]
100015ee:	bd10      	pop	{r4, pc}
100015f0:	4b10      	ldr	r3, [pc, #64]	; (10001634 <ph_add_child_node+0x88>)
100015f2:	4a11      	ldr	r2, [pc, #68]	; (10001638 <ph_add_child_node+0x8c>)
100015f4:	2168      	movs	r1, #104	; 0x68
100015f6:	4811      	ldr	r0, [pc, #68]	; (1000163c <ph_add_child_node+0x90>)
100015f8:	f000 fc56 	bl	10001ea8 <__assert_func>
100015fc:	4b10      	ldr	r3, [pc, #64]	; (10001640 <ph_add_child_node+0x94>)
100015fe:	4a11      	ldr	r2, [pc, #68]	; (10001644 <ph_add_child_node+0x98>)
10001600:	316f      	adds	r1, #111	; 0x6f
10001602:	480e      	ldr	r0, [pc, #56]	; (1000163c <ph_add_child_node+0x90>)
10001604:	f000 fc50 	bl	10001ea8 <__assert_func>
10001608:	4b0f      	ldr	r3, [pc, #60]	; (10001648 <ph_add_child_node+0x9c>)
1000160a:	4a0e      	ldr	r2, [pc, #56]	; (10001644 <ph_add_child_node+0x98>)
1000160c:	2170      	movs	r1, #112	; 0x70
1000160e:	480b      	ldr	r0, [pc, #44]	; (1000163c <ph_add_child_node+0x90>)
10001610:	f000 fc4a 	bl	10001ea8 <__assert_func>
10001614:	4b0d      	ldr	r3, [pc, #52]	; (1000164c <ph_add_child_node+0xa0>)
10001616:	4a0b      	ldr	r2, [pc, #44]	; (10001644 <ph_add_child_node+0x98>)
10001618:	2171      	movs	r1, #113	; 0x71
1000161a:	4808      	ldr	r0, [pc, #32]	; (1000163c <ph_add_child_node+0x90>)
1000161c:	f000 fc44 	bl	10001ea8 <__assert_func>
10001620:	4b04      	ldr	r3, [pc, #16]	; (10001634 <ph_add_child_node+0x88>)
10001622:	4a05      	ldr	r2, [pc, #20]	; (10001638 <ph_add_child_node+0x8c>)
10001624:	2168      	movs	r1, #104	; 0x68
10001626:	4805      	ldr	r0, [pc, #20]	; (1000163c <ph_add_child_node+0x90>)
10001628:	f000 fc3e 	bl	10001ea8 <__assert_func>
1000162c:	7041      	strb	r1, [r0, #1]
1000162e:	701a      	strb	r2, [r3, #0]
10001630:	e7dd      	b.n	100015ee <ph_add_child_node+0x42>
10001632:	46c0      	nop			; (mov r8, r8)
10001634:	1000744c 	.word	0x1000744c
10001638:	10007840 	.word	0x10007840
1000163c:	10007468 	.word	0x10007468
10001640:	100074a8 	.word	0x100074a8
10001644:	1000782c 	.word	0x1000782c
10001648:	100074b4 	.word	0x100074b4
1000164c:	100074c0 	.word	0x100074c0

10001650 <ph_merge_nodes>:
10001650:	b570      	push	{r4, r5, r6, lr}
10001652:	0006      	movs	r6, r0
10001654:	000d      	movs	r5, r1
10001656:	0014      	movs	r4, r2
10001658:	2900      	cmp	r1, #0
1000165a:	d014      	beq.n	10001686 <ph_merge_nodes+0x36>
1000165c:	2a00      	cmp	r2, #0
1000165e:	d014      	beq.n	1000168a <ph_merge_nodes+0x3a>
10001660:	6880      	ldr	r0, [r0, #8]
10001662:	6873      	ldr	r3, [r6, #4]
10001664:	4798      	blx	r3
10001666:	2800      	cmp	r0, #0
10001668:	d006      	beq.n	10001678 <ph_merge_nodes+0x28>
1000166a:	0022      	movs	r2, r4
1000166c:	0029      	movs	r1, r5
1000166e:	0030      	movs	r0, r6
10001670:	f7ff ff9c 	bl	100015ac <ph_add_child_node>
10001674:	0028      	movs	r0, r5
10001676:	e007      	b.n	10001688 <ph_merge_nodes+0x38>
10001678:	002a      	movs	r2, r5
1000167a:	0021      	movs	r1, r4
1000167c:	0030      	movs	r0, r6
1000167e:	f7ff ff95 	bl	100015ac <ph_add_child_node>
10001682:	0020      	movs	r0, r4
10001684:	e000      	b.n	10001688 <ph_merge_nodes+0x38>
10001686:	0010      	movs	r0, r2
10001688:	bd70      	pop	{r4, r5, r6, pc}
1000168a:	0008      	movs	r0, r1
1000168c:	e7fc      	b.n	10001688 <ph_merge_nodes+0x38>
	...

10001690 <ph_clear>:
10001690:	b510      	push	{r4, lr}
10001692:	2300      	movs	r3, #0
10001694:	7343      	strb	r3, [r0, #13]
10001696:	3301      	adds	r3, #1
10001698:	7383      	strb	r3, [r0, #14]
1000169a:	7b03      	ldrb	r3, [r0, #12]
1000169c:	73c3      	strb	r3, [r0, #15]
1000169e:	2301      	movs	r3, #1
100016a0:	7b02      	ldrb	r2, [r0, #12]
100016a2:	429a      	cmp	r2, r3
100016a4:	d914      	bls.n	100016d0 <ph_clear+0x40>
100016a6:	2b00      	cmp	r3, #0
100016a8:	d00c      	beq.n	100016c4 <ph_clear+0x34>
100016aa:	7b02      	ldrb	r2, [r0, #12]
100016ac:	4293      	cmp	r3, r2
100016ae:	d809      	bhi.n	100016c4 <ph_clear+0x34>
100016b0:	005a      	lsls	r2, r3, #1
100016b2:	18d2      	adds	r2, r2, r3
100016b4:	3a03      	subs	r2, #3
100016b6:	6801      	ldr	r1, [r0, #0]
100016b8:	468c      	mov	ip, r1
100016ba:	4462      	add	r2, ip
100016bc:	3301      	adds	r3, #1
100016be:	b2db      	uxtb	r3, r3
100016c0:	7053      	strb	r3, [r2, #1]
100016c2:	e7ed      	b.n	100016a0 <ph_clear+0x10>
100016c4:	4b0b      	ldr	r3, [pc, #44]	; (100016f4 <ph_clear+0x64>)
100016c6:	4a0c      	ldr	r2, [pc, #48]	; (100016f8 <ph_clear+0x68>)
100016c8:	2168      	movs	r1, #104	; 0x68
100016ca:	480c      	ldr	r0, [pc, #48]	; (100016fc <ph_clear+0x6c>)
100016cc:	f000 fbec 	bl	10001ea8 <__assert_func>
100016d0:	2a00      	cmp	r2, #0
100016d2:	d009      	beq.n	100016e8 <ph_clear+0x58>
100016d4:	4292      	cmp	r2, r2
100016d6:	d807      	bhi.n	100016e8 <ph_clear+0x58>
100016d8:	6801      	ldr	r1, [r0, #0]
100016da:	0053      	lsls	r3, r2, #1
100016dc:	189a      	adds	r2, r3, r2
100016de:	3a03      	subs	r2, #3
100016e0:	188a      	adds	r2, r1, r2
100016e2:	2300      	movs	r3, #0
100016e4:	7053      	strb	r3, [r2, #1]
100016e6:	bd10      	pop	{r4, pc}
100016e8:	4b02      	ldr	r3, [pc, #8]	; (100016f4 <ph_clear+0x64>)
100016ea:	4a03      	ldr	r2, [pc, #12]	; (100016f8 <ph_clear+0x68>)
100016ec:	2168      	movs	r1, #104	; 0x68
100016ee:	4803      	ldr	r0, [pc, #12]	; (100016fc <ph_clear+0x6c>)
100016f0:	f000 fbda 	bl	10001ea8 <__assert_func>
100016f4:	1000744c 	.word	0x1000744c
100016f8:	10007840 	.word	0x10007840
100016fc:	10007468 	.word	0x10007468

10001700 <ph_post_alloc_init>:
10001700:	b510      	push	{r4, lr}
10001702:	7301      	strb	r1, [r0, #12]
10001704:	6042      	str	r2, [r0, #4]
10001706:	6083      	str	r3, [r0, #8]
10001708:	f7ff ffc2 	bl	10001690 <ph_clear>
1000170c:	bd10      	pop	{r4, pc}
	...

10001710 <ph_merge_two_pass>:
10001710:	b570      	push	{r4, r5, r6, lr}
10001712:	0004      	movs	r4, r0
10001714:	1e08      	subs	r0, r1, #0
10001716:	d100      	bne.n	1000171a <ph_merge_two_pass+0xa>
10001718:	bd70      	pop	{r4, r5, r6, pc}
1000171a:	2900      	cmp	r1, #0
1000171c:	d034      	beq.n	10001788 <ph_merge_two_pass+0x78>
1000171e:	7b23      	ldrb	r3, [r4, #12]
10001720:	4299      	cmp	r1, r3
10001722:	d831      	bhi.n	10001788 <ph_merge_two_pass+0x78>
10001724:	004b      	lsls	r3, r1, #1
10001726:	185b      	adds	r3, r3, r1
10001728:	3b03      	subs	r3, #3
1000172a:	6822      	ldr	r2, [r4, #0]
1000172c:	4694      	mov	ip, r2
1000172e:	4463      	add	r3, ip
10001730:	785a      	ldrb	r2, [r3, #1]
10001732:	2a00      	cmp	r2, #0
10001734:	d0f0      	beq.n	10001718 <ph_merge_two_pass+0x8>
10001736:	d02d      	beq.n	10001794 <ph_merge_two_pass+0x84>
10001738:	7b23      	ldrb	r3, [r4, #12]
1000173a:	429a      	cmp	r2, r3
1000173c:	d82a      	bhi.n	10001794 <ph_merge_two_pass+0x84>
1000173e:	0053      	lsls	r3, r2, #1
10001740:	189b      	adds	r3, r3, r2
10001742:	3b03      	subs	r3, #3
10001744:	6821      	ldr	r1, [r4, #0]
10001746:	468c      	mov	ip, r1
10001748:	4463      	add	r3, ip
1000174a:	785d      	ldrb	r5, [r3, #1]
1000174c:	2100      	movs	r1, #0
1000174e:	7059      	strb	r1, [r3, #1]
10001750:	2800      	cmp	r0, #0
10001752:	d025      	beq.n	100017a0 <ph_merge_two_pass+0x90>
10001754:	7b23      	ldrb	r3, [r4, #12]
10001756:	4298      	cmp	r0, r3
10001758:	d822      	bhi.n	100017a0 <ph_merge_two_pass+0x90>
1000175a:	0043      	lsls	r3, r0, #1
1000175c:	181b      	adds	r3, r3, r0
1000175e:	3b03      	subs	r3, #3
10001760:	6821      	ldr	r1, [r4, #0]
10001762:	468c      	mov	ip, r1
10001764:	4463      	add	r3, ip
10001766:	2100      	movs	r1, #0
10001768:	7059      	strb	r1, [r3, #1]
1000176a:	0001      	movs	r1, r0
1000176c:	0020      	movs	r0, r4
1000176e:	f7ff ff6f 	bl	10001650 <ph_merge_nodes>
10001772:	0006      	movs	r6, r0
10001774:	0029      	movs	r1, r5
10001776:	0020      	movs	r0, r4
10001778:	f7ff ffca 	bl	10001710 <ph_merge_two_pass>
1000177c:	0002      	movs	r2, r0
1000177e:	0031      	movs	r1, r6
10001780:	0020      	movs	r0, r4
10001782:	f7ff ff65 	bl	10001650 <ph_merge_nodes>
10001786:	e7c7      	b.n	10001718 <ph_merge_two_pass+0x8>
10001788:	4b08      	ldr	r3, [pc, #32]	; (100017ac <ph_merge_two_pass+0x9c>)
1000178a:	4a09      	ldr	r2, [pc, #36]	; (100017b0 <ph_merge_two_pass+0xa0>)
1000178c:	2168      	movs	r1, #104	; 0x68
1000178e:	4809      	ldr	r0, [pc, #36]	; (100017b4 <ph_merge_two_pass+0xa4>)
10001790:	f000 fb8a 	bl	10001ea8 <__assert_func>
10001794:	4b05      	ldr	r3, [pc, #20]	; (100017ac <ph_merge_two_pass+0x9c>)
10001796:	4a06      	ldr	r2, [pc, #24]	; (100017b0 <ph_merge_two_pass+0xa0>)
10001798:	2168      	movs	r1, #104	; 0x68
1000179a:	4806      	ldr	r0, [pc, #24]	; (100017b4 <ph_merge_two_pass+0xa4>)
1000179c:	f000 fb84 	bl	10001ea8 <__assert_func>
100017a0:	4b02      	ldr	r3, [pc, #8]	; (100017ac <ph_merge_two_pass+0x9c>)
100017a2:	4a03      	ldr	r2, [pc, #12]	; (100017b0 <ph_merge_two_pass+0xa0>)
100017a4:	2168      	movs	r1, #104	; 0x68
100017a6:	4803      	ldr	r0, [pc, #12]	; (100017b4 <ph_merge_two_pass+0xa4>)
100017a8:	f000 fb7e 	bl	10001ea8 <__assert_func>
100017ac:	1000744c 	.word	0x1000744c
100017b0:	10007840 	.word	0x10007840
100017b4:	10007468 	.word	0x10007468

100017b8 <ph_remove_any_head>:
100017b8:	b570      	push	{r4, r5, r6, lr}
100017ba:	0005      	movs	r5, r0
100017bc:	000c      	movs	r4, r1
100017be:	0016      	movs	r6, r2
100017c0:	2900      	cmp	r1, #0
100017c2:	d02f      	beq.n	10001824 <ph_remove_any_head+0x6c>
100017c4:	d034      	beq.n	10001830 <ph_remove_any_head+0x78>
100017c6:	7b03      	ldrb	r3, [r0, #12]
100017c8:	4299      	cmp	r1, r3
100017ca:	d831      	bhi.n	10001830 <ph_remove_any_head+0x78>
100017cc:	004b      	lsls	r3, r1, #1
100017ce:	185b      	adds	r3, r3, r1
100017d0:	3b03      	subs	r3, #3
100017d2:	6802      	ldr	r2, [r0, #0]
100017d4:	4694      	mov	ip, r2
100017d6:	4463      	add	r3, ip
100017d8:	785a      	ldrb	r2, [r3, #1]
100017da:	2a00      	cmp	r2, #0
100017dc:	d12e      	bne.n	1000183c <ph_remove_any_head+0x84>
100017de:	789a      	ldrb	r2, [r3, #2]
100017e0:	2a00      	cmp	r2, #0
100017e2:	d131      	bne.n	10001848 <ph_remove_any_head+0x90>
100017e4:	7819      	ldrb	r1, [r3, #0]
100017e6:	f7ff ff93 	bl	10001710 <ph_merge_two_pass>
100017ea:	0003      	movs	r3, r0
100017ec:	2e00      	cmp	r6, #0
100017ee:	d00a      	beq.n	10001806 <ph_remove_any_head+0x4e>
100017f0:	7bea      	ldrb	r2, [r5, #15]
100017f2:	2a00      	cmp	r2, #0
100017f4:	d12e      	bne.n	10001854 <ph_remove_any_head+0x9c>
100017f6:	7baa      	ldrb	r2, [r5, #14]
100017f8:	2a00      	cmp	r2, #0
100017fa:	d103      	bne.n	10001804 <ph_remove_any_head+0x4c>
100017fc:	7bea      	ldrb	r2, [r5, #15]
100017fe:	2a00      	cmp	r2, #0
10001800:	d13b      	bne.n	1000187a <ph_remove_any_head+0xc2>
10001802:	73ac      	strb	r4, [r5, #14]
10001804:	73ec      	strb	r4, [r5, #15]
10001806:	2b00      	cmp	r3, #0
10001808:	d13d      	bne.n	10001886 <ph_remove_any_head+0xce>
1000180a:	2c00      	cmp	r4, #0
1000180c:	d04f      	beq.n	100018ae <ph_remove_any_head+0xf6>
1000180e:	7b2b      	ldrb	r3, [r5, #12]
10001810:	429c      	cmp	r4, r3
10001812:	d84c      	bhi.n	100018ae <ph_remove_any_head+0xf6>
10001814:	682b      	ldr	r3, [r5, #0]
10001816:	0061      	lsls	r1, r4, #1
10001818:	190c      	adds	r4, r1, r4
1000181a:	3c03      	subs	r4, #3
1000181c:	191c      	adds	r4, r3, r4
1000181e:	2300      	movs	r3, #0
10001820:	7063      	strb	r3, [r4, #1]
10001822:	bd70      	pop	{r4, r5, r6, pc}
10001824:	4b25      	ldr	r3, [pc, #148]	; (100018bc <ph_remove_any_head+0x104>)
10001826:	4a26      	ldr	r2, [pc, #152]	; (100018c0 <ph_remove_any_head+0x108>)
10001828:	2138      	movs	r1, #56	; 0x38
1000182a:	4826      	ldr	r0, [pc, #152]	; (100018c4 <ph_remove_any_head+0x10c>)
1000182c:	f000 fb3c 	bl	10001ea8 <__assert_func>
10001830:	4b25      	ldr	r3, [pc, #148]	; (100018c8 <ph_remove_any_head+0x110>)
10001832:	4a26      	ldr	r2, [pc, #152]	; (100018cc <ph_remove_any_head+0x114>)
10001834:	2168      	movs	r1, #104	; 0x68
10001836:	4826      	ldr	r0, [pc, #152]	; (100018d0 <ph_remove_any_head+0x118>)
10001838:	f000 fb36 	bl	10001ea8 <__assert_func>
1000183c:	4b25      	ldr	r3, [pc, #148]	; (100018d4 <ph_remove_any_head+0x11c>)
1000183e:	4a20      	ldr	r2, [pc, #128]	; (100018c0 <ph_remove_any_head+0x108>)
10001840:	213a      	movs	r1, #58	; 0x3a
10001842:	4820      	ldr	r0, [pc, #128]	; (100018c4 <ph_remove_any_head+0x10c>)
10001844:	f000 fb30 	bl	10001ea8 <__assert_func>
10001848:	4b23      	ldr	r3, [pc, #140]	; (100018d8 <ph_remove_any_head+0x120>)
1000184a:	4a1d      	ldr	r2, [pc, #116]	; (100018c0 <ph_remove_any_head+0x108>)
1000184c:	213b      	movs	r1, #59	; 0x3b
1000184e:	481d      	ldr	r0, [pc, #116]	; (100018c4 <ph_remove_any_head+0x10c>)
10001850:	f000 fb2a 	bl	10001ea8 <__assert_func>
10001854:	2a00      	cmp	r2, #0
10001856:	d00a      	beq.n	1000186e <ph_remove_any_head+0xb6>
10001858:	7b29      	ldrb	r1, [r5, #12]
1000185a:	428a      	cmp	r2, r1
1000185c:	d807      	bhi.n	1000186e <ph_remove_any_head+0xb6>
1000185e:	0051      	lsls	r1, r2, #1
10001860:	188a      	adds	r2, r1, r2
10001862:	3a03      	subs	r2, #3
10001864:	6829      	ldr	r1, [r5, #0]
10001866:	468c      	mov	ip, r1
10001868:	4462      	add	r2, ip
1000186a:	7054      	strb	r4, [r2, #1]
1000186c:	e7c3      	b.n	100017f6 <ph_remove_any_head+0x3e>
1000186e:	4b16      	ldr	r3, [pc, #88]	; (100018c8 <ph_remove_any_head+0x110>)
10001870:	4a16      	ldr	r2, [pc, #88]	; (100018cc <ph_remove_any_head+0x114>)
10001872:	2168      	movs	r1, #104	; 0x68
10001874:	4816      	ldr	r0, [pc, #88]	; (100018d0 <ph_remove_any_head+0x118>)
10001876:	f000 fb17 	bl	10001ea8 <__assert_func>
1000187a:	4b18      	ldr	r3, [pc, #96]	; (100018dc <ph_remove_any_head+0x124>)
1000187c:	4a10      	ldr	r2, [pc, #64]	; (100018c0 <ph_remove_any_head+0x108>)
1000187e:	2142      	movs	r1, #66	; 0x42
10001880:	4810      	ldr	r0, [pc, #64]	; (100018c4 <ph_remove_any_head+0x10c>)
10001882:	f000 fb11 	bl	10001ea8 <__assert_func>
10001886:	2b00      	cmp	r3, #0
10001888:	d00b      	beq.n	100018a2 <ph_remove_any_head+0xea>
1000188a:	7b2a      	ldrb	r2, [r5, #12]
1000188c:	4293      	cmp	r3, r2
1000188e:	d808      	bhi.n	100018a2 <ph_remove_any_head+0xea>
10001890:	0043      	lsls	r3, r0, #1
10001892:	181b      	adds	r3, r3, r0
10001894:	3b03      	subs	r3, #3
10001896:	682a      	ldr	r2, [r5, #0]
10001898:	4694      	mov	ip, r2
1000189a:	4463      	add	r3, ip
1000189c:	2200      	movs	r2, #0
1000189e:	709a      	strb	r2, [r3, #2]
100018a0:	e7b3      	b.n	1000180a <ph_remove_any_head+0x52>
100018a2:	4b09      	ldr	r3, [pc, #36]	; (100018c8 <ph_remove_any_head+0x110>)
100018a4:	4a09      	ldr	r2, [pc, #36]	; (100018cc <ph_remove_any_head+0x114>)
100018a6:	2168      	movs	r1, #104	; 0x68
100018a8:	4809      	ldr	r0, [pc, #36]	; (100018d0 <ph_remove_any_head+0x118>)
100018aa:	f000 fafd 	bl	10001ea8 <__assert_func>
100018ae:	4b06      	ldr	r3, [pc, #24]	; (100018c8 <ph_remove_any_head+0x110>)
100018b0:	4a06      	ldr	r2, [pc, #24]	; (100018cc <ph_remove_any_head+0x114>)
100018b2:	2168      	movs	r1, #104	; 0x68
100018b4:	4806      	ldr	r0, [pc, #24]	; (100018d0 <ph_remove_any_head+0x118>)
100018b6:	f000 faf7 	bl	10001ea8 <__assert_func>
100018ba:	46c0      	nop			; (mov r8, r8)
100018bc:	1000775c 	.word	0x1000775c
100018c0:	10007818 	.word	0x10007818
100018c4:	10007764 	.word	0x10007764
100018c8:	1000744c 	.word	0x1000744c
100018cc:	10007840 	.word	0x10007840
100018d0:	10007468 	.word	0x10007468
100018d4:	10007794 	.word	0x10007794
100018d8:	100077bc 	.word	0x100077bc
100018dc:	10007584 	.word	0x10007584

100018e0 <ph_remove_head>:
100018e0:	b570      	push	{r4, r5, r6, lr}
100018e2:	0004      	movs	r4, r0
100018e4:	000a      	movs	r2, r1
100018e6:	7b45      	ldrb	r5, [r0, #13]
100018e8:	0029      	movs	r1, r5
100018ea:	f7ff ff65 	bl	100017b8 <ph_remove_any_head>
100018ee:	7360      	strb	r0, [r4, #13]
100018f0:	0028      	movs	r0, r5
100018f2:	bd70      	pop	{r4, r5, r6, pc}

100018f4 <ph_remove_and_free_node>:
100018f4:	b570      	push	{r4, r5, r6, lr}
100018f6:	0004      	movs	r4, r0
100018f8:	2900      	cmp	r1, #0
100018fa:	d067      	beq.n	100019cc <ph_remove_and_free_node+0xd8>
100018fc:	7b43      	ldrb	r3, [r0, #13]
100018fe:	428b      	cmp	r3, r1
10001900:	d00e      	beq.n	10001920 <ph_remove_and_free_node+0x2c>
10001902:	2900      	cmp	r1, #0
10001904:	d011      	beq.n	1000192a <ph_remove_and_free_node+0x36>
10001906:	7b03      	ldrb	r3, [r0, #12]
10001908:	4299      	cmp	r1, r3
1000190a:	d80e      	bhi.n	1000192a <ph_remove_and_free_node+0x36>
1000190c:	004b      	lsls	r3, r1, #1
1000190e:	185b      	adds	r3, r3, r1
10001910:	3b03      	subs	r3, #3
10001912:	6802      	ldr	r2, [r0, #0]
10001914:	18d0      	adds	r0, r2, r3
10001916:	7883      	ldrb	r3, [r0, #2]
10001918:	2b00      	cmp	r3, #0
1000191a:	d10c      	bne.n	10001936 <ph_remove_and_free_node+0x42>
1000191c:	2000      	movs	r0, #0
1000191e:	e056      	b.n	100019ce <ph_remove_and_free_node+0xda>
10001920:	2101      	movs	r1, #1
10001922:	f7ff ffdd 	bl	100018e0 <ph_remove_head>
10001926:	2001      	movs	r0, #1
10001928:	e051      	b.n	100019ce <ph_remove_and_free_node+0xda>
1000192a:	4b29      	ldr	r3, [pc, #164]	; (100019d0 <ph_remove_and_free_node+0xdc>)
1000192c:	4a29      	ldr	r2, [pc, #164]	; (100019d4 <ph_remove_and_free_node+0xe0>)
1000192e:	2168      	movs	r1, #104	; 0x68
10001930:	4829      	ldr	r0, [pc, #164]	; (100019d8 <ph_remove_and_free_node+0xe4>)
10001932:	f000 fab9 	bl	10001ea8 <__assert_func>
10001936:	2b00      	cmp	r3, #0
10001938:	d020      	beq.n	1000197c <ph_remove_and_free_node+0x88>
1000193a:	7b22      	ldrb	r2, [r4, #12]
1000193c:	4293      	cmp	r3, r2
1000193e:	d81d      	bhi.n	1000197c <ph_remove_and_free_node+0x88>
10001940:	005a      	lsls	r2, r3, #1
10001942:	18d3      	adds	r3, r2, r3
10001944:	3b03      	subs	r3, #3
10001946:	6822      	ldr	r2, [r4, #0]
10001948:	18d2      	adds	r2, r2, r3
1000194a:	6825      	ldr	r5, [r4, #0]
1000194c:	5ceb      	ldrb	r3, [r5, r3]
1000194e:	428b      	cmp	r3, r1
10001950:	d01a      	beq.n	10001988 <ph_remove_and_free_node+0x94>
10001952:	2b00      	cmp	r3, #0
10001954:	d01b      	beq.n	1000198e <ph_remove_and_free_node+0x9a>
10001956:	7b22      	ldrb	r2, [r4, #12]
10001958:	4293      	cmp	r3, r2
1000195a:	d818      	bhi.n	1000198e <ph_remove_and_free_node+0x9a>
1000195c:	005a      	lsls	r2, r3, #1
1000195e:	18d3      	adds	r3, r2, r3
10001960:	3b03      	subs	r3, #3
10001962:	6822      	ldr	r2, [r4, #0]
10001964:	18d2      	adds	r2, r2, r3
10001966:	7853      	ldrb	r3, [r2, #1]
10001968:	428b      	cmp	r3, r1
1000196a:	d016      	beq.n	1000199a <ph_remove_and_free_node+0xa6>
1000196c:	2b00      	cmp	r3, #0
1000196e:	d1f0      	bne.n	10001952 <ph_remove_and_free_node+0x5e>
10001970:	4b1a      	ldr	r3, [pc, #104]	; (100019dc <ph_remove_and_free_node+0xe8>)
10001972:	4a1b      	ldr	r2, [pc, #108]	; (100019e0 <ph_remove_and_free_node+0xec>)
10001974:	216b      	movs	r1, #107	; 0x6b
10001976:	481b      	ldr	r0, [pc, #108]	; (100019e4 <ph_remove_and_free_node+0xf0>)
10001978:	f000 fa96 	bl	10001ea8 <__assert_func>
1000197c:	4b14      	ldr	r3, [pc, #80]	; (100019d0 <ph_remove_and_free_node+0xdc>)
1000197e:	4a15      	ldr	r2, [pc, #84]	; (100019d4 <ph_remove_and_free_node+0xe0>)
10001980:	2168      	movs	r1, #104	; 0x68
10001982:	4815      	ldr	r0, [pc, #84]	; (100019d8 <ph_remove_and_free_node+0xe4>)
10001984:	f000 fa90 	bl	10001ea8 <__assert_func>
10001988:	7843      	ldrb	r3, [r0, #1]
1000198a:	7013      	strb	r3, [r2, #0]
1000198c:	e007      	b.n	1000199e <ph_remove_and_free_node+0xaa>
1000198e:	4b10      	ldr	r3, [pc, #64]	; (100019d0 <ph_remove_and_free_node+0xdc>)
10001990:	4a10      	ldr	r2, [pc, #64]	; (100019d4 <ph_remove_and_free_node+0xe0>)
10001992:	2168      	movs	r1, #104	; 0x68
10001994:	4810      	ldr	r0, [pc, #64]	; (100019d8 <ph_remove_and_free_node+0xe4>)
10001996:	f000 fa87 	bl	10001ea8 <__assert_func>
1000199a:	7843      	ldrb	r3, [r0, #1]
1000199c:	7053      	strb	r3, [r2, #1]
1000199e:	2300      	movs	r3, #0
100019a0:	7083      	strb	r3, [r0, #2]
100019a2:	7043      	strb	r3, [r0, #1]
100019a4:	2201      	movs	r2, #1
100019a6:	0020      	movs	r0, r4
100019a8:	f7ff ff06 	bl	100017b8 <ph_remove_any_head>
100019ac:	0002      	movs	r2, r0
100019ae:	7b61      	ldrb	r1, [r4, #13]
100019b0:	4281      	cmp	r1, r0
100019b2:	d005      	beq.n	100019c0 <ph_remove_and_free_node+0xcc>
100019b4:	0020      	movs	r0, r4
100019b6:	f7ff fe4b 	bl	10001650 <ph_merge_nodes>
100019ba:	7360      	strb	r0, [r4, #13]
100019bc:	2001      	movs	r0, #1
100019be:	e006      	b.n	100019ce <ph_remove_and_free_node+0xda>
100019c0:	4b09      	ldr	r3, [pc, #36]	; (100019e8 <ph_remove_and_free_node+0xf4>)
100019c2:	4a07      	ldr	r2, [pc, #28]	; (100019e0 <ph_remove_and_free_node+0xec>)
100019c4:	2171      	movs	r1, #113	; 0x71
100019c6:	4807      	ldr	r0, [pc, #28]	; (100019e4 <ph_remove_and_free_node+0xf0>)
100019c8:	f000 fa6e 	bl	10001ea8 <__assert_func>
100019cc:	2000      	movs	r0, #0
100019ce:	bd70      	pop	{r4, r5, r6, pc}
100019d0:	1000744c 	.word	0x1000744c
100019d4:	10007840 	.word	0x10007840
100019d8:	10007468 	.word	0x10007468
100019dc:	1000725c 	.word	0x1000725c
100019e0:	10007800 	.word	0x10007800
100019e4:	10007764 	.word	0x10007764
100019e8:	100077e0 	.word	0x100077e0

100019ec <uart_set_baudrate>:
100019ec:	b570      	push	{r4, r5, r6, lr}
100019ee:	0004      	movs	r4, r0
100019f0:	000d      	movs	r5, r1
100019f2:	2006      	movs	r0, #6
100019f4:	f000 f97e 	bl	10001cf4 <clock_get_hz>
100019f8:	00c0      	lsls	r0, r0, #3
100019fa:	0029      	movs	r1, r5
100019fc:	f001 fc02 	bl	10003204 <__wrap___aeabi_uidiv>
10001a00:	09c6      	lsrs	r6, r0, #7
10001a02:	d008      	beq.n	10001a16 <uart_set_baudrate+0x2a>
10001a04:	4b0e      	ldr	r3, [pc, #56]	; (10001a40 <uart_set_baudrate+0x54>)
10001a06:	429e      	cmp	r6, r3
10001a08:	d817      	bhi.n	10001a3a <uart_set_baudrate+0x4e>
10001a0a:	237f      	movs	r3, #127	; 0x7f
10001a0c:	4018      	ands	r0, r3
10001a0e:	3001      	adds	r0, #1
10001a10:	0035      	movs	r5, r6
10001a12:	0846      	lsrs	r6, r0, #1
10001a14:	e000      	b.n	10001a18 <uart_set_baudrate+0x2c>
10001a16:	2501      	movs	r5, #1
10001a18:	6265      	str	r5, [r4, #36]	; 0x24
10001a1a:	62a6      	str	r6, [r4, #40]	; 0x28
10001a1c:	342c      	adds	r4, #44	; 0x2c
10001a1e:	2080      	movs	r0, #128	; 0x80
10001a20:	0180      	lsls	r0, r0, #6
10001a22:	4304      	orrs	r4, r0
10001a24:	2300      	movs	r3, #0
10001a26:	6023      	str	r3, [r4, #0]
10001a28:	2006      	movs	r0, #6
10001a2a:	f000 f963 	bl	10001cf4 <clock_get_hz>
10001a2e:	0080      	lsls	r0, r0, #2
10001a30:	01a9      	lsls	r1, r5, #6
10001a32:	1989      	adds	r1, r1, r6
10001a34:	f001 fbe6 	bl	10003204 <__wrap___aeabi_uidiv>
10001a38:	bd70      	pop	{r4, r5, r6, pc}
10001a3a:	2600      	movs	r6, #0
10001a3c:	4d01      	ldr	r5, [pc, #4]	; (10001a44 <uart_set_baudrate+0x58>)
10001a3e:	e7eb      	b.n	10001a18 <uart_set_baudrate+0x2c>
10001a40:	0000fffe 	.word	0x0000fffe
10001a44:	0000ffff 	.word	0x0000ffff

10001a48 <uart_set_translate_crlf>:
10001a48:	2900      	cmp	r1, #0
10001a4a:	d009      	beq.n	10001a60 <uart_set_translate_crlf+0x18>
10001a4c:	220a      	movs	r2, #10
10001a4e:	4b06      	ldr	r3, [pc, #24]	; (10001a68 <uart_set_translate_crlf+0x20>)
10001a50:	469c      	mov	ip, r3
10001a52:	4460      	add	r0, ip
10001a54:	4243      	negs	r3, r0
10001a56:	4158      	adcs	r0, r3
10001a58:	0040      	lsls	r0, r0, #1
10001a5a:	4b04      	ldr	r3, [pc, #16]	; (10001a6c <uart_set_translate_crlf+0x24>)
10001a5c:	52c2      	strh	r2, [r0, r3]
10001a5e:	4770      	bx	lr
10001a60:	2280      	movs	r2, #128	; 0x80
10001a62:	0052      	lsls	r2, r2, #1
10001a64:	e7f3      	b.n	10001a4e <uart_set_translate_crlf+0x6>
10001a66:	46c0      	nop			; (mov r8, r8)
10001a68:	bffc8000 	.word	0xbffc8000
10001a6c:	200010ec 	.word	0x200010ec

10001a70 <uart_init>:
10001a70:	b570      	push	{r4, r5, r6, lr}
10001a72:	0005      	movs	r5, r0
10001a74:	000c      	movs	r4, r1
10001a76:	2006      	movs	r0, #6
10001a78:	f000 f93c 	bl	10001cf4 <clock_get_hz>
10001a7c:	2800      	cmp	r0, #0
10001a7e:	d029      	beq.n	10001ad4 <uart_init+0x64>
10001a80:	4b16      	ldr	r3, [pc, #88]	; (10001adc <uart_init+0x6c>)
10001a82:	429d      	cmp	r5, r3
10001a84:	d027      	beq.n	10001ad6 <uart_init+0x66>
10001a86:	2280      	movs	r2, #128	; 0x80
10001a88:	03d2      	lsls	r2, r2, #15
10001a8a:	4b15      	ldr	r3, [pc, #84]	; (10001ae0 <uart_init+0x70>)
10001a8c:	601a      	str	r2, [r3, #0]
10001a8e:	4b15      	ldr	r3, [pc, #84]	; (10001ae4 <uart_init+0x74>)
10001a90:	601a      	str	r2, [r3, #0]
10001a92:	4b15      	ldr	r3, [pc, #84]	; (10001ae8 <uart_init+0x78>)
10001a94:	689b      	ldr	r3, [r3, #8]
10001a96:	0011      	movs	r1, r2
10001a98:	4399      	bics	r1, r3
10001a9a:	d1fa      	bne.n	10001a92 <uart_init+0x22>
10001a9c:	2100      	movs	r1, #0
10001a9e:	0028      	movs	r0, r5
10001aa0:	f7ff ffd2 	bl	10001a48 <uart_set_translate_crlf>
10001aa4:	0021      	movs	r1, r4
10001aa6:	0028      	movs	r0, r5
10001aa8:	f7ff ffa0 	bl	100019ec <uart_set_baudrate>
10001aac:	002c      	movs	r4, r5
10001aae:	342c      	adds	r4, #44	; 0x2c
10001ab0:	6ae9      	ldr	r1, [r5, #44]	; 0x2c
10001ab2:	2260      	movs	r2, #96	; 0x60
10001ab4:	404a      	eors	r2, r1
10001ab6:	216e      	movs	r1, #110	; 0x6e
10001ab8:	4011      	ands	r1, r2
10001aba:	2280      	movs	r2, #128	; 0x80
10001abc:	0152      	lsls	r2, r2, #5
10001abe:	4322      	orrs	r2, r4
10001ac0:	6011      	str	r1, [r2, #0]
10001ac2:	4b0a      	ldr	r3, [pc, #40]	; (10001aec <uart_init+0x7c>)
10001ac4:	632b      	str	r3, [r5, #48]	; 0x30
10001ac6:	2380      	movs	r3, #128	; 0x80
10001ac8:	019b      	lsls	r3, r3, #6
10001aca:	4323      	orrs	r3, r4
10001acc:	2210      	movs	r2, #16
10001ace:	601a      	str	r2, [r3, #0]
10001ad0:	2303      	movs	r3, #3
10001ad2:	64ab      	str	r3, [r5, #72]	; 0x48
10001ad4:	bd70      	pop	{r4, r5, r6, pc}
10001ad6:	2280      	movs	r2, #128	; 0x80
10001ad8:	0412      	lsls	r2, r2, #16
10001ada:	e7d6      	b.n	10001a8a <uart_init+0x1a>
10001adc:	40038000 	.word	0x40038000
10001ae0:	4000e000 	.word	0x4000e000
10001ae4:	4000f000 	.word	0x4000f000
10001ae8:	4000c000 	.word	0x4000c000
10001aec:	00000301 	.word	0x00000301

10001af0 <clock_configure>:
10001af0:	b5f8      	push	{r3, r4, r5, r6, r7, lr}
10001af2:	46de      	mov	lr, fp
10001af4:	4657      	mov	r7, sl
10001af6:	464e      	mov	r6, r9
10001af8:	4645      	mov	r5, r8
10001afa:	b5e0      	push	{r5, r6, r7, lr}
10001afc:	0005      	movs	r5, r0
10001afe:	000f      	movs	r7, r1
10001b00:	4692      	mov	sl, r2
10001b02:	9a0a      	ldr	r2, [sp, #40]	; 0x28
10001b04:	4293      	cmp	r3, r2
10001b06:	d34e      	bcc.n	10001ba6 <clock_configure+0xb6>
10001b08:	0e1a      	lsrs	r2, r3, #24
10001b0a:	4691      	mov	r9, r2
10001b0c:	021e      	lsls	r6, r3, #8
10001b0e:	9a0a      	ldr	r2, [sp, #40]	; 0x28
10001b10:	2300      	movs	r3, #0
10001b12:	0030      	movs	r0, r6
10001b14:	4649      	mov	r1, r9
10001b16:	f001 fbb3 	bl	10003280 <__wrap___aeabi_uldivmod>
10001b1a:	4680      	mov	r8, r0
10001b1c:	006c      	lsls	r4, r5, #1
10001b1e:	1964      	adds	r4, r4, r5
10001b20:	00a4      	lsls	r4, r4, #2
10001b22:	4b2f      	ldr	r3, [pc, #188]	; (10001be0 <clock_configure+0xf0>)
10001b24:	469c      	mov	ip, r3
10001b26:	4464      	add	r4, ip
10001b28:	6863      	ldr	r3, [r4, #4]
10001b2a:	4283      	cmp	r3, r0
10001b2c:	d200      	bcs.n	10001b30 <clock_configure+0x40>
10001b2e:	6060      	str	r0, [r4, #4]
10001b30:	1f2b      	subs	r3, r5, #4
10001b32:	b2db      	uxtb	r3, r3
10001b34:	469b      	mov	fp, r3
10001b36:	2b01      	cmp	r3, #1
10001b38:	d93b      	bls.n	10001bb2 <clock_configure+0xc2>
10001b3a:	23c0      	movs	r3, #192	; 0xc0
10001b3c:	019b      	lsls	r3, r3, #6
10001b3e:	4323      	orrs	r3, r4
10001b40:	2280      	movs	r2, #128	; 0x80
10001b42:	0112      	lsls	r2, r2, #4
10001b44:	601a      	str	r2, [r3, #0]
10001b46:	00ab      	lsls	r3, r5, #2
10001b48:	4a26      	ldr	r2, [pc, #152]	; (10001be4 <clock_configure+0xf4>)
10001b4a:	5899      	ldr	r1, [r3, r2]
10001b4c:	2900      	cmp	r1, #0
10001b4e:	d005      	beq.n	10001b5c <clock_configure+0x6c>
10001b50:	6950      	ldr	r0, [r2, #20]
10001b52:	f001 fb57 	bl	10003204 <__wrap___aeabi_uidiv>
10001b56:	3001      	adds	r0, #1
10001b58:	3801      	subs	r0, #1
10001b5a:	d1fd      	bne.n	10001b58 <clock_configure+0x68>
10001b5c:	4653      	mov	r3, sl
10001b5e:	015a      	lsls	r2, r3, #5
10001b60:	6823      	ldr	r3, [r4, #0]
10001b62:	405a      	eors	r2, r3
10001b64:	23e0      	movs	r3, #224	; 0xe0
10001b66:	401a      	ands	r2, r3
10001b68:	2380      	movs	r3, #128	; 0x80
10001b6a:	015b      	lsls	r3, r3, #5
10001b6c:	4323      	orrs	r3, r4
10001b6e:	601a      	str	r2, [r3, #0]
10001b70:	465a      	mov	r2, fp
10001b72:	2a01      	cmp	r2, #1
10001b74:	d928      	bls.n	10001bc8 <clock_configure+0xd8>
10001b76:	2380      	movs	r3, #128	; 0x80
10001b78:	019b      	lsls	r3, r3, #6
10001b7a:	4323      	orrs	r3, r4
10001b7c:	2280      	movs	r2, #128	; 0x80
10001b7e:	0112      	lsls	r2, r2, #4
10001b80:	601a      	str	r2, [r3, #0]
10001b82:	4643      	mov	r3, r8
10001b84:	6063      	str	r3, [r4, #4]
10001b86:	4642      	mov	r2, r8
10001b88:	2300      	movs	r3, #0
10001b8a:	0030      	movs	r0, r6
10001b8c:	4649      	mov	r1, r9
10001b8e:	f001 fb77 	bl	10003280 <__wrap___aeabi_uldivmod>
10001b92:	00ad      	lsls	r5, r5, #2
10001b94:	4b13      	ldr	r3, [pc, #76]	; (10001be4 <clock_configure+0xf4>)
10001b96:	5158      	str	r0, [r3, r5]
10001b98:	2001      	movs	r0, #1
10001b9a:	bcf0      	pop	{r4, r5, r6, r7}
10001b9c:	46bb      	mov	fp, r7
10001b9e:	46b2      	mov	sl, r6
10001ba0:	46a9      	mov	r9, r5
10001ba2:	46a0      	mov	r8, r4
10001ba4:	bdf8      	pop	{r3, r4, r5, r6, r7, pc}
10001ba6:	4b10      	ldr	r3, [pc, #64]	; (10001be8 <clock_configure+0xf8>)
10001ba8:	4a10      	ldr	r2, [pc, #64]	; (10001bec <clock_configure+0xfc>)
10001baa:	212d      	movs	r1, #45	; 0x2d
10001bac:	4810      	ldr	r0, [pc, #64]	; (10001bf0 <clock_configure+0x100>)
10001bae:	f000 f97b 	bl	10001ea8 <__assert_func>
10001bb2:	2f01      	cmp	r7, #1
10001bb4:	d1c1      	bne.n	10001b3a <clock_configure+0x4a>
10001bb6:	23c0      	movs	r3, #192	; 0xc0
10001bb8:	019b      	lsls	r3, r3, #6
10001bba:	4323      	orrs	r3, r4
10001bbc:	2203      	movs	r2, #3
10001bbe:	601a      	str	r2, [r3, #0]
10001bc0:	68a3      	ldr	r3, [r4, #8]
10001bc2:	07db      	lsls	r3, r3, #31
10001bc4:	d5fc      	bpl.n	10001bc0 <clock_configure+0xd0>
10001bc6:	e7c9      	b.n	10001b5c <clock_configure+0x6c>
10001bc8:	6821      	ldr	r1, [r4, #0]
10001bca:	4079      	eors	r1, r7
10001bcc:	2203      	movs	r2, #3
10001bce:	400a      	ands	r2, r1
10001bd0:	601a      	str	r2, [r3, #0]
10001bd2:	68a2      	ldr	r2, [r4, #8]
10001bd4:	2301      	movs	r3, #1
10001bd6:	40bb      	lsls	r3, r7
10001bd8:	4213      	tst	r3, r2
10001bda:	d0fa      	beq.n	10001bd2 <clock_configure+0xe2>
10001bdc:	e7cb      	b.n	10001b76 <clock_configure+0x86>
10001bde:	46c0      	nop			; (mov r8, r8)
10001be0:	40008000 	.word	0x40008000
10001be4:	20000e4c 	.word	0x20000e4c
10001be8:	1000784c 	.word	0x1000784c
10001bec:	1000789c 	.word	0x1000789c
10001bf0:	10007860 	.word	0x10007860

10001bf4 <clocks_init>:
10001bf4:	b530      	push	{r4, r5, lr}
10001bf6:	b083      	sub	sp, #12
10001bf8:	200c      	movs	r0, #12
10001bfa:	f000 f917 	bl	10001e2c <watchdog_start_tick>
10001bfe:	f7fe fc1b 	bl	10000438 <running_on_fpga>
10001c02:	2800      	cmp	r0, #0
10001c04:	d00d      	beq.n	10001c22 <clocks_init+0x2e>
10001c06:	2300      	movs	r3, #0
10001c08:	e004      	b.n	10001c14 <clocks_init+0x20>
10001c0a:	0099      	lsls	r1, r3, #2
10001c0c:	4a2d      	ldr	r2, [pc, #180]	; (10001cc4 <clocks_init+0xd0>)
10001c0e:	482e      	ldr	r0, [pc, #184]	; (10001cc8 <clocks_init+0xd4>)
10001c10:	5088      	str	r0, [r1, r2]
10001c12:	3301      	adds	r3, #1
10001c14:	2b09      	cmp	r3, #9
10001c16:	d9f8      	bls.n	10001c0a <clocks_init+0x16>
10001c18:	4b2a      	ldr	r3, [pc, #168]	; (10001cc4 <clocks_init+0xd0>)
10001c1a:	4a2c      	ldr	r2, [pc, #176]	; (10001ccc <clocks_init+0xd8>)
10001c1c:	625a      	str	r2, [r3, #36]	; 0x24
10001c1e:	b003      	add	sp, #12
10001c20:	bd30      	pop	{r4, r5, pc}
10001c22:	4b2b      	ldr	r3, [pc, #172]	; (10001cd0 <clocks_init+0xdc>)
10001c24:	2200      	movs	r2, #0
10001c26:	679a      	str	r2, [r3, #120]	; 0x78
10001c28:	f000 f908 	bl	10001e3c <xosc_init>
10001c2c:	4b29      	ldr	r3, [pc, #164]	; (10001cd4 <clocks_init+0xe0>)
10001c2e:	2201      	movs	r2, #1
10001c30:	601a      	str	r2, [r3, #0]
10001c32:	4b27      	ldr	r3, [pc, #156]	; (10001cd0 <clocks_init+0xdc>)
10001c34:	6c5b      	ldr	r3, [r3, #68]	; 0x44
10001c36:	2b01      	cmp	r3, #1
10001c38:	d1fb      	bne.n	10001c32 <clocks_init+0x3e>
10001c3a:	4b27      	ldr	r3, [pc, #156]	; (10001cd8 <clocks_init+0xe4>)
10001c3c:	2203      	movs	r2, #3
10001c3e:	601a      	str	r2, [r3, #0]
10001c40:	4b23      	ldr	r3, [pc, #140]	; (10001cd0 <clocks_init+0xdc>)
10001c42:	6b9b      	ldr	r3, [r3, #56]	; 0x38
10001c44:	2b01      	cmp	r3, #1
10001c46:	d1fb      	bne.n	10001c40 <clocks_init+0x4c>
10001c48:	3301      	adds	r3, #1
10001c4a:	9300      	str	r3, [sp, #0]
10001c4c:	3304      	adds	r3, #4
10001c4e:	4a23      	ldr	r2, [pc, #140]	; (10001cdc <clocks_init+0xe8>)
10001c50:	2101      	movs	r1, #1
10001c52:	4823      	ldr	r0, [pc, #140]	; (10001ce0 <clocks_init+0xec>)
10001c54:	f000 f854 	bl	10001d00 <pll_init>
10001c58:	2305      	movs	r3, #5
10001c5a:	9300      	str	r3, [sp, #0]
10001c5c:	4a21      	ldr	r2, [pc, #132]	; (10001ce4 <clocks_init+0xf0>)
10001c5e:	2101      	movs	r1, #1
10001c60:	4821      	ldr	r0, [pc, #132]	; (10001ce8 <clocks_init+0xf4>)
10001c62:	f000 f84d 	bl	10001d00 <pll_init>
10001c66:	4b21      	ldr	r3, [pc, #132]	; (10001cec <clocks_init+0xf8>)
10001c68:	9300      	str	r3, [sp, #0]
10001c6a:	2200      	movs	r2, #0
10001c6c:	2102      	movs	r1, #2
10001c6e:	2004      	movs	r0, #4
10001c70:	f7ff ff3e 	bl	10001af0 <clock_configure>
10001c74:	4d1e      	ldr	r5, [pc, #120]	; (10001cf0 <clocks_init+0xfc>)
10001c76:	9500      	str	r5, [sp, #0]
10001c78:	002b      	movs	r3, r5
10001c7a:	2200      	movs	r2, #0
10001c7c:	2101      	movs	r1, #1
10001c7e:	2005      	movs	r0, #5
10001c80:	f7ff ff36 	bl	10001af0 <clock_configure>
10001c84:	4c10      	ldr	r4, [pc, #64]	; (10001cc8 <clocks_init+0xd4>)
10001c86:	9400      	str	r4, [sp, #0]
10001c88:	0023      	movs	r3, r4
10001c8a:	2200      	movs	r2, #0
10001c8c:	2100      	movs	r1, #0
10001c8e:	2007      	movs	r0, #7
10001c90:	f7ff ff2e 	bl	10001af0 <clock_configure>
10001c94:	9400      	str	r4, [sp, #0]
10001c96:	0023      	movs	r3, r4
10001c98:	2200      	movs	r2, #0
10001c9a:	2100      	movs	r1, #0
10001c9c:	2008      	movs	r0, #8
10001c9e:	f7ff ff27 	bl	10001af0 <clock_configure>
10001ca2:	4b0a      	ldr	r3, [pc, #40]	; (10001ccc <clocks_init+0xd8>)
10001ca4:	9300      	str	r3, [sp, #0]
10001ca6:	0023      	movs	r3, r4
10001ca8:	2200      	movs	r2, #0
10001caa:	2100      	movs	r1, #0
10001cac:	2009      	movs	r0, #9
10001cae:	f7ff ff1f 	bl	10001af0 <clock_configure>
10001cb2:	9500      	str	r5, [sp, #0]
10001cb4:	002b      	movs	r3, r5
10001cb6:	2200      	movs	r2, #0
10001cb8:	2100      	movs	r1, #0
10001cba:	2006      	movs	r0, #6
10001cbc:	f7ff ff18 	bl	10001af0 <clock_configure>
10001cc0:	e7ad      	b.n	10001c1e <clocks_init+0x2a>
10001cc2:	46c0      	nop			; (mov r8, r8)
10001cc4:	20000e4c 	.word	0x20000e4c
10001cc8:	02dc6c00 	.word	0x02dc6c00
10001ccc:	0000b71b 	.word	0x0000b71b
10001cd0:	40008000 	.word	0x40008000
10001cd4:	4000b03c 	.word	0x4000b03c
10001cd8:	4000b030 	.word	0x4000b030
10001cdc:	59682f00 	.word	0x59682f00
10001ce0:	40028000 	.word	0x40028000
10001ce4:	47868c00 	.word	0x47868c00
10001ce8:	4002c000 	.word	0x4002c000
10001cec:	00b71b00 	.word	0x00b71b00
10001cf0:	07735940 	.word	0x07735940

10001cf4 <clock_get_hz>:
10001cf4:	0080      	lsls	r0, r0, #2
10001cf6:	4b01      	ldr	r3, [pc, #4]	; (10001cfc <clock_get_hz+0x8>)
10001cf8:	58c0      	ldr	r0, [r0, r3]
10001cfa:	4770      	bx	lr
10001cfc:	20000e4c 	.word	0x20000e4c

10001d00 <pll_init>:
10001d00:	b5f0      	push	{r4, r5, r6, r7, lr}
10001d02:	46c6      	mov	lr, r8
10001d04:	b500      	push	{lr}
10001d06:	0004      	movs	r4, r0
10001d08:	000d      	movs	r5, r1
10001d0a:	0017      	movs	r7, r2
10001d0c:	4698      	mov	r8, r3
10001d0e:	200c      	movs	r0, #12
10001d10:	f001 fa78 	bl	10003204 <__wrap___aeabi_uidiv>
10001d14:	0006      	movs	r6, r0
10001d16:	4b39      	ldr	r3, [pc, #228]	; (10001dfc <pll_init+0xfc>)
10001d18:	18fa      	adds	r2, r7, r3
10001d1a:	4b39      	ldr	r3, [pc, #228]	; (10001e00 <pll_init+0x100>)
10001d1c:	429a      	cmp	r2, r3
10001d1e:	d841      	bhi.n	10001da4 <pll_init+0xa4>
10001d20:	0143      	lsls	r3, r0, #5
10001d22:	1a1b      	subs	r3, r3, r0
10001d24:	0199      	lsls	r1, r3, #6
10001d26:	1ac9      	subs	r1, r1, r3
10001d28:	00c9      	lsls	r1, r1, #3
10001d2a:	1809      	adds	r1, r1, r0
10001d2c:	0189      	lsls	r1, r1, #6
10001d2e:	0038      	movs	r0, r7
10001d30:	f001 fa68 	bl	10003204 <__wrap___aeabi_uidiv>
10001d34:	0002      	movs	r2, r0
10001d36:	3a10      	subs	r2, #16
10001d38:	2398      	movs	r3, #152	; 0x98
10001d3a:	005b      	lsls	r3, r3, #1
10001d3c:	429a      	cmp	r2, r3
10001d3e:	d837      	bhi.n	10001db0 <pll_init+0xb0>
10001d40:	4643      	mov	r3, r8
10001d42:	3b01      	subs	r3, #1
10001d44:	2b06      	cmp	r3, #6
10001d46:	d839      	bhi.n	10001dbc <pll_init+0xbc>
10001d48:	9b06      	ldr	r3, [sp, #24]
10001d4a:	3b01      	subs	r3, #1
10001d4c:	2b06      	cmp	r3, #6
10001d4e:	d835      	bhi.n	10001dbc <pll_init+0xbc>
10001d50:	093f      	lsrs	r7, r7, #4
10001d52:	42b7      	cmp	r7, r6
10001d54:	d338      	bcc.n	10001dc8 <pll_init+0xc8>
10001d56:	4643      	mov	r3, r8
10001d58:	041e      	lsls	r6, r3, #16
10001d5a:	9b06      	ldr	r3, [sp, #24]
10001d5c:	031a      	lsls	r2, r3, #12
10001d5e:	4316      	orrs	r6, r2
10001d60:	6823      	ldr	r3, [r4, #0]
10001d62:	2b00      	cmp	r3, #0
10001d64:	db36      	blt.n	10001dd4 <pll_init+0xd4>
10001d66:	4b27      	ldr	r3, [pc, #156]	; (10001e04 <pll_init+0x104>)
10001d68:	429c      	cmp	r4, r3
10001d6a:	d044      	beq.n	10001df6 <pll_init+0xf6>
10001d6c:	2280      	movs	r2, #128	; 0x80
10001d6e:	0152      	lsls	r2, r2, #5
10001d70:	4b25      	ldr	r3, [pc, #148]	; (10001e08 <pll_init+0x108>)
10001d72:	601a      	str	r2, [r3, #0]
10001d74:	4b25      	ldr	r3, [pc, #148]	; (10001e0c <pll_init+0x10c>)
10001d76:	601a      	str	r2, [r3, #0]
10001d78:	4b25      	ldr	r3, [pc, #148]	; (10001e10 <pll_init+0x110>)
10001d7a:	689b      	ldr	r3, [r3, #8]
10001d7c:	0011      	movs	r1, r2
10001d7e:	4399      	bics	r1, r3
10001d80:	d1fa      	bne.n	10001d78 <pll_init+0x78>
10001d82:	6025      	str	r5, [r4, #0]
10001d84:	60a0      	str	r0, [r4, #8]
10001d86:	1d23      	adds	r3, r4, #4
10001d88:	22c0      	movs	r2, #192	; 0xc0
10001d8a:	0192      	lsls	r2, r2, #6
10001d8c:	431a      	orrs	r2, r3
10001d8e:	2321      	movs	r3, #33	; 0x21
10001d90:	6013      	str	r3, [r2, #0]
10001d92:	6823      	ldr	r3, [r4, #0]
10001d94:	2b00      	cmp	r3, #0
10001d96:	dafc      	bge.n	10001d92 <pll_init+0x92>
10001d98:	60e6      	str	r6, [r4, #12]
10001d9a:	2308      	movs	r3, #8
10001d9c:	6013      	str	r3, [r2, #0]
10001d9e:	bc80      	pop	{r7}
10001da0:	46b8      	mov	r8, r7
10001da2:	bdf0      	pop	{r4, r5, r6, r7, pc}
10001da4:	4b1b      	ldr	r3, [pc, #108]	; (10001e14 <pll_init+0x114>)
10001da6:	4a1c      	ldr	r2, [pc, #112]	; (10001e18 <pll_init+0x118>)
10001da8:	2111      	movs	r1, #17
10001daa:	481c      	ldr	r0, [pc, #112]	; (10001e1c <pll_init+0x11c>)
10001dac:	f000 f87c 	bl	10001ea8 <__assert_func>
10001db0:	4b1b      	ldr	r3, [pc, #108]	; (10001e20 <pll_init+0x120>)
10001db2:	4a19      	ldr	r2, [pc, #100]	; (10001e18 <pll_init+0x118>)
10001db4:	2119      	movs	r1, #25
10001db6:	4819      	ldr	r0, [pc, #100]	; (10001e1c <pll_init+0x11c>)
10001db8:	f000 f876 	bl	10001ea8 <__assert_func>
10001dbc:	4b19      	ldr	r3, [pc, #100]	; (10001e24 <pll_init+0x124>)
10001dbe:	4a16      	ldr	r2, [pc, #88]	; (10001e18 <pll_init+0x118>)
10001dc0:	211c      	movs	r1, #28
10001dc2:	4816      	ldr	r0, [pc, #88]	; (10001e1c <pll_init+0x11c>)
10001dc4:	f000 f870 	bl	10001ea8 <__assert_func>
10001dc8:	4b17      	ldr	r3, [pc, #92]	; (10001e28 <pll_init+0x128>)
10001dca:	4a13      	ldr	r2, [pc, #76]	; (10001e18 <pll_init+0x118>)
10001dcc:	2123      	movs	r1, #35	; 0x23
10001dce:	4813      	ldr	r0, [pc, #76]	; (10001e1c <pll_init+0x11c>)
10001dd0:	f000 f86a 	bl	10001ea8 <__assert_func>
10001dd4:	6822      	ldr	r2, [r4, #0]
10001dd6:	233f      	movs	r3, #63	; 0x3f
10001dd8:	4013      	ands	r3, r2
10001dda:	42ab      	cmp	r3, r5
10001ddc:	d1c3      	bne.n	10001d66 <pll_init+0x66>
10001dde:	68a3      	ldr	r3, [r4, #8]
10001de0:	051b      	lsls	r3, r3, #20
10001de2:	0d1b      	lsrs	r3, r3, #20
10001de4:	4283      	cmp	r3, r0
10001de6:	d1be      	bne.n	10001d66 <pll_init+0x66>
10001de8:	68e3      	ldr	r3, [r4, #12]
10001dea:	22ee      	movs	r2, #238	; 0xee
10001dec:	02d2      	lsls	r2, r2, #11
10001dee:	4013      	ands	r3, r2
10001df0:	42b3      	cmp	r3, r6
10001df2:	d1b8      	bne.n	10001d66 <pll_init+0x66>
10001df4:	e7d3      	b.n	10001d9e <pll_init+0x9e>
10001df6:	2280      	movs	r2, #128	; 0x80
10001df8:	0192      	lsls	r2, r2, #6
10001dfa:	e7b9      	b.n	10001d70 <pll_init+0x70>
10001dfc:	d34be880 	.word	0xd34be880
10001e00:	32a9f880 	.word	0x32a9f880
10001e04:	4002c000 	.word	0x4002c000
10001e08:	4000e000 	.word	0x4000e000
10001e0c:	4000f000 	.word	0x4000f000
10001e10:	4000c000 	.word	0x4000c000
10001e14:	100078ac 	.word	0x100078ac
10001e18:	100079c4 	.word	0x100079c4
10001e1c:	1000790c 	.word	0x1000790c
10001e20:	10007940 	.word	0x10007940
10001e24:	1000795c 	.word	0x1000795c
10001e28:	100079a8 	.word	0x100079a8

10001e2c <watchdog_start_tick>:
10001e2c:	2380      	movs	r3, #128	; 0x80
10001e2e:	009b      	lsls	r3, r3, #2
10001e30:	4303      	orrs	r3, r0
10001e32:	4a01      	ldr	r2, [pc, #4]	; (10001e38 <watchdog_start_tick+0xc>)
10001e34:	62d3      	str	r3, [r2, #44]	; 0x2c
10001e36:	4770      	bx	lr
10001e38:	40058000 	.word	0x40058000

10001e3c <xosc_init>:
10001e3c:	4b06      	ldr	r3, [pc, #24]	; (10001e58 <xosc_init+0x1c>)
10001e3e:	22aa      	movs	r2, #170	; 0xaa
10001e40:	0112      	lsls	r2, r2, #4
10001e42:	601a      	str	r2, [r3, #0]
10001e44:	222f      	movs	r2, #47	; 0x2f
10001e46:	60da      	str	r2, [r3, #12]
10001e48:	4b04      	ldr	r3, [pc, #16]	; (10001e5c <xosc_init+0x20>)
10001e4a:	4a05      	ldr	r2, [pc, #20]	; (10001e60 <xosc_init+0x24>)
10001e4c:	601a      	str	r2, [r3, #0]
10001e4e:	4b02      	ldr	r3, [pc, #8]	; (10001e58 <xosc_init+0x1c>)
10001e50:	685b      	ldr	r3, [r3, #4]
10001e52:	2b00      	cmp	r3, #0
10001e54:	dafb      	bge.n	10001e4e <xosc_init+0x12>
10001e56:	4770      	bx	lr
10001e58:	40024000 	.word	0x40024000
10001e5c:	40026000 	.word	0x40026000
10001e60:	00fab000 	.word	0x00fab000

10001e64 <_exit>:
10001e64:	be00      	bkpt	0x0000
10001e66:	e7fd      	b.n	10001e64 <_exit>

10001e68 <_sbrk>:
10001e68:	0003      	movs	r3, r0
10001e6a:	4a0a      	ldr	r2, [pc, #40]	; (10001e94 <_sbrk+0x2c>)
10001e6c:	6812      	ldr	r2, [r2, #0]
10001e6e:	2a00      	cmp	r2, #0
10001e70:	d008      	beq.n	10001e84 <_sbrk+0x1c>
10001e72:	4a08      	ldr	r2, [pc, #32]	; (10001e94 <_sbrk+0x2c>)
10001e74:	6810      	ldr	r0, [r2, #0]
10001e76:	18c3      	adds	r3, r0, r3
10001e78:	4a07      	ldr	r2, [pc, #28]	; (10001e98 <_sbrk+0x30>)
10001e7a:	429a      	cmp	r2, r3
10001e7c:	d306      	bcc.n	10001e8c <_sbrk+0x24>
10001e7e:	4a05      	ldr	r2, [pc, #20]	; (10001e94 <_sbrk+0x2c>)
10001e80:	6013      	str	r3, [r2, #0]
10001e82:	4770      	bx	lr
10001e84:	4a03      	ldr	r2, [pc, #12]	; (10001e94 <_sbrk+0x2c>)
10001e86:	4905      	ldr	r1, [pc, #20]	; (10001e9c <_sbrk+0x34>)
10001e88:	6011      	str	r1, [r2, #0]
10001e8a:	e7f2      	b.n	10001e72 <_sbrk+0xa>
10001e8c:	2001      	movs	r0, #1
10001e8e:	4240      	negs	r0, r0
10001e90:	e7f7      	b.n	10001e82 <_sbrk+0x1a>
10001e92:	46c0      	nop			; (mov r8, r8)
10001e94:	20000ec0 	.word	0x20000ec0
10001e98:	20040000 	.word	0x20040000
10001e9c:	200010fc 	.word	0x200010fc

10001ea0 <exit>:
10001ea0:	b510      	push	{r4, lr}
10001ea2:	f7ff ffdf 	bl	10001e64 <_exit>
	...

10001ea8 <__assert_func>:
10001ea8:	b510      	push	{r4, lr}
10001eaa:	b082      	sub	sp, #8
10001eac:	000c      	movs	r4, r1
10001eae:	0019      	movs	r1, r3
10001eb0:	2a00      	cmp	r2, #0
10001eb2:	d00c      	beq.n	10001ece <__assert_func+0x26>
10001eb4:	4b08      	ldr	r3, [pc, #32]	; (10001ed8 <__assert_func+0x30>)
10001eb6:	2a00      	cmp	r2, #0
10001eb8:	d00b      	beq.n	10001ed2 <__assert_func+0x2a>
10001eba:	9201      	str	r2, [sp, #4]
10001ebc:	9300      	str	r3, [sp, #0]
10001ebe:	0023      	movs	r3, r4
10001ec0:	0002      	movs	r2, r0
10001ec2:	4806      	ldr	r0, [pc, #24]	; (10001edc <__assert_func+0x34>)
10001ec4:	f002 f9ee 	bl	100042a4 <__wrap_printf>
10001ec8:	2001      	movs	r0, #1
10001eca:	f7ff ffcb 	bl	10001e64 <_exit>
10001ece:	4b04      	ldr	r3, [pc, #16]	; (10001ee0 <__assert_func+0x38>)
10001ed0:	e7f1      	b.n	10001eb6 <__assert_func+0xe>
10001ed2:	4a03      	ldr	r2, [pc, #12]	; (10001ee0 <__assert_func+0x38>)
10001ed4:	e7f1      	b.n	10001eba <__assert_func+0x12>
10001ed6:	46c0      	nop			; (mov r8, r8)
10001ed8:	100079d0 	.word	0x100079d0
10001edc:	100079e0 	.word	0x100079e0
10001ee0:	10007048 	.word	0x10007048

10001ee4 <runtime_init>:
10001ee4:	b570      	push	{r4, r5, r6, lr}
10001ee6:	4b2b      	ldr	r3, [pc, #172]	; (10001f94 <runtime_init+0xb0>)
10001ee8:	4a2b      	ldr	r2, [pc, #172]	; (10001f98 <runtime_init+0xb4>)
10001eea:	601a      	str	r2, [r3, #0]
10001eec:	4b2b      	ldr	r3, [pc, #172]	; (10001f9c <runtime_init+0xb8>)
10001eee:	4a2c      	ldr	r2, [pc, #176]	; (10001fa0 <runtime_init+0xbc>)
10001ef0:	601a      	str	r2, [r3, #0]
10001ef2:	4b2c      	ldr	r3, [pc, #176]	; (10001fa4 <runtime_init+0xc0>)
10001ef4:	689a      	ldr	r2, [r3, #8]
10001ef6:	4b2a      	ldr	r3, [pc, #168]	; (10001fa0 <runtime_init+0xbc>)
10001ef8:	4393      	bics	r3, r2
10001efa:	d1fa      	bne.n	10001ef2 <runtime_init+0xe>
10001efc:	4c2a      	ldr	r4, [pc, #168]	; (10001fa8 <runtime_init+0xc4>)
10001efe:	e001      	b.n	10001f04 <runtime_init+0x20>
10001f00:	cc08      	ldmia	r4!, {r3}
10001f02:	4798      	blx	r3
10001f04:	4b29      	ldr	r3, [pc, #164]	; (10001fac <runtime_init+0xc8>)
10001f06:	429c      	cmp	r4, r3
10001f08:	d3fa      	bcc.n	10001f00 <runtime_init+0x1c>
10001f0a:	f7ff fe73 	bl	10001bf4 <clocks_init>
10001f0e:	4b23      	ldr	r3, [pc, #140]	; (10001f9c <runtime_init+0xb8>)
10001f10:	4a27      	ldr	r2, [pc, #156]	; (10001fb0 <runtime_init+0xcc>)
10001f12:	601a      	str	r2, [r3, #0]
10001f14:	4b23      	ldr	r3, [pc, #140]	; (10001fa4 <runtime_init+0xc0>)
10001f16:	689b      	ldr	r3, [r3, #8]
10001f18:	43db      	mvns	r3, r3
10001f1a:	01db      	lsls	r3, r3, #7
10001f1c:	d1fa      	bne.n	10001f14 <runtime_init+0x30>
10001f1e:	4b25      	ldr	r3, [pc, #148]	; (10001fb4 <runtime_init+0xd0>)
10001f20:	2240      	movs	r2, #64	; 0x40
10001f22:	679a      	str	r2, [r3, #120]	; 0x78
10001f24:	675a      	str	r2, [r3, #116]	; 0x74
10001f26:	671a      	str	r2, [r3, #112]	; 0x70
10001f28:	66da      	str	r2, [r3, #108]	; 0x6c
10001f2a:	4c23      	ldr	r4, [pc, #140]	; (10001fb8 <runtime_init+0xd4>)
10001f2c:	e009      	b.n	10001f42 <runtime_init+0x5e>
10001f2e:	4b23      	ldr	r3, [pc, #140]	; (10001fbc <runtime_init+0xd8>)
10001f30:	4a23      	ldr	r2, [pc, #140]	; (10001fc0 <runtime_init+0xdc>)
10001f32:	2186      	movs	r1, #134	; 0x86
10001f34:	4823      	ldr	r0, [pc, #140]	; (10001fc4 <runtime_init+0xe0>)
10001f36:	f7ff ffb7 	bl	10001ea8 <__assert_func>
10001f3a:	0020      	movs	r0, r4
10001f3c:	f7fe fce6 	bl	1000090c <mutex_init>
10001f40:	3408      	adds	r4, #8
10001f42:	4b21      	ldr	r3, [pc, #132]	; (10001fc8 <runtime_init+0xe4>)
10001f44:	429c      	cmp	r4, r3
10001f46:	d209      	bcs.n	10001f5c <runtime_init+0x78>
10001f48:	6823      	ldr	r3, [r4, #0]
10001f4a:	2b00      	cmp	r3, #0
10001f4c:	d0f5      	beq.n	10001f3a <runtime_init+0x56>
10001f4e:	2b01      	cmp	r3, #1
10001f50:	d1ed      	bne.n	10001f2e <runtime_init+0x4a>
10001f52:	0020      	movs	r0, r4
10001f54:	f7fe fce7 	bl	10000926 <recursive_mutex_init>
10001f58:	3408      	adds	r4, #8
10001f5a:	e7f2      	b.n	10001f42 <runtime_init+0x5e>
10001f5c:	4c1b      	ldr	r4, [pc, #108]	; (10001fcc <runtime_init+0xe8>)
10001f5e:	68a1      	ldr	r1, [r4, #8]
10001f60:	4d1b      	ldr	r5, [pc, #108]	; (10001fd0 <runtime_init+0xec>)
10001f62:	22c0      	movs	r2, #192	; 0xc0
10001f64:	0028      	movs	r0, r5
10001f66:	f002 f845 	bl	10003ff4 <__wrap___aeabi_memcpy>
10001f6a:	60a5      	str	r5, [r4, #8]
10001f6c:	f3ef 8305 	mrs	r3, IPSR
10001f70:	2b00      	cmp	r3, #0
10001f72:	d000      	beq.n	10001f76 <runtime_init+0x92>
10001f74:	be00      	bkpt	0x0000
10001f76:	f7fe fa99 	bl	100004ac <spin_locks_reset>
10001f7a:	f7fe fcb1 	bl	100008e0 <irq_init_priorities>
10001f7e:	f7ff f821 	bl	10000fc4 <alarm_pool_init_default>
10001f82:	4c14      	ldr	r4, [pc, #80]	; (10001fd4 <runtime_init+0xf0>)
10001f84:	e001      	b.n	10001f8a <runtime_init+0xa6>
10001f86:	cc08      	ldmia	r4!, {r3}
10001f88:	4798      	blx	r3
10001f8a:	4b13      	ldr	r3, [pc, #76]	; (10001fd8 <runtime_init+0xf4>)
10001f8c:	429c      	cmp	r4, r3
10001f8e:	d3fa      	bcc.n	10001f86 <runtime_init+0xa2>
10001f90:	bd70      	pop	{r4, r5, r6, pc}
10001f92:	46c0      	nop			; (mov r8, r8)
10001f94:	4000e000 	.word	0x4000e000
10001f98:	fefbcdbf 	.word	0xfefbcdbf
10001f9c:	4000f000 	.word	0x4000f000
10001fa0:	003c7ffe 	.word	0x003c7ffe
10001fa4:	4000c000 	.word	0x4000c000
10001fa8:	20000b38 	.word	0x20000b38
10001fac:	20000b48 	.word	0x20000b48
10001fb0:	01ffffff 	.word	0x01ffffff
10001fb4:	4001f000 	.word	0x4001f000
10001fb8:	20000b30 	.word	0x20000b30
10001fbc:	10007a10 	.word	0x10007a10
10001fc0:	10007a7c 	.word	0x10007a7c
10001fc4:	10007a30 	.word	0x10007a30
10001fc8:	20000b38 	.word	0x20000b38
10001fcc:	e000ed00 	.word	0xe000ed00
10001fd0:	20000000 	.word	0x20000000
10001fd4:	20000b48 	.word	0x20000b48
10001fd8:	20000b4c 	.word	0x20000b4c

10001fdc <panic>:
10001fdc:	b40f      	push	{r0, r1, r2, r3}
10001fde:	b500      	push	{lr}
10001fe0:	b083      	sub	sp, #12
10001fe2:	4808      	ldr	r0, [pc, #32]	; (10002004 <panic+0x28>)
10001fe4:	f002 f92e 	bl	10004244 <__wrap_puts>
10001fe8:	9b04      	ldr	r3, [sp, #16]
10001fea:	2b00      	cmp	r3, #0
10001fec:	d007      	beq.n	10001ffe <panic+0x22>
10001fee:	a905      	add	r1, sp, #20
10001ff0:	9101      	str	r1, [sp, #4]
10001ff2:	0018      	movs	r0, r3
10001ff4:	f002 f936 	bl	10004264 <__wrap_vprintf>
10001ff8:	4803      	ldr	r0, [pc, #12]	; (10002008 <panic+0x2c>)
10001ffa:	f002 f923 	bl	10004244 <__wrap_puts>
10001ffe:	2001      	movs	r0, #1
10002000:	f7ff ff30 	bl	10001e64 <_exit>
10002004:	10007a68 	.word	0x10007a68
10002008:	10007a78 	.word	0x10007a78

1000200c <_out_null>:
1000200c:	4770      	bx	lr

1000200e <_out_fct>:
1000200e:	b510      	push	{r4, lr}
10002010:	2800      	cmp	r0, #0
10002012:	d002      	beq.n	1000201a <_out_fct+0xc>
10002014:	680b      	ldr	r3, [r1, #0]
10002016:	6849      	ldr	r1, [r1, #4]
10002018:	4798      	blx	r3
1000201a:	bd10      	pop	{r4, pc}

1000201c <_atoi>:
1000201c:	0001      	movs	r1, r0
1000201e:	2000      	movs	r0, #0
10002020:	e007      	b.n	10002032 <_atoi+0x16>
10002022:	0083      	lsls	r3, r0, #2
10002024:	181b      	adds	r3, r3, r0
10002026:	005b      	lsls	r3, r3, #1
10002028:	1c50      	adds	r0, r2, #1
1000202a:	6008      	str	r0, [r1, #0]
1000202c:	7810      	ldrb	r0, [r2, #0]
1000202e:	18c0      	adds	r0, r0, r3
10002030:	3830      	subs	r0, #48	; 0x30
10002032:	680a      	ldr	r2, [r1, #0]
10002034:	7813      	ldrb	r3, [r2, #0]
10002036:	3b30      	subs	r3, #48	; 0x30
10002038:	b2db      	uxtb	r3, r3
1000203a:	2b09      	cmp	r3, #9
1000203c:	d9f1      	bls.n	10002022 <_atoi+0x6>
1000203e:	4770      	bx	lr

10002040 <_out_rev>:
10002040:	b5f0      	push	{r4, r5, r6, r7, lr}
10002042:	46de      	mov	lr, fp
10002044:	4657      	mov	r7, sl
10002046:	464e      	mov	r6, r9
10002048:	4645      	mov	r5, r8
1000204a:	b5e0      	push	{r5, r6, r7, lr}
1000204c:	b083      	sub	sp, #12
1000204e:	4693      	mov	fp, r2
10002050:	001f      	movs	r7, r3
10002052:	9b0c      	ldr	r3, [sp, #48]	; 0x30
10002054:	469a      	mov	sl, r3
10002056:	9c0d      	ldr	r4, [sp, #52]	; 0x34
10002058:	9b0e      	ldr	r3, [sp, #56]	; 0x38
1000205a:	4699      	mov	r9, r3
1000205c:	9b0f      	ldr	r3, [sp, #60]	; 0x3c
1000205e:	079b      	lsls	r3, r3, #30
10002060:	d003      	beq.n	1000206a <_out_rev+0x2a>
10002062:	46b8      	mov	r8, r7
10002064:	000f      	movs	r7, r1
10002066:	0006      	movs	r6, r0
10002068:	e022      	b.n	100020b0 <_out_rev+0x70>
1000206a:	9201      	str	r2, [sp, #4]
1000206c:	46a3      	mov	fp, r4
1000206e:	4688      	mov	r8, r1
10002070:	464e      	mov	r6, r9
10002072:	46b9      	mov	r9, r7
10002074:	0007      	movs	r7, r0
10002076:	42b4      	cmp	r4, r6
10002078:	d207      	bcs.n	1000208a <_out_rev+0x4a>
1000207a:	1c55      	adds	r5, r2, #1
1000207c:	464b      	mov	r3, r9
1000207e:	4641      	mov	r1, r8
10002080:	2020      	movs	r0, #32
10002082:	47b8      	blx	r7
10002084:	3401      	adds	r4, #1
10002086:	002a      	movs	r2, r5
10002088:	e7f5      	b.n	10002076 <_out_rev+0x36>
1000208a:	003d      	movs	r5, r7
1000208c:	464f      	mov	r7, r9
1000208e:	465c      	mov	r4, fp
10002090:	9b01      	ldr	r3, [sp, #4]
10002092:	469b      	mov	fp, r3
10002094:	46b1      	mov	r9, r6
10002096:	4646      	mov	r6, r8
10002098:	46b8      	mov	r8, r7
1000209a:	0037      	movs	r7, r6
1000209c:	002e      	movs	r6, r5
1000209e:	e007      	b.n	100020b0 <_out_rev+0x70>
100020a0:	3c01      	subs	r4, #1
100020a2:	1c55      	adds	r5, r2, #1
100020a4:	4653      	mov	r3, sl
100020a6:	5d18      	ldrb	r0, [r3, r4]
100020a8:	4643      	mov	r3, r8
100020aa:	0039      	movs	r1, r7
100020ac:	47b0      	blx	r6
100020ae:	002a      	movs	r2, r5
100020b0:	2c00      	cmp	r4, #0
100020b2:	d1f5      	bne.n	100020a0 <_out_rev+0x60>
100020b4:	0035      	movs	r5, r6
100020b6:	003e      	movs	r6, r7
100020b8:	4647      	mov	r7, r8
100020ba:	9b0f      	ldr	r3, [sp, #60]	; 0x3c
100020bc:	079b      	lsls	r3, r3, #30
100020be:	d407      	bmi.n	100020d0 <_out_rev+0x90>
100020c0:	0010      	movs	r0, r2
100020c2:	b003      	add	sp, #12
100020c4:	bcf0      	pop	{r4, r5, r6, r7}
100020c6:	46bb      	mov	fp, r7
100020c8:	46b2      	mov	sl, r6
100020ca:	46a9      	mov	r9, r5
100020cc:	46a0      	mov	r8, r4
100020ce:	bdf0      	pop	{r4, r5, r6, r7, pc}
100020d0:	46b0      	mov	r8, r6
100020d2:	464e      	mov	r6, r9
100020d4:	46b9      	mov	r9, r7
100020d6:	002f      	movs	r7, r5
100020d8:	465d      	mov	r5, fp
100020da:	1b53      	subs	r3, r2, r5
100020dc:	42b3      	cmp	r3, r6
100020de:	d2ef      	bcs.n	100020c0 <_out_rev+0x80>
100020e0:	1c54      	adds	r4, r2, #1
100020e2:	464b      	mov	r3, r9
100020e4:	4641      	mov	r1, r8
100020e6:	2020      	movs	r0, #32
100020e8:	47b8      	blx	r7
100020ea:	0022      	movs	r2, r4
100020ec:	e7f5      	b.n	100020da <_out_rev+0x9a>

100020ee <_ntoa_format>:
100020ee:	b5f0      	push	{r4, r5, r6, r7, lr}
100020f0:	46ce      	mov	lr, r9
100020f2:	4647      	mov	r7, r8
100020f4:	b580      	push	{r7, lr}
100020f6:	b085      	sub	sp, #20
100020f8:	4694      	mov	ip, r2
100020fa:	4698      	mov	r8, r3
100020fc:	9d0c      	ldr	r5, [sp, #48]	; 0x30
100020fe:	9c0d      	ldr	r4, [sp, #52]	; 0x34
10002100:	ab0e      	add	r3, sp, #56	; 0x38
10002102:	781b      	ldrb	r3, [r3, #0]
10002104:	4699      	mov	r9, r3
10002106:	9a10      	ldr	r2, [sp, #64]	; 0x40
10002108:	9b11      	ldr	r3, [sp, #68]	; 0x44
1000210a:	9e12      	ldr	r6, [sp, #72]	; 0x48
1000210c:	07b7      	lsls	r7, r6, #30
1000210e:	d41c      	bmi.n	1000214a <_ntoa_format+0x5c>
10002110:	2b00      	cmp	r3, #0
10002112:	d00c      	beq.n	1000212e <_ntoa_format+0x40>
10002114:	07f7      	lsls	r7, r6, #31
10002116:	d50a      	bpl.n	1000212e <_ntoa_format+0x40>
10002118:	464f      	mov	r7, r9
1000211a:	2f00      	cmp	r7, #0
1000211c:	d102      	bne.n	10002124 <_ntoa_format+0x36>
1000211e:	370c      	adds	r7, #12
10002120:	4237      	tst	r7, r6
10002122:	d004      	beq.n	1000212e <_ntoa_format+0x40>
10002124:	3b01      	subs	r3, #1
10002126:	e002      	b.n	1000212e <_ntoa_format+0x40>
10002128:	2730      	movs	r7, #48	; 0x30
1000212a:	552f      	strb	r7, [r5, r4]
1000212c:	3401      	adds	r4, #1
1000212e:	4294      	cmp	r4, r2
10002130:	d201      	bcs.n	10002136 <_ntoa_format+0x48>
10002132:	2c1f      	cmp	r4, #31
10002134:	d9f8      	bls.n	10002128 <_ntoa_format+0x3a>
10002136:	07f7      	lsls	r7, r6, #31
10002138:	d507      	bpl.n	1000214a <_ntoa_format+0x5c>
1000213a:	429c      	cmp	r4, r3
1000213c:	d205      	bcs.n	1000214a <_ntoa_format+0x5c>
1000213e:	2c1f      	cmp	r4, #31
10002140:	d803      	bhi.n	1000214a <_ntoa_format+0x5c>
10002142:	2730      	movs	r7, #48	; 0x30
10002144:	552f      	strb	r7, [r5, r4]
10002146:	3401      	adds	r4, #1
10002148:	e7f5      	b.n	10002136 <_ntoa_format+0x48>
1000214a:	06f7      	lsls	r7, r6, #27
1000214c:	d515      	bpl.n	1000217a <_ntoa_format+0x8c>
1000214e:	0577      	lsls	r7, r6, #21
10002150:	d405      	bmi.n	1000215e <_ntoa_format+0x70>
10002152:	2c00      	cmp	r4, #0
10002154:	d003      	beq.n	1000215e <_ntoa_format+0x70>
10002156:	4294      	cmp	r4, r2
10002158:	d024      	beq.n	100021a4 <_ntoa_format+0xb6>
1000215a:	429c      	cmp	r4, r3
1000215c:	d022      	beq.n	100021a4 <_ntoa_format+0xb6>
1000215e:	9a0f      	ldr	r2, [sp, #60]	; 0x3c
10002160:	2a10      	cmp	r2, #16
10002162:	d02b      	beq.n	100021bc <_ntoa_format+0xce>
10002164:	9a0f      	ldr	r2, [sp, #60]	; 0x3c
10002166:	2a10      	cmp	r2, #16
10002168:	d030      	beq.n	100021cc <_ntoa_format+0xde>
1000216a:	9a0f      	ldr	r2, [sp, #60]	; 0x3c
1000216c:	2a02      	cmp	r2, #2
1000216e:	d035      	beq.n	100021dc <_ntoa_format+0xee>
10002170:	2c1f      	cmp	r4, #31
10002172:	d802      	bhi.n	1000217a <_ntoa_format+0x8c>
10002174:	2230      	movs	r2, #48	; 0x30
10002176:	552a      	strb	r2, [r5, r4]
10002178:	3401      	adds	r4, #1
1000217a:	2c1f      	cmp	r4, #31
1000217c:	d805      	bhi.n	1000218a <_ntoa_format+0x9c>
1000217e:	464a      	mov	r2, r9
10002180:	2a00      	cmp	r2, #0
10002182:	d031      	beq.n	100021e8 <_ntoa_format+0xfa>
10002184:	222d      	movs	r2, #45	; 0x2d
10002186:	552a      	strb	r2, [r5, r4]
10002188:	3401      	adds	r4, #1
1000218a:	9603      	str	r6, [sp, #12]
1000218c:	9302      	str	r3, [sp, #8]
1000218e:	9401      	str	r4, [sp, #4]
10002190:	9500      	str	r5, [sp, #0]
10002192:	4643      	mov	r3, r8
10002194:	4662      	mov	r2, ip
10002196:	f7ff ff53 	bl	10002040 <_out_rev>
1000219a:	b005      	add	sp, #20
1000219c:	bcc0      	pop	{r6, r7}
1000219e:	46b9      	mov	r9, r7
100021a0:	46b0      	mov	r8, r6
100021a2:	bdf0      	pop	{r4, r5, r6, r7, pc}
100021a4:	1e62      	subs	r2, r4, #1
100021a6:	2c01      	cmp	r4, #1
100021a8:	d006      	beq.n	100021b8 <_ntoa_format+0xca>
100021aa:	9f0f      	ldr	r7, [sp, #60]	; 0x3c
100021ac:	2f10      	cmp	r7, #16
100021ae:	d001      	beq.n	100021b4 <_ntoa_format+0xc6>
100021b0:	0014      	movs	r4, r2
100021b2:	e7d4      	b.n	1000215e <_ntoa_format+0x70>
100021b4:	3c02      	subs	r4, #2
100021b6:	e7d2      	b.n	1000215e <_ntoa_format+0x70>
100021b8:	0014      	movs	r4, r2
100021ba:	e7d0      	b.n	1000215e <_ntoa_format+0x70>
100021bc:	06b2      	lsls	r2, r6, #26
100021be:	d4d1      	bmi.n	10002164 <_ntoa_format+0x76>
100021c0:	2c1f      	cmp	r4, #31
100021c2:	d8cf      	bhi.n	10002164 <_ntoa_format+0x76>
100021c4:	2278      	movs	r2, #120	; 0x78
100021c6:	552a      	strb	r2, [r5, r4]
100021c8:	3401      	adds	r4, #1
100021ca:	e7d1      	b.n	10002170 <_ntoa_format+0x82>
100021cc:	06b2      	lsls	r2, r6, #26
100021ce:	d5cc      	bpl.n	1000216a <_ntoa_format+0x7c>
100021d0:	2c1f      	cmp	r4, #31
100021d2:	d8ca      	bhi.n	1000216a <_ntoa_format+0x7c>
100021d4:	2258      	movs	r2, #88	; 0x58
100021d6:	552a      	strb	r2, [r5, r4]
100021d8:	3401      	adds	r4, #1
100021da:	e7c9      	b.n	10002170 <_ntoa_format+0x82>
100021dc:	2c1f      	cmp	r4, #31
100021de:	d8c7      	bhi.n	10002170 <_ntoa_format+0x82>
100021e0:	3260      	adds	r2, #96	; 0x60
100021e2:	552a      	strb	r2, [r5, r4]
100021e4:	3401      	adds	r4, #1
100021e6:	e7c3      	b.n	10002170 <_ntoa_format+0x82>
100021e8:	0772      	lsls	r2, r6, #29
100021ea:	d503      	bpl.n	100021f4 <_ntoa_format+0x106>
100021ec:	222b      	movs	r2, #43	; 0x2b
100021ee:	552a      	strb	r2, [r5, r4]
100021f0:	3401      	adds	r4, #1
100021f2:	e7ca      	b.n	1000218a <_ntoa_format+0x9c>
100021f4:	0732      	lsls	r2, r6, #28
100021f6:	d5c8      	bpl.n	1000218a <_ntoa_format+0x9c>
100021f8:	2220      	movs	r2, #32
100021fa:	552a      	strb	r2, [r5, r4]
100021fc:	3401      	adds	r4, #1
100021fe:	e7c4      	b.n	1000218a <_ntoa_format+0x9c>

10002200 <_ntoa_long>:
10002200:	b5f0      	push	{r4, r5, r6, r7, lr}
10002202:	46de      	mov	lr, fp
10002204:	4657      	mov	r7, sl
10002206:	464e      	mov	r6, r9
10002208:	4645      	mov	r5, r8
1000220a:	b5e0      	push	{r5, r6, r7, lr}
1000220c:	b093      	sub	sp, #76	; 0x4c
1000220e:	4681      	mov	r9, r0
10002210:	468a      	mov	sl, r1
10002212:	9208      	str	r2, [sp, #32]
10002214:	9309      	str	r3, [sp, #36]	; 0x24
10002216:	ab1c      	add	r3, sp, #112	; 0x70
10002218:	cb10      	ldmia	r3!, {r4}
1000221a:	781b      	ldrb	r3, [r3, #0]
1000221c:	469b      	mov	fp, r3
1000221e:	9d1e      	ldr	r5, [sp, #120]	; 0x78
10002220:	9b21      	ldr	r3, [sp, #132]	; 0x84
10002222:	4698      	mov	r8, r3
10002224:	2c00      	cmp	r4, #0
10002226:	d103      	bne.n	10002230 <_ntoa_long+0x30>
10002228:	2310      	movs	r3, #16
1000222a:	4642      	mov	r2, r8
1000222c:	439a      	bics	r2, r3
1000222e:	4690      	mov	r8, r2
10002230:	2380      	movs	r3, #128	; 0x80
10002232:	00db      	lsls	r3, r3, #3
10002234:	4646      	mov	r6, r8
10002236:	401e      	ands	r6, r3
10002238:	4642      	mov	r2, r8
1000223a:	421a      	tst	r2, r3
1000223c:	d012      	beq.n	10002264 <_ntoa_long+0x64>
1000223e:	2c00      	cmp	r4, #0
10002240:	d022      	beq.n	10002288 <_ntoa_long+0x88>
10002242:	2600      	movs	r6, #0
10002244:	e00e      	b.n	10002264 <_ntoa_long+0x64>
10002246:	3330      	adds	r3, #48	; 0x30
10002248:	b2d9      	uxtb	r1, r3
1000224a:	1c77      	adds	r7, r6, #1
1000224c:	ab0a      	add	r3, sp, #40	; 0x28
1000224e:	5599      	strb	r1, [r3, r6]
10002250:	0029      	movs	r1, r5
10002252:	0020      	movs	r0, r4
10002254:	f000 ffd6 	bl	10003204 <__wrap___aeabi_uidiv>
10002258:	42ac      	cmp	r4, r5
1000225a:	d316      	bcc.n	1000228a <_ntoa_long+0x8a>
1000225c:	2f1f      	cmp	r7, #31
1000225e:	d814      	bhi.n	1000228a <_ntoa_long+0x8a>
10002260:	003e      	movs	r6, r7
10002262:	0004      	movs	r4, r0
10002264:	0029      	movs	r1, r5
10002266:	0020      	movs	r0, r4
10002268:	f000 ffcc 	bl	10003204 <__wrap___aeabi_uidiv>
1000226c:	b2cb      	uxtb	r3, r1
1000226e:	2b09      	cmp	r3, #9
10002270:	d9e9      	bls.n	10002246 <_ntoa_long+0x46>
10002272:	4642      	mov	r2, r8
10002274:	0692      	lsls	r2, r2, #26
10002276:	d505      	bpl.n	10002284 <_ntoa_long+0x84>
10002278:	2141      	movs	r1, #65	; 0x41
1000227a:	18c9      	adds	r1, r1, r3
1000227c:	b2c9      	uxtb	r1, r1
1000227e:	390a      	subs	r1, #10
10002280:	b2c9      	uxtb	r1, r1
10002282:	e7e2      	b.n	1000224a <_ntoa_long+0x4a>
10002284:	2161      	movs	r1, #97	; 0x61
10002286:	e7f8      	b.n	1000227a <_ntoa_long+0x7a>
10002288:	0027      	movs	r7, r4
1000228a:	4643      	mov	r3, r8
1000228c:	9306      	str	r3, [sp, #24]
1000228e:	9b20      	ldr	r3, [sp, #128]	; 0x80
10002290:	9305      	str	r3, [sp, #20]
10002292:	9b1f      	ldr	r3, [sp, #124]	; 0x7c
10002294:	9304      	str	r3, [sp, #16]
10002296:	9503      	str	r5, [sp, #12]
10002298:	465b      	mov	r3, fp
1000229a:	9302      	str	r3, [sp, #8]
1000229c:	9701      	str	r7, [sp, #4]
1000229e:	ab0a      	add	r3, sp, #40	; 0x28
100022a0:	9300      	str	r3, [sp, #0]
100022a2:	9b09      	ldr	r3, [sp, #36]	; 0x24
100022a4:	9a08      	ldr	r2, [sp, #32]
100022a6:	4651      	mov	r1, sl
100022a8:	4648      	mov	r0, r9
100022aa:	f7ff ff20 	bl	100020ee <_ntoa_format>
100022ae:	b013      	add	sp, #76	; 0x4c
100022b0:	bcf0      	pop	{r4, r5, r6, r7}
100022b2:	46bb      	mov	fp, r7
100022b4:	46b2      	mov	sl, r6
100022b6:	46a9      	mov	r9, r5
100022b8:	46a0      	mov	r8, r4
100022ba:	bdf0      	pop	{r4, r5, r6, r7, pc}

100022bc <_ntoa_long_long>:
100022bc:	b5f0      	push	{r4, r5, r6, r7, lr}
100022be:	46de      	mov	lr, fp
100022c0:	4657      	mov	r7, sl
100022c2:	464e      	mov	r6, r9
100022c4:	4645      	mov	r5, r8
100022c6:	b5e0      	push	{r5, r6, r7, lr}
100022c8:	b095      	sub	sp, #84	; 0x54
100022ca:	9008      	str	r0, [sp, #32]
100022cc:	9109      	str	r1, [sp, #36]	; 0x24
100022ce:	920a      	str	r2, [sp, #40]	; 0x28
100022d0:	930b      	str	r3, [sp, #44]	; 0x2c
100022d2:	9e1e      	ldr	r6, [sp, #120]	; 0x78
100022d4:	9c1f      	ldr	r4, [sp, #124]	; 0x7c
100022d6:	ab20      	add	r3, sp, #128	; 0x80
100022d8:	781b      	ldrb	r3, [r3, #0]
100022da:	469b      	mov	fp, r3
100022dc:	9b22      	ldr	r3, [sp, #136]	; 0x88
100022de:	4699      	mov	r9, r3
100022e0:	9d23      	ldr	r5, [sp, #140]	; 0x8c
100022e2:	9b26      	ldr	r3, [sp, #152]	; 0x98
100022e4:	469a      	mov	sl, r3
100022e6:	0033      	movs	r3, r6
100022e8:	4323      	orrs	r3, r4
100022ea:	d103      	bne.n	100022f4 <_ntoa_long_long+0x38>
100022ec:	3310      	adds	r3, #16
100022ee:	4652      	mov	r2, sl
100022f0:	439a      	bics	r2, r3
100022f2:	4692      	mov	sl, r2
100022f4:	2380      	movs	r3, #128	; 0x80
100022f6:	00db      	lsls	r3, r3, #3
100022f8:	4657      	mov	r7, sl
100022fa:	401f      	ands	r7, r3
100022fc:	4652      	mov	r2, sl
100022fe:	421a      	tst	r2, r3
10002300:	d019      	beq.n	10002336 <_ntoa_long_long+0x7a>
10002302:	0033      	movs	r3, r6
10002304:	4323      	orrs	r3, r4
10002306:	d02d      	beq.n	10002364 <_ntoa_long_long+0xa8>
10002308:	2700      	movs	r7, #0
1000230a:	e014      	b.n	10002336 <_ntoa_long_long+0x7a>
1000230c:	3330      	adds	r3, #48	; 0x30
1000230e:	b2da      	uxtb	r2, r3
10002310:	1c7b      	adds	r3, r7, #1
10002312:	4698      	mov	r8, r3
10002314:	ab0c      	add	r3, sp, #48	; 0x30
10002316:	55da      	strb	r2, [r3, r7]
10002318:	464a      	mov	r2, r9
1000231a:	002b      	movs	r3, r5
1000231c:	0030      	movs	r0, r6
1000231e:	0021      	movs	r1, r4
10002320:	f000 ffae 	bl	10003280 <__wrap___aeabi_uldivmod>
10002324:	42a5      	cmp	r5, r4
10002326:	d81f      	bhi.n	10002368 <_ntoa_long_long+0xac>
10002328:	d019      	beq.n	1000235e <_ntoa_long_long+0xa2>
1000232a:	4643      	mov	r3, r8
1000232c:	2b1f      	cmp	r3, #31
1000232e:	d81b      	bhi.n	10002368 <_ntoa_long_long+0xac>
10002330:	4647      	mov	r7, r8
10002332:	0006      	movs	r6, r0
10002334:	000c      	movs	r4, r1
10002336:	464a      	mov	r2, r9
10002338:	002b      	movs	r3, r5
1000233a:	0030      	movs	r0, r6
1000233c:	0021      	movs	r1, r4
1000233e:	f000 ff9f 	bl	10003280 <__wrap___aeabi_uldivmod>
10002342:	b2d3      	uxtb	r3, r2
10002344:	2b09      	cmp	r3, #9
10002346:	d9e1      	bls.n	1000230c <_ntoa_long_long+0x50>
10002348:	4652      	mov	r2, sl
1000234a:	0692      	lsls	r2, r2, #26
1000234c:	d505      	bpl.n	1000235a <_ntoa_long_long+0x9e>
1000234e:	2241      	movs	r2, #65	; 0x41
10002350:	18d2      	adds	r2, r2, r3
10002352:	b2d2      	uxtb	r2, r2
10002354:	3a0a      	subs	r2, #10
10002356:	b2d2      	uxtb	r2, r2
10002358:	e7da      	b.n	10002310 <_ntoa_long_long+0x54>
1000235a:	2261      	movs	r2, #97	; 0x61
1000235c:	e7f8      	b.n	10002350 <_ntoa_long_long+0x94>
1000235e:	45b1      	cmp	r9, r6
10002360:	d9e3      	bls.n	1000232a <_ntoa_long_long+0x6e>
10002362:	e001      	b.n	10002368 <_ntoa_long_long+0xac>
10002364:	2300      	movs	r3, #0
10002366:	4698      	mov	r8, r3
10002368:	4653      	mov	r3, sl
1000236a:	9306      	str	r3, [sp, #24]
1000236c:	9b25      	ldr	r3, [sp, #148]	; 0x94
1000236e:	9305      	str	r3, [sp, #20]
10002370:	9b24      	ldr	r3, [sp, #144]	; 0x90
10002372:	9304      	str	r3, [sp, #16]
10002374:	464b      	mov	r3, r9
10002376:	9303      	str	r3, [sp, #12]
10002378:	465b      	mov	r3, fp
1000237a:	9302      	str	r3, [sp, #8]
1000237c:	4643      	mov	r3, r8
1000237e:	9301      	str	r3, [sp, #4]
10002380:	ab0c      	add	r3, sp, #48	; 0x30
10002382:	9300      	str	r3, [sp, #0]
10002384:	9b0b      	ldr	r3, [sp, #44]	; 0x2c
10002386:	9a0a      	ldr	r2, [sp, #40]	; 0x28
10002388:	9909      	ldr	r1, [sp, #36]	; 0x24
1000238a:	9808      	ldr	r0, [sp, #32]
1000238c:	f7ff feaf 	bl	100020ee <_ntoa_format>
10002390:	b015      	add	sp, #84	; 0x54
10002392:	bcf0      	pop	{r4, r5, r6, r7}
10002394:	46bb      	mov	fp, r7
10002396:	46b2      	mov	sl, r6
10002398:	46a9      	mov	r9, r5
1000239a:	46a0      	mov	r8, r4
1000239c:	bdf0      	pop	{r4, r5, r6, r7, pc}
	...

100023a0 <_etoa>:
100023a0:	b5f0      	push	{r4, r5, r6, r7, lr}
100023a2:	46de      	mov	lr, fp
100023a4:	4657      	mov	r7, sl
100023a6:	464e      	mov	r6, r9
100023a8:	4645      	mov	r5, r8
100023aa:	b5e0      	push	{r5, r6, r7, lr}
100023ac:	b091      	sub	sp, #68	; 0x44
100023ae:	4683      	mov	fp, r0
100023b0:	468a      	mov	sl, r1
100023b2:	920c      	str	r2, [sp, #48]	; 0x30
100023b4:	4698      	mov	r8, r3
100023b6:	9c1a      	ldr	r4, [sp, #104]	; 0x68
100023b8:	9408      	str	r4, [sp, #32]
100023ba:	9d1b      	ldr	r5, [sp, #108]	; 0x6c
100023bc:	9509      	str	r5, [sp, #36]	; 0x24
100023be:	0022      	movs	r2, r4
100023c0:	002b      	movs	r3, r5
100023c2:	0020      	movs	r0, r4
100023c4:	0029      	movs	r1, r5
100023c6:	f001 f9e6 	bl	10003796 <__wrap___aeabi_dcmpun>
100023ca:	2800      	cmp	r0, #0
100023cc:	d000      	beq.n	100023d0 <_etoa+0x30>
100023ce:	e0e5      	b.n	1000259c <_etoa+0x1fc>
100023d0:	2201      	movs	r2, #1
100023d2:	4252      	negs	r2, r2
100023d4:	4bd7      	ldr	r3, [pc, #860]	; (10002734 <_etoa+0x394>)
100023d6:	0020      	movs	r0, r4
100023d8:	0029      	movs	r1, r5
100023da:	f001 f9d7 	bl	1000378c <__wrap___aeabi_dcmpgt>
100023de:	2800      	cmp	r0, #0
100023e0:	d000      	beq.n	100023e4 <_etoa+0x44>
100023e2:	e0db      	b.n	1000259c <_etoa+0x1fc>
100023e4:	2201      	movs	r2, #1
100023e6:	4252      	negs	r2, r2
100023e8:	4bd3      	ldr	r3, [pc, #844]	; (10002738 <_etoa+0x398>)
100023ea:	0020      	movs	r0, r4
100023ec:	0029      	movs	r1, r5
100023ee:	f001 f9b7 	bl	10003760 <__wrap___aeabi_dcmplt>
100023f2:	2800      	cmp	r0, #0
100023f4:	d000      	beq.n	100023f8 <_etoa+0x58>
100023f6:	e0d1      	b.n	1000259c <_etoa+0x1fc>
100023f8:	2200      	movs	r2, #0
100023fa:	2300      	movs	r3, #0
100023fc:	9e08      	ldr	r6, [sp, #32]
100023fe:	0030      	movs	r0, r6
10002400:	9d09      	ldr	r5, [sp, #36]	; 0x24
10002402:	0029      	movs	r1, r5
10002404:	f001 f9ac 	bl	10003760 <__wrap___aeabi_dcmplt>
10002408:	2800      	cmp	r0, #0
1000240a:	d000      	beq.n	1000240e <_etoa+0x6e>
1000240c:	e0dd      	b.n	100025ca <_etoa+0x22a>
1000240e:	9808      	ldr	r0, [sp, #32]
10002410:	9909      	ldr	r1, [sp, #36]	; 0x24
10002412:	9006      	str	r0, [sp, #24]
10002414:	9107      	str	r1, [sp, #28]
10002416:	2380      	movs	r3, #128	; 0x80
10002418:	00db      	lsls	r3, r3, #3
1000241a:	9a1e      	ldr	r2, [sp, #120]	; 0x78
1000241c:	401a      	ands	r2, r3
1000241e:	920d      	str	r2, [sp, #52]	; 0x34
10002420:	9a1e      	ldr	r2, [sp, #120]	; 0x78
10002422:	421a      	tst	r2, r3
10002424:	d101      	bne.n	1000242a <_etoa+0x8a>
10002426:	2306      	movs	r3, #6
10002428:	931c      	str	r3, [sp, #112]	; 0x70
1000242a:	9806      	ldr	r0, [sp, #24]
1000242c:	9907      	ldr	r1, [sp, #28]
1000242e:	0004      	movs	r4, r0
10002430:	000d      	movs	r5, r1
10002432:	000a      	movs	r2, r1
10002434:	0006      	movs	r6, r0
10002436:	4302      	orrs	r2, r0
10002438:	d100      	bne.n	1000243c <_etoa+0x9c>
1000243a:	e0d1      	b.n	100025e0 <_etoa+0x240>
1000243c:	0d08      	lsrs	r0, r1, #20
1000243e:	0540      	lsls	r0, r0, #21
10002440:	0d40      	lsrs	r0, r0, #21
10002442:	4cbe      	ldr	r4, [pc, #760]	; (1000273c <_etoa+0x39c>)
10002444:	46a4      	mov	ip, r4
10002446:	4460      	add	r0, ip
10002448:	030a      	lsls	r2, r1, #12
1000244a:	0b12      	lsrs	r2, r2, #12
1000244c:	4bbc      	ldr	r3, [pc, #752]	; (10002740 <_etoa+0x3a0>)
1000244e:	4313      	orrs	r3, r2
10002450:	001f      	movs	r7, r3
10002452:	f001 f9b3 	bl	100037bc <__wrap___aeabi_i2d>
10002456:	4abb      	ldr	r2, [pc, #748]	; (10002744 <_etoa+0x3a4>)
10002458:	4bbb      	ldr	r3, [pc, #748]	; (10002748 <_etoa+0x3a8>)
1000245a:	f001 f93e 	bl	100036da <__wrap___aeabi_dmul>
1000245e:	4abb      	ldr	r2, [pc, #748]	; (1000274c <_etoa+0x3ac>)
10002460:	4bbb      	ldr	r3, [pc, #748]	; (10002750 <_etoa+0x3b0>)
10002462:	f001 f913 	bl	1000368c <__wrap___aeabi_dadd>
10002466:	0004      	movs	r4, r0
10002468:	000d      	movs	r5, r1
1000246a:	2200      	movs	r2, #0
1000246c:	4bb9      	ldr	r3, [pc, #740]	; (10002754 <_etoa+0x3b4>)
1000246e:	0030      	movs	r0, r6
10002470:	0039      	movs	r1, r7
10002472:	f001 f902 	bl	1000367a <__wrap___aeabi_dsub>
10002476:	4ab8      	ldr	r2, [pc, #736]	; (10002758 <_etoa+0x3b8>)
10002478:	4bb8      	ldr	r3, [pc, #736]	; (1000275c <_etoa+0x3bc>)
1000247a:	f001 f92e 	bl	100036da <__wrap___aeabi_dmul>
1000247e:	0002      	movs	r2, r0
10002480:	000b      	movs	r3, r1
10002482:	0020      	movs	r0, r4
10002484:	0029      	movs	r1, r5
10002486:	f001 f901 	bl	1000368c <__wrap___aeabi_dadd>
1000248a:	f001 f9af 	bl	100037ec <__wrap___aeabi_d2iz>
1000248e:	4681      	mov	r9, r0
10002490:	f001 f994 	bl	100037bc <__wrap___aeabi_i2d>
10002494:	0004      	movs	r4, r0
10002496:	000d      	movs	r5, r1
10002498:	4ab1      	ldr	r2, [pc, #708]	; (10002760 <_etoa+0x3c0>)
1000249a:	4bb2      	ldr	r3, [pc, #712]	; (10002764 <_etoa+0x3c4>)
1000249c:	f001 f91d 	bl	100036da <__wrap___aeabi_dmul>
100024a0:	2200      	movs	r2, #0
100024a2:	4bb1      	ldr	r3, [pc, #708]	; (10002768 <_etoa+0x3c8>)
100024a4:	f001 f8f2 	bl	1000368c <__wrap___aeabi_dadd>
100024a8:	f001 f9a0 	bl	100037ec <__wrap___aeabi_d2iz>
100024ac:	0006      	movs	r6, r0
100024ae:	4aaf      	ldr	r2, [pc, #700]	; (1000276c <_etoa+0x3cc>)
100024b0:	4baf      	ldr	r3, [pc, #700]	; (10002770 <_etoa+0x3d0>)
100024b2:	0020      	movs	r0, r4
100024b4:	0029      	movs	r1, r5
100024b6:	f001 f910 	bl	100036da <__wrap___aeabi_dmul>
100024ba:	0004      	movs	r4, r0
100024bc:	000d      	movs	r5, r1
100024be:	0030      	movs	r0, r6
100024c0:	f001 f97c 	bl	100037bc <__wrap___aeabi_i2d>
100024c4:	4aab      	ldr	r2, [pc, #684]	; (10002774 <_etoa+0x3d4>)
100024c6:	4bac      	ldr	r3, [pc, #688]	; (10002778 <_etoa+0x3d8>)
100024c8:	f001 f907 	bl	100036da <__wrap___aeabi_dmul>
100024cc:	0002      	movs	r2, r0
100024ce:	000b      	movs	r3, r1
100024d0:	0020      	movs	r0, r4
100024d2:	0029      	movs	r1, r5
100024d4:	f001 f8d1 	bl	1000367a <__wrap___aeabi_dsub>
100024d8:	0004      	movs	r4, r0
100024da:	000d      	movs	r5, r1
100024dc:	0002      	movs	r2, r0
100024de:	000b      	movs	r3, r1
100024e0:	f001 f8fb 	bl	100036da <__wrap___aeabi_dmul>
100024e4:	900a      	str	r0, [sp, #40]	; 0x28
100024e6:	910b      	str	r1, [sp, #44]	; 0x2c
100024e8:	4ba4      	ldr	r3, [pc, #656]	; (1000277c <_etoa+0x3dc>)
100024ea:	18f3      	adds	r3, r6, r3
100024ec:	2600      	movs	r6, #0
100024ee:	051f      	lsls	r7, r3, #20
100024f0:	0022      	movs	r2, r4
100024f2:	002b      	movs	r3, r5
100024f4:	0020      	movs	r0, r4
100024f6:	0029      	movs	r1, r5
100024f8:	f001 f8c8 	bl	1000368c <__wrap___aeabi_dadd>
100024fc:	900e      	str	r0, [sp, #56]	; 0x38
100024fe:	910f      	str	r1, [sp, #60]	; 0x3c
10002500:	0022      	movs	r2, r4
10002502:	002b      	movs	r3, r5
10002504:	2000      	movs	r0, #0
10002506:	2180      	movs	r1, #128	; 0x80
10002508:	05c9      	lsls	r1, r1, #23
1000250a:	f001 f8b6 	bl	1000367a <__wrap___aeabi_dsub>
1000250e:	0004      	movs	r4, r0
10002510:	000d      	movs	r5, r1
10002512:	2200      	movs	r2, #0
10002514:	4b9a      	ldr	r3, [pc, #616]	; (10002780 <_etoa+0x3e0>)
10002516:	980a      	ldr	r0, [sp, #40]	; 0x28
10002518:	990b      	ldr	r1, [sp, #44]	; 0x2c
1000251a:	f001 f8c0 	bl	1000369e <__wrap___aeabi_ddiv>
1000251e:	2200      	movs	r2, #0
10002520:	4b98      	ldr	r3, [pc, #608]	; (10002784 <_etoa+0x3e4>)
10002522:	f001 f8b3 	bl	1000368c <__wrap___aeabi_dadd>
10002526:	0002      	movs	r2, r0
10002528:	000b      	movs	r3, r1
1000252a:	980a      	ldr	r0, [sp, #40]	; 0x28
1000252c:	990b      	ldr	r1, [sp, #44]	; 0x2c
1000252e:	f001 f8b6 	bl	1000369e <__wrap___aeabi_ddiv>
10002532:	2200      	movs	r2, #0
10002534:	4b94      	ldr	r3, [pc, #592]	; (10002788 <_etoa+0x3e8>)
10002536:	f001 f8a9 	bl	1000368c <__wrap___aeabi_dadd>
1000253a:	0002      	movs	r2, r0
1000253c:	000b      	movs	r3, r1
1000253e:	980a      	ldr	r0, [sp, #40]	; 0x28
10002540:	990b      	ldr	r1, [sp, #44]	; 0x2c
10002542:	f001 f8ac 	bl	1000369e <__wrap___aeabi_ddiv>
10002546:	0002      	movs	r2, r0
10002548:	000b      	movs	r3, r1
1000254a:	0020      	movs	r0, r4
1000254c:	0029      	movs	r1, r5
1000254e:	f001 f89d 	bl	1000368c <__wrap___aeabi_dadd>
10002552:	0002      	movs	r2, r0
10002554:	000b      	movs	r3, r1
10002556:	980e      	ldr	r0, [sp, #56]	; 0x38
10002558:	990f      	ldr	r1, [sp, #60]	; 0x3c
1000255a:	f001 f8a0 	bl	1000369e <__wrap___aeabi_ddiv>
1000255e:	2200      	movs	r2, #0
10002560:	4b77      	ldr	r3, [pc, #476]	; (10002740 <_etoa+0x3a0>)
10002562:	f001 f893 	bl	1000368c <__wrap___aeabi_dadd>
10002566:	0032      	movs	r2, r6
10002568:	003b      	movs	r3, r7
1000256a:	f001 f8b6 	bl	100036da <__wrap___aeabi_dmul>
1000256e:	0006      	movs	r6, r0
10002570:	000f      	movs	r7, r1
10002572:	0004      	movs	r4, r0
10002574:	000d      	movs	r5, r1
10002576:	9a06      	ldr	r2, [sp, #24]
10002578:	9b07      	ldr	r3, [sp, #28]
1000257a:	f001 f907 	bl	1000378c <__wrap___aeabi_dcmpgt>
1000257e:	2800      	cmp	r0, #0
10002580:	d030      	beq.n	100025e4 <_etoa+0x244>
10002582:	2301      	movs	r3, #1
10002584:	425b      	negs	r3, r3
10002586:	469c      	mov	ip, r3
10002588:	44e1      	add	r9, ip
1000258a:	2200      	movs	r2, #0
1000258c:	4b7d      	ldr	r3, [pc, #500]	; (10002784 <_etoa+0x3e4>)
1000258e:	0030      	movs	r0, r6
10002590:	0039      	movs	r1, r7
10002592:	f001 f884 	bl	1000369e <__wrap___aeabi_ddiv>
10002596:	0004      	movs	r4, r0
10002598:	000d      	movs	r5, r1
1000259a:	e023      	b.n	100025e4 <_etoa+0x244>
1000259c:	9b1e      	ldr	r3, [sp, #120]	; 0x78
1000259e:	9304      	str	r3, [sp, #16]
100025a0:	9b1d      	ldr	r3, [sp, #116]	; 0x74
100025a2:	9303      	str	r3, [sp, #12]
100025a4:	9b1c      	ldr	r3, [sp, #112]	; 0x70
100025a6:	9302      	str	r3, [sp, #8]
100025a8:	9a08      	ldr	r2, [sp, #32]
100025aa:	9b09      	ldr	r3, [sp, #36]	; 0x24
100025ac:	9200      	str	r2, [sp, #0]
100025ae:	9301      	str	r3, [sp, #4]
100025b0:	4643      	mov	r3, r8
100025b2:	9a0c      	ldr	r2, [sp, #48]	; 0x30
100025b4:	4651      	mov	r1, sl
100025b6:	4658      	mov	r0, fp
100025b8:	f000 f8fc 	bl	100027b4 <_ftoa>
100025bc:	b011      	add	sp, #68	; 0x44
100025be:	bcf0      	pop	{r4, r5, r6, r7}
100025c0:	46bb      	mov	fp, r7
100025c2:	46b2      	mov	sl, r6
100025c4:	46a9      	mov	r9, r5
100025c6:	46a0      	mov	r8, r4
100025c8:	bdf0      	pop	{r4, r5, r6, r7, pc}
100025ca:	2300      	movs	r3, #0
100025cc:	2400      	movs	r4, #0
100025ce:	9306      	str	r3, [sp, #24]
100025d0:	9407      	str	r4, [sp, #28]
100025d2:	9606      	str	r6, [sp, #24]
100025d4:	2380      	movs	r3, #128	; 0x80
100025d6:	061b      	lsls	r3, r3, #24
100025d8:	469c      	mov	ip, r3
100025da:	4465      	add	r5, ip
100025dc:	9507      	str	r5, [sp, #28]
100025de:	e71a      	b.n	10002416 <_etoa+0x76>
100025e0:	2300      	movs	r3, #0
100025e2:	4699      	mov	r9, r3
100025e4:	464b      	mov	r3, r9
100025e6:	3363      	adds	r3, #99	; 0x63
100025e8:	2bc6      	cmp	r3, #198	; 0xc6
100025ea:	d81e      	bhi.n	1000262a <_etoa+0x28a>
100025ec:	2604      	movs	r6, #4
100025ee:	9b1e      	ldr	r3, [sp, #120]	; 0x78
100025f0:	051b      	lsls	r3, r3, #20
100025f2:	d526      	bpl.n	10002642 <_etoa+0x2a2>
100025f4:	002b      	movs	r3, r5
100025f6:	4323      	orrs	r3, r4
100025f8:	d00f      	beq.n	1000261a <_etoa+0x27a>
100025fa:	4a64      	ldr	r2, [pc, #400]	; (1000278c <_etoa+0x3ec>)
100025fc:	4b64      	ldr	r3, [pc, #400]	; (10002790 <_etoa+0x3f0>)
100025fe:	9806      	ldr	r0, [sp, #24]
10002600:	9907      	ldr	r1, [sp, #28]
10002602:	f001 f8bb 	bl	1000377c <__wrap___aeabi_dcmpge>
10002606:	2800      	cmp	r0, #0
10002608:	d079      	beq.n	100026fe <_etoa+0x35e>
1000260a:	2200      	movs	r2, #0
1000260c:	4b61      	ldr	r3, [pc, #388]	; (10002794 <_etoa+0x3f4>)
1000260e:	9806      	ldr	r0, [sp, #24]
10002610:	9907      	ldr	r1, [sp, #28]
10002612:	f001 f8a5 	bl	10003760 <__wrap___aeabi_dcmplt>
10002616:	2800      	cmp	r0, #0
10002618:	d071      	beq.n	100026fe <_etoa+0x35e>
1000261a:	9b1c      	ldr	r3, [sp, #112]	; 0x70
1000261c:	454b      	cmp	r3, r9
1000261e:	dd06      	ble.n	1000262e <_etoa+0x28e>
10002620:	464a      	mov	r2, r9
10002622:	1a98      	subs	r0, r3, r2
10002624:	1e43      	subs	r3, r0, #1
10002626:	931c      	str	r3, [sp, #112]	; 0x70
10002628:	e003      	b.n	10002632 <_etoa+0x292>
1000262a:	2605      	movs	r6, #5
1000262c:	e7df      	b.n	100025ee <_etoa+0x24e>
1000262e:	2300      	movs	r3, #0
10002630:	931c      	str	r3, [sp, #112]	; 0x70
10002632:	2380      	movs	r3, #128	; 0x80
10002634:	00db      	lsls	r3, r3, #3
10002636:	9a1e      	ldr	r2, [sp, #120]	; 0x78
10002638:	431a      	orrs	r2, r3
1000263a:	921e      	str	r2, [sp, #120]	; 0x78
1000263c:	2600      	movs	r6, #0
1000263e:	2300      	movs	r3, #0
10002640:	4699      	mov	r9, r3
10002642:	9b1d      	ldr	r3, [sp, #116]	; 0x74
10002644:	429e      	cmp	r6, r3
10002646:	d264      	bcs.n	10002712 <_etoa+0x372>
10002648:	1b9f      	subs	r7, r3, r6
1000264a:	2302      	movs	r3, #2
1000264c:	9a1e      	ldr	r2, [sp, #120]	; 0x78
1000264e:	401a      	ands	r2, r3
10002650:	920a      	str	r2, [sp, #40]	; 0x28
10002652:	9a1e      	ldr	r2, [sp, #120]	; 0x78
10002654:	4213      	tst	r3, r2
10002656:	d002      	beq.n	1000265e <_etoa+0x2be>
10002658:	2e00      	cmp	r6, #0
1000265a:	d000      	beq.n	1000265e <_etoa+0x2be>
1000265c:	2700      	movs	r7, #0
1000265e:	464b      	mov	r3, r9
10002660:	2b00      	cmp	r3, #0
10002662:	d007      	beq.n	10002674 <_etoa+0x2d4>
10002664:	0022      	movs	r2, r4
10002666:	002b      	movs	r3, r5
10002668:	9806      	ldr	r0, [sp, #24]
1000266a:	9907      	ldr	r1, [sp, #28]
1000266c:	f001 f817 	bl	1000369e <__wrap___aeabi_ddiv>
10002670:	9006      	str	r0, [sp, #24]
10002672:	9107      	str	r1, [sp, #28]
10002674:	2200      	movs	r2, #0
10002676:	2300      	movs	r3, #0
10002678:	9808      	ldr	r0, [sp, #32]
1000267a:	9909      	ldr	r1, [sp, #36]	; 0x24
1000267c:	f001 f870 	bl	10003760 <__wrap___aeabi_dcmplt>
10002680:	2800      	cmp	r0, #0
10002682:	d148      	bne.n	10002716 <_etoa+0x376>
10002684:	4b44      	ldr	r3, [pc, #272]	; (10002798 <_etoa+0x3f8>)
10002686:	9a1e      	ldr	r2, [sp, #120]	; 0x78
10002688:	4013      	ands	r3, r2
1000268a:	9304      	str	r3, [sp, #16]
1000268c:	9703      	str	r7, [sp, #12]
1000268e:	9b1c      	ldr	r3, [sp, #112]	; 0x70
10002690:	9302      	str	r3, [sp, #8]
10002692:	9b06      	ldr	r3, [sp, #24]
10002694:	9c07      	ldr	r4, [sp, #28]
10002696:	9300      	str	r3, [sp, #0]
10002698:	9401      	str	r4, [sp, #4]
1000269a:	4643      	mov	r3, r8
1000269c:	9a0c      	ldr	r2, [sp, #48]	; 0x30
1000269e:	4651      	mov	r1, sl
100026a0:	4658      	mov	r0, fp
100026a2:	f000 f887 	bl	100027b4 <_ftoa>
100026a6:	2e00      	cmp	r6, #0
100026a8:	d100      	bne.n	100026ac <_etoa+0x30c>
100026aa:	e787      	b.n	100025bc <_etoa+0x21c>
100026ac:	9b1e      	ldr	r3, [sp, #120]	; 0x78
100026ae:	069b      	lsls	r3, r3, #26
100026b0:	d53d      	bpl.n	1000272e <_etoa+0x38e>
100026b2:	2545      	movs	r5, #69	; 0x45
100026b4:	1c44      	adds	r4, r0, #1
100026b6:	4643      	mov	r3, r8
100026b8:	0002      	movs	r2, r0
100026ba:	4651      	mov	r1, sl
100026bc:	0028      	movs	r0, r5
100026be:	47d8      	blx	fp
100026c0:	464b      	mov	r3, r9
100026c2:	17da      	asrs	r2, r3, #31
100026c4:	189b      	adds	r3, r3, r2
100026c6:	4053      	eors	r3, r2
100026c8:	2205      	movs	r2, #5
100026ca:	9205      	str	r2, [sp, #20]
100026cc:	3e01      	subs	r6, #1
100026ce:	9604      	str	r6, [sp, #16]
100026d0:	2200      	movs	r2, #0
100026d2:	9203      	str	r2, [sp, #12]
100026d4:	320a      	adds	r2, #10
100026d6:	9202      	str	r2, [sp, #8]
100026d8:	464a      	mov	r2, r9
100026da:	0fd0      	lsrs	r0, r2, #31
100026dc:	9001      	str	r0, [sp, #4]
100026de:	9300      	str	r3, [sp, #0]
100026e0:	4643      	mov	r3, r8
100026e2:	0022      	movs	r2, r4
100026e4:	4651      	mov	r1, sl
100026e6:	4658      	mov	r0, fp
100026e8:	f7ff fd8a 	bl	10002200 <_ntoa_long>
100026ec:	9b0a      	ldr	r3, [sp, #40]	; 0x28
100026ee:	2b00      	cmp	r3, #0
100026f0:	d100      	bne.n	100026f4 <_etoa+0x354>
100026f2:	e763      	b.n	100025bc <_etoa+0x21c>
100026f4:	0002      	movs	r2, r0
100026f6:	465f      	mov	r7, fp
100026f8:	9e0c      	ldr	r6, [sp, #48]	; 0x30
100026fa:	9d1d      	ldr	r5, [sp, #116]	; 0x74
100026fc:	e054      	b.n	100027a8 <_etoa+0x408>
100026fe:	9b1c      	ldr	r3, [sp, #112]	; 0x70
10002700:	2b00      	cmp	r3, #0
10002702:	d09e      	beq.n	10002642 <_etoa+0x2a2>
10002704:	9b0d      	ldr	r3, [sp, #52]	; 0x34
10002706:	2b00      	cmp	r3, #0
10002708:	d09b      	beq.n	10002642 <_etoa+0x2a2>
1000270a:	9b1c      	ldr	r3, [sp, #112]	; 0x70
1000270c:	3b01      	subs	r3, #1
1000270e:	931c      	str	r3, [sp, #112]	; 0x70
10002710:	e797      	b.n	10002642 <_etoa+0x2a2>
10002712:	2700      	movs	r7, #0
10002714:	e799      	b.n	1000264a <_etoa+0x2aa>
10002716:	9c06      	ldr	r4, [sp, #24]
10002718:	9d07      	ldr	r5, [sp, #28]
1000271a:	0022      	movs	r2, r4
1000271c:	0029      	movs	r1, r5
1000271e:	2080      	movs	r0, #128	; 0x80
10002720:	0600      	lsls	r0, r0, #24
10002722:	4684      	mov	ip, r0
10002724:	4461      	add	r1, ip
10002726:	000b      	movs	r3, r1
10002728:	9206      	str	r2, [sp, #24]
1000272a:	9307      	str	r3, [sp, #28]
1000272c:	e7aa      	b.n	10002684 <_etoa+0x2e4>
1000272e:	2565      	movs	r5, #101	; 0x65
10002730:	e7c0      	b.n	100026b4 <_etoa+0x314>
10002732:	46c0      	nop			; (mov r8, r8)
10002734:	7fefffff 	.word	0x7fefffff
10002738:	ffefffff 	.word	0xffefffff
1000273c:	fffffc01 	.word	0xfffffc01
10002740:	3ff00000 	.word	0x3ff00000
10002744:	509f79fb 	.word	0x509f79fb
10002748:	3fd34413 	.word	0x3fd34413
1000274c:	8b60c8b3 	.word	0x8b60c8b3
10002750:	3fc68a28 	.word	0x3fc68a28
10002754:	3ff80000 	.word	0x3ff80000
10002758:	636f4361 	.word	0x636f4361
1000275c:	3fd287a7 	.word	0x3fd287a7
10002760:	0979a371 	.word	0x0979a371
10002764:	400a934f 	.word	0x400a934f
10002768:	3fe00000 	.word	0x3fe00000
1000276c:	bbb55516 	.word	0xbbb55516
10002770:	40026bb1 	.word	0x40026bb1
10002774:	fefa39ef 	.word	0xfefa39ef
10002778:	3fe62e42 	.word	0x3fe62e42
1000277c:	000003ff 	.word	0x000003ff
10002780:	402c0000 	.word	0x402c0000
10002784:	40240000 	.word	0x40240000
10002788:	40180000 	.word	0x40180000
1000278c:	eb1c432d 	.word	0xeb1c432d
10002790:	3f1a36e2 	.word	0x3f1a36e2
10002794:	412e8480 	.word	0x412e8480
10002798:	fffff7ff 	.word	0xfffff7ff
1000279c:	1c54      	adds	r4, r2, #1
1000279e:	4643      	mov	r3, r8
100027a0:	4651      	mov	r1, sl
100027a2:	2020      	movs	r0, #32
100027a4:	47b8      	blx	r7
100027a6:	0022      	movs	r2, r4
100027a8:	1b93      	subs	r3, r2, r6
100027aa:	42ab      	cmp	r3, r5
100027ac:	d3f6      	bcc.n	1000279c <_etoa+0x3fc>
100027ae:	0010      	movs	r0, r2
100027b0:	e704      	b.n	100025bc <_etoa+0x21c>
100027b2:	46c0      	nop			; (mov r8, r8)

100027b4 <_ftoa>:
100027b4:	b5f0      	push	{r4, r5, r6, r7, lr}
100027b6:	46de      	mov	lr, fp
100027b8:	4657      	mov	r7, sl
100027ba:	464e      	mov	r6, r9
100027bc:	4645      	mov	r5, r8
100027be:	b5e0      	push	{r5, r6, r7, lr}
100027c0:	b095      	sub	sp, #84	; 0x54
100027c2:	9006      	str	r0, [sp, #24]
100027c4:	9107      	str	r1, [sp, #28]
100027c6:	4693      	mov	fp, r2
100027c8:	4699      	mov	r9, r3
100027ca:	9f20      	ldr	r7, [sp, #128]	; 0x80
100027cc:	9a1e      	ldr	r2, [sp, #120]	; 0x78
100027ce:	9b1f      	ldr	r3, [sp, #124]	; 0x7c
100027d0:	0010      	movs	r0, r2
100027d2:	0019      	movs	r1, r3
100027d4:	f000 ffdf 	bl	10003796 <__wrap___aeabi_dcmpun>
100027d8:	2800      	cmp	r0, #0
100027da:	d131      	bne.n	10002840 <_ftoa+0x8c>
100027dc:	2201      	movs	r2, #1
100027de:	4252      	negs	r2, r2
100027e0:	4bbf      	ldr	r3, [pc, #764]	; (10002ae0 <_ftoa+0x32c>)
100027e2:	981e      	ldr	r0, [sp, #120]	; 0x78
100027e4:	991f      	ldr	r1, [sp, #124]	; 0x7c
100027e6:	f000 ffbb 	bl	10003760 <__wrap___aeabi_dcmplt>
100027ea:	2800      	cmp	r0, #0
100027ec:	d137      	bne.n	1000285e <_ftoa+0xaa>
100027ee:	2201      	movs	r2, #1
100027f0:	4252      	negs	r2, r2
100027f2:	4bbc      	ldr	r3, [pc, #752]	; (10002ae4 <_ftoa+0x330>)
100027f4:	981e      	ldr	r0, [sp, #120]	; 0x78
100027f6:	991f      	ldr	r1, [sp, #124]	; 0x7c
100027f8:	f000 ffc8 	bl	1000378c <__wrap___aeabi_dcmpgt>
100027fc:	2800      	cmp	r0, #0
100027fe:	d13d      	bne.n	1000287c <_ftoa+0xc8>
10002800:	2200      	movs	r2, #0
10002802:	4bb9      	ldr	r3, [pc, #740]	; (10002ae8 <_ftoa+0x334>)
10002804:	981e      	ldr	r0, [sp, #120]	; 0x78
10002806:	991f      	ldr	r1, [sp, #124]	; 0x7c
10002808:	f000 ffc0 	bl	1000378c <__wrap___aeabi_dcmpgt>
1000280c:	2800      	cmp	r0, #0
1000280e:	d150      	bne.n	100028b2 <_ftoa+0xfe>
10002810:	2200      	movs	r2, #0
10002812:	4bb6      	ldr	r3, [pc, #728]	; (10002aec <_ftoa+0x338>)
10002814:	981e      	ldr	r0, [sp, #120]	; 0x78
10002816:	991f      	ldr	r1, [sp, #124]	; 0x7c
10002818:	f000 ffa2 	bl	10003760 <__wrap___aeabi_dcmplt>
1000281c:	2800      	cmp	r0, #0
1000281e:	d148      	bne.n	100028b2 <_ftoa+0xfe>
10002820:	2200      	movs	r2, #0
10002822:	2300      	movs	r3, #0
10002824:	981e      	ldr	r0, [sp, #120]	; 0x78
10002826:	991f      	ldr	r1, [sp, #124]	; 0x7c
10002828:	f000 ff9a 	bl	10003760 <__wrap___aeabi_dcmplt>
1000282c:	2800      	cmp	r0, #0
1000282e:	d150      	bne.n	100028d2 <_ftoa+0x11e>
10002830:	2300      	movs	r3, #0
10002832:	4698      	mov	r8, r3
10002834:	9b22      	ldr	r3, [sp, #136]	; 0x88
10002836:	055b      	lsls	r3, r3, #21
10002838:	d400      	bmi.n	1000283c <_ftoa+0x88>
1000283a:	e0b6      	b.n	100029aa <_ftoa+0x1f6>
1000283c:	2400      	movs	r4, #0
1000283e:	e058      	b.n	100028f2 <_ftoa+0x13e>
10002840:	9b22      	ldr	r3, [sp, #136]	; 0x88
10002842:	9303      	str	r3, [sp, #12]
10002844:	9b21      	ldr	r3, [sp, #132]	; 0x84
10002846:	9302      	str	r3, [sp, #8]
10002848:	2303      	movs	r3, #3
1000284a:	9301      	str	r3, [sp, #4]
1000284c:	4ba8      	ldr	r3, [pc, #672]	; (10002af0 <_ftoa+0x33c>)
1000284e:	9300      	str	r3, [sp, #0]
10002850:	464b      	mov	r3, r9
10002852:	465a      	mov	r2, fp
10002854:	9907      	ldr	r1, [sp, #28]
10002856:	9806      	ldr	r0, [sp, #24]
10002858:	f7ff fbf2 	bl	10002040 <_out_rev>
1000285c:	e10e      	b.n	10002a7c <_ftoa+0x2c8>
1000285e:	9b22      	ldr	r3, [sp, #136]	; 0x88
10002860:	9303      	str	r3, [sp, #12]
10002862:	9b21      	ldr	r3, [sp, #132]	; 0x84
10002864:	9302      	str	r3, [sp, #8]
10002866:	2304      	movs	r3, #4
10002868:	9301      	str	r3, [sp, #4]
1000286a:	4ba2      	ldr	r3, [pc, #648]	; (10002af4 <_ftoa+0x340>)
1000286c:	9300      	str	r3, [sp, #0]
1000286e:	464b      	mov	r3, r9
10002870:	465a      	mov	r2, fp
10002872:	9907      	ldr	r1, [sp, #28]
10002874:	9806      	ldr	r0, [sp, #24]
10002876:	f7ff fbe3 	bl	10002040 <_out_rev>
1000287a:	e0ff      	b.n	10002a7c <_ftoa+0x2c8>
1000287c:	2304      	movs	r3, #4
1000287e:	9a22      	ldr	r2, [sp, #136]	; 0x88
10002880:	401a      	ands	r2, r3
10002882:	9922      	ldr	r1, [sp, #136]	; 0x88
10002884:	420b      	tst	r3, r1
10002886:	d010      	beq.n	100028aa <_ftoa+0xf6>
10002888:	4b9b      	ldr	r3, [pc, #620]	; (10002af8 <_ftoa+0x344>)
1000288a:	2a00      	cmp	r2, #0
1000288c:	d00f      	beq.n	100028ae <_ftoa+0xfa>
1000288e:	2204      	movs	r2, #4
10002890:	9922      	ldr	r1, [sp, #136]	; 0x88
10002892:	9103      	str	r1, [sp, #12]
10002894:	9921      	ldr	r1, [sp, #132]	; 0x84
10002896:	9102      	str	r1, [sp, #8]
10002898:	9201      	str	r2, [sp, #4]
1000289a:	9300      	str	r3, [sp, #0]
1000289c:	464b      	mov	r3, r9
1000289e:	465a      	mov	r2, fp
100028a0:	9907      	ldr	r1, [sp, #28]
100028a2:	9806      	ldr	r0, [sp, #24]
100028a4:	f7ff fbcc 	bl	10002040 <_out_rev>
100028a8:	e0e8      	b.n	10002a7c <_ftoa+0x2c8>
100028aa:	4b94      	ldr	r3, [pc, #592]	; (10002afc <_ftoa+0x348>)
100028ac:	e7ed      	b.n	1000288a <_ftoa+0xd6>
100028ae:	2203      	movs	r2, #3
100028b0:	e7ee      	b.n	10002890 <_ftoa+0xdc>
100028b2:	9b22      	ldr	r3, [sp, #136]	; 0x88
100028b4:	9304      	str	r3, [sp, #16]
100028b6:	9b21      	ldr	r3, [sp, #132]	; 0x84
100028b8:	9303      	str	r3, [sp, #12]
100028ba:	9702      	str	r7, [sp, #8]
100028bc:	9b1e      	ldr	r3, [sp, #120]	; 0x78
100028be:	9c1f      	ldr	r4, [sp, #124]	; 0x7c
100028c0:	9300      	str	r3, [sp, #0]
100028c2:	9401      	str	r4, [sp, #4]
100028c4:	464b      	mov	r3, r9
100028c6:	465a      	mov	r2, fp
100028c8:	9907      	ldr	r1, [sp, #28]
100028ca:	9806      	ldr	r0, [sp, #24]
100028cc:	f7ff fd68 	bl	100023a0 <_etoa>
100028d0:	e0d4      	b.n	10002a7c <_ftoa+0x2c8>
100028d2:	9a1e      	ldr	r2, [sp, #120]	; 0x78
100028d4:	9b1f      	ldr	r3, [sp, #124]	; 0x7c
100028d6:	2000      	movs	r0, #0
100028d8:	2100      	movs	r1, #0
100028da:	f000 fece 	bl	1000367a <__wrap___aeabi_dsub>
100028de:	901e      	str	r0, [sp, #120]	; 0x78
100028e0:	911f      	str	r1, [sp, #124]	; 0x7c
100028e2:	2301      	movs	r3, #1
100028e4:	4698      	mov	r8, r3
100028e6:	e7a5      	b.n	10002834 <_ftoa+0x80>
100028e8:	ab0c      	add	r3, sp, #48	; 0x30
100028ea:	2230      	movs	r2, #48	; 0x30
100028ec:	551a      	strb	r2, [r3, r4]
100028ee:	3f01      	subs	r7, #1
100028f0:	3401      	adds	r4, #1
100028f2:	2c1f      	cmp	r4, #31
100028f4:	d801      	bhi.n	100028fa <_ftoa+0x146>
100028f6:	2f09      	cmp	r7, #9
100028f8:	d8f6      	bhi.n	100028e8 <_ftoa+0x134>
100028fa:	981e      	ldr	r0, [sp, #120]	; 0x78
100028fc:	991f      	ldr	r1, [sp, #124]	; 0x7c
100028fe:	f000 ff75 	bl	100037ec <__wrap___aeabi_d2iz>
10002902:	0005      	movs	r5, r0
10002904:	f000 ff5a 	bl	100037bc <__wrap___aeabi_i2d>
10002908:	0002      	movs	r2, r0
1000290a:	000b      	movs	r3, r1
1000290c:	981e      	ldr	r0, [sp, #120]	; 0x78
1000290e:	991f      	ldr	r1, [sp, #124]	; 0x7c
10002910:	f000 feb3 	bl	1000367a <__wrap___aeabi_dsub>
10002914:	00fa      	lsls	r2, r7, #3
10002916:	4b7a      	ldr	r3, [pc, #488]	; (10002b00 <_ftoa+0x34c>)
10002918:	189b      	adds	r3, r3, r2
1000291a:	681a      	ldr	r2, [r3, #0]
1000291c:	685b      	ldr	r3, [r3, #4]
1000291e:	920a      	str	r2, [sp, #40]	; 0x28
10002920:	930b      	str	r3, [sp, #44]	; 0x2c
10002922:	f000 feda 	bl	100036da <__wrap___aeabi_dmul>
10002926:	9008      	str	r0, [sp, #32]
10002928:	9109      	str	r1, [sp, #36]	; 0x24
1000292a:	f000 ff83 	bl	10003834 <__wrap___aeabi_d2uiz>
1000292e:	0006      	movs	r6, r0
10002930:	f000 ff40 	bl	100037b4 <__wrap___aeabi_ui2d>
10002934:	0002      	movs	r2, r0
10002936:	000b      	movs	r3, r1
10002938:	9808      	ldr	r0, [sp, #32]
1000293a:	9909      	ldr	r1, [sp, #36]	; 0x24
1000293c:	f000 fe9d 	bl	1000367a <__wrap___aeabi_dsub>
10002940:	9008      	str	r0, [sp, #32]
10002942:	9109      	str	r1, [sp, #36]	; 0x24
10002944:	2200      	movs	r2, #0
10002946:	4b6f      	ldr	r3, [pc, #444]	; (10002b04 <_ftoa+0x350>)
10002948:	f000 ff20 	bl	1000378c <__wrap___aeabi_dcmpgt>
1000294c:	2800      	cmp	r0, #0
1000294e:	d02e      	beq.n	100029ae <_ftoa+0x1fa>
10002950:	3601      	adds	r6, #1
10002952:	0030      	movs	r0, r6
10002954:	f000 ff2e 	bl	100037b4 <__wrap___aeabi_ui2d>
10002958:	0002      	movs	r2, r0
1000295a:	000b      	movs	r3, r1
1000295c:	980a      	ldr	r0, [sp, #40]	; 0x28
1000295e:	990b      	ldr	r1, [sp, #44]	; 0x2c
10002960:	f000 ff04 	bl	1000376c <__wrap___aeabi_dcmple>
10002964:	2800      	cmp	r0, #0
10002966:	d001      	beq.n	1000296c <_ftoa+0x1b8>
10002968:	3501      	adds	r5, #1
1000296a:	2600      	movs	r6, #0
1000296c:	2f00      	cmp	r7, #0
1000296e:	d12c      	bne.n	100029ca <_ftoa+0x216>
10002970:	0028      	movs	r0, r5
10002972:	f000 ff23 	bl	100037bc <__wrap___aeabi_i2d>
10002976:	0002      	movs	r2, r0
10002978:	000b      	movs	r3, r1
1000297a:	981e      	ldr	r0, [sp, #120]	; 0x78
1000297c:	991f      	ldr	r1, [sp, #124]	; 0x7c
1000297e:	f000 fe7c 	bl	1000367a <__wrap___aeabi_dsub>
10002982:	0006      	movs	r6, r0
10002984:	000f      	movs	r7, r1
10002986:	2200      	movs	r2, #0
10002988:	4b5e      	ldr	r3, [pc, #376]	; (10002b04 <_ftoa+0x350>)
1000298a:	f000 fee9 	bl	10003760 <__wrap___aeabi_dcmplt>
1000298e:	2800      	cmp	r0, #0
10002990:	d146      	bne.n	10002a20 <_ftoa+0x26c>
10002992:	2200      	movs	r2, #0
10002994:	4b5b      	ldr	r3, [pc, #364]	; (10002b04 <_ftoa+0x350>)
10002996:	0030      	movs	r0, r6
10002998:	0039      	movs	r1, r7
1000299a:	f000 fef7 	bl	1000378c <__wrap___aeabi_dcmpgt>
1000299e:	2800      	cmp	r0, #0
100029a0:	d13e      	bne.n	10002a20 <_ftoa+0x26c>
100029a2:	07eb      	lsls	r3, r5, #31
100029a4:	d53c      	bpl.n	10002a20 <_ftoa+0x26c>
100029a6:	3501      	adds	r5, #1
100029a8:	e03a      	b.n	10002a20 <_ftoa+0x26c>
100029aa:	2706      	movs	r7, #6
100029ac:	e746      	b.n	1000283c <_ftoa+0x88>
100029ae:	2200      	movs	r2, #0
100029b0:	4b54      	ldr	r3, [pc, #336]	; (10002b04 <_ftoa+0x350>)
100029b2:	9808      	ldr	r0, [sp, #32]
100029b4:	9909      	ldr	r1, [sp, #36]	; 0x24
100029b6:	f000 fed3 	bl	10003760 <__wrap___aeabi_dcmplt>
100029ba:	2800      	cmp	r0, #0
100029bc:	d1d6      	bne.n	1000296c <_ftoa+0x1b8>
100029be:	2e00      	cmp	r6, #0
100029c0:	d001      	beq.n	100029c6 <_ftoa+0x212>
100029c2:	07f3      	lsls	r3, r6, #31
100029c4:	d5d2      	bpl.n	1000296c <_ftoa+0x1b8>
100029c6:	3601      	adds	r6, #1
100029c8:	e7d0      	b.n	1000296c <_ftoa+0x1b8>
100029ca:	46aa      	mov	sl, r5
100029cc:	2c1f      	cmp	r4, #31
100029ce:	d811      	bhi.n	100029f4 <_ftoa+0x240>
100029d0:	3f01      	subs	r7, #1
100029d2:	210a      	movs	r1, #10
100029d4:	0030      	movs	r0, r6
100029d6:	f000 fc15 	bl	10003204 <__wrap___aeabi_uidiv>
100029da:	1c65      	adds	r5, r4, #1
100029dc:	3130      	adds	r1, #48	; 0x30
100029de:	ab0c      	add	r3, sp, #48	; 0x30
100029e0:	5519      	strb	r1, [r3, r4]
100029e2:	210a      	movs	r1, #10
100029e4:	0030      	movs	r0, r6
100029e6:	f000 fc0d 	bl	10003204 <__wrap___aeabi_uidiv>
100029ea:	2e09      	cmp	r6, #9
100029ec:	d90e      	bls.n	10002a0c <_ftoa+0x258>
100029ee:	0006      	movs	r6, r0
100029f0:	002c      	movs	r4, r5
100029f2:	e7eb      	b.n	100029cc <_ftoa+0x218>
100029f4:	4655      	mov	r5, sl
100029f6:	2c1f      	cmp	r4, #31
100029f8:	d80c      	bhi.n	10002a14 <_ftoa+0x260>
100029fa:	1e7b      	subs	r3, r7, #1
100029fc:	2f00      	cmp	r7, #0
100029fe:	d009      	beq.n	10002a14 <_ftoa+0x260>
10002a00:	aa0c      	add	r2, sp, #48	; 0x30
10002a02:	2130      	movs	r1, #48	; 0x30
10002a04:	5511      	strb	r1, [r2, r4]
10002a06:	001f      	movs	r7, r3
10002a08:	3401      	adds	r4, #1
10002a0a:	e7f4      	b.n	100029f6 <_ftoa+0x242>
10002a0c:	002b      	movs	r3, r5
10002a0e:	4655      	mov	r5, sl
10002a10:	001c      	movs	r4, r3
10002a12:	e7f0      	b.n	100029f6 <_ftoa+0x242>
10002a14:	2c1f      	cmp	r4, #31
10002a16:	d803      	bhi.n	10002a20 <_ftoa+0x26c>
10002a18:	ab0c      	add	r3, sp, #48	; 0x30
10002a1a:	222e      	movs	r2, #46	; 0x2e
10002a1c:	551a      	strb	r2, [r3, r4]
10002a1e:	3401      	adds	r4, #1
10002a20:	2c1f      	cmp	r4, #31
10002a22:	d810      	bhi.n	10002a46 <_ftoa+0x292>
10002a24:	210a      	movs	r1, #10
10002a26:	0028      	movs	r0, r5
10002a28:	f000 fbc4 	bl	100031b4 <__wrap___aeabi_idiv>
10002a2c:	1c66      	adds	r6, r4, #1
10002a2e:	3130      	adds	r1, #48	; 0x30
10002a30:	ab0c      	add	r3, sp, #48	; 0x30
10002a32:	5519      	strb	r1, [r3, r4]
10002a34:	210a      	movs	r1, #10
10002a36:	0028      	movs	r0, r5
10002a38:	f000 fbbc 	bl	100031b4 <__wrap___aeabi_idiv>
10002a3c:	1e05      	subs	r5, r0, #0
10002a3e:	d001      	beq.n	10002a44 <_ftoa+0x290>
10002a40:	0034      	movs	r4, r6
10002a42:	e7ed      	b.n	10002a20 <_ftoa+0x26c>
10002a44:	0034      	movs	r4, r6
10002a46:	2303      	movs	r3, #3
10002a48:	9a22      	ldr	r2, [sp, #136]	; 0x88
10002a4a:	4013      	ands	r3, r2
10002a4c:	2b01      	cmp	r3, #1
10002a4e:	d01c      	beq.n	10002a8a <_ftoa+0x2d6>
10002a50:	2c1f      	cmp	r4, #31
10002a52:	d806      	bhi.n	10002a62 <_ftoa+0x2ae>
10002a54:	4643      	mov	r3, r8
10002a56:	2b00      	cmp	r3, #0
10002a58:	d032      	beq.n	10002ac0 <_ftoa+0x30c>
10002a5a:	ab0c      	add	r3, sp, #48	; 0x30
10002a5c:	222d      	movs	r2, #45	; 0x2d
10002a5e:	551a      	strb	r2, [r3, r4]
10002a60:	3401      	adds	r4, #1
10002a62:	9b22      	ldr	r3, [sp, #136]	; 0x88
10002a64:	9303      	str	r3, [sp, #12]
10002a66:	9b21      	ldr	r3, [sp, #132]	; 0x84
10002a68:	9302      	str	r3, [sp, #8]
10002a6a:	9401      	str	r4, [sp, #4]
10002a6c:	ab0c      	add	r3, sp, #48	; 0x30
10002a6e:	9300      	str	r3, [sp, #0]
10002a70:	464b      	mov	r3, r9
10002a72:	465a      	mov	r2, fp
10002a74:	9907      	ldr	r1, [sp, #28]
10002a76:	9806      	ldr	r0, [sp, #24]
10002a78:	f7ff fae2 	bl	10002040 <_out_rev>
10002a7c:	b015      	add	sp, #84	; 0x54
10002a7e:	bcf0      	pop	{r4, r5, r6, r7}
10002a80:	46bb      	mov	fp, r7
10002a82:	46b2      	mov	sl, r6
10002a84:	46a9      	mov	r9, r5
10002a86:	46a0      	mov	r8, r4
10002a88:	bdf0      	pop	{r4, r5, r6, r7, pc}
10002a8a:	9b21      	ldr	r3, [sp, #132]	; 0x84
10002a8c:	2b00      	cmp	r3, #0
10002a8e:	d013      	beq.n	10002ab8 <_ftoa+0x304>
10002a90:	4643      	mov	r3, r8
10002a92:	2b00      	cmp	r3, #0
10002a94:	d102      	bne.n	10002a9c <_ftoa+0x2e8>
10002a96:	330c      	adds	r3, #12
10002a98:	4213      	tst	r3, r2
10002a9a:	d00f      	beq.n	10002abc <_ftoa+0x308>
10002a9c:	9b21      	ldr	r3, [sp, #132]	; 0x84
10002a9e:	3b01      	subs	r3, #1
10002aa0:	9321      	str	r3, [sp, #132]	; 0x84
10002aa2:	0019      	movs	r1, r3
10002aa4:	e003      	b.n	10002aae <_ftoa+0x2fa>
10002aa6:	ab0c      	add	r3, sp, #48	; 0x30
10002aa8:	2230      	movs	r2, #48	; 0x30
10002aaa:	551a      	strb	r2, [r3, r4]
10002aac:	3401      	adds	r4, #1
10002aae:	428c      	cmp	r4, r1
10002ab0:	d2ce      	bcs.n	10002a50 <_ftoa+0x29c>
10002ab2:	2c1f      	cmp	r4, #31
10002ab4:	d9f7      	bls.n	10002aa6 <_ftoa+0x2f2>
10002ab6:	e7cb      	b.n	10002a50 <_ftoa+0x29c>
10002ab8:	9921      	ldr	r1, [sp, #132]	; 0x84
10002aba:	e7f8      	b.n	10002aae <_ftoa+0x2fa>
10002abc:	9921      	ldr	r1, [sp, #132]	; 0x84
10002abe:	e7f6      	b.n	10002aae <_ftoa+0x2fa>
10002ac0:	9b22      	ldr	r3, [sp, #136]	; 0x88
10002ac2:	075b      	lsls	r3, r3, #29
10002ac4:	d504      	bpl.n	10002ad0 <_ftoa+0x31c>
10002ac6:	ab0c      	add	r3, sp, #48	; 0x30
10002ac8:	222b      	movs	r2, #43	; 0x2b
10002aca:	551a      	strb	r2, [r3, r4]
10002acc:	3401      	adds	r4, #1
10002ace:	e7c8      	b.n	10002a62 <_ftoa+0x2ae>
10002ad0:	9b22      	ldr	r3, [sp, #136]	; 0x88
10002ad2:	071b      	lsls	r3, r3, #28
10002ad4:	d5c5      	bpl.n	10002a62 <_ftoa+0x2ae>
10002ad6:	ab0c      	add	r3, sp, #48	; 0x30
10002ad8:	2220      	movs	r2, #32
10002ada:	551a      	strb	r2, [r3, r4]
10002adc:	3401      	adds	r4, #1
10002ade:	e7c0      	b.n	10002a62 <_ftoa+0x2ae>
10002ae0:	ffefffff 	.word	0xffefffff
10002ae4:	7fefffff 	.word	0x7fefffff
10002ae8:	41cdcd65 	.word	0x41cdcd65
10002aec:	c1cdcd65 	.word	0xc1cdcd65
10002af0:	10007a98 	.word	0x10007a98
10002af4:	10007a9c 	.word	0x10007a9c
10002af8:	10007a90 	.word	0x10007a90
10002afc:	10007a8c 	.word	0x10007a8c
10002b00:	10007c88 	.word	0x10007c88
10002b04:	3fe00000 	.word	0x3fe00000

10002b08 <_vsnprintf>:
10002b08:	b5f0      	push	{r4, r5, r6, r7, lr}
10002b0a:	46de      	mov	lr, fp
10002b0c:	4657      	mov	r7, sl
10002b0e:	464e      	mov	r6, r9
10002b10:	4645      	mov	r5, r8
10002b12:	b5e0      	push	{r5, r6, r7, lr}
10002b14:	b093      	sub	sp, #76	; 0x4c
10002b16:	4682      	mov	sl, r0
10002b18:	468b      	mov	fp, r1
10002b1a:	4690      	mov	r8, r2
10002b1c:	9311      	str	r3, [sp, #68]	; 0x44
10002b1e:	2900      	cmp	r1, #0
10002b20:	d100      	bne.n	10002b24 <_vsnprintf+0x1c>
10002b22:	e2eb      	b.n	100030fc <_vsnprintf+0x5f4>
10002b24:	2700      	movs	r7, #0
10002b26:	4655      	mov	r5, sl
10002b28:	9b11      	ldr	r3, [sp, #68]	; 0x44
10002b2a:	7818      	ldrb	r0, [r3, #0]
10002b2c:	2800      	cmp	r0, #0
10002b2e:	d100      	bne.n	10002b32 <_vsnprintf+0x2a>
10002b30:	e2e7      	b.n	10003102 <_vsnprintf+0x5fa>
10002b32:	2825      	cmp	r0, #37	; 0x25
10002b34:	d009      	beq.n	10002b4a <_vsnprintf+0x42>
10002b36:	1c7c      	adds	r4, r7, #1
10002b38:	4643      	mov	r3, r8
10002b3a:	003a      	movs	r2, r7
10002b3c:	4659      	mov	r1, fp
10002b3e:	47a8      	blx	r5
10002b40:	9b11      	ldr	r3, [sp, #68]	; 0x44
10002b42:	3301      	adds	r3, #1
10002b44:	9311      	str	r3, [sp, #68]	; 0x44
10002b46:	0027      	movs	r7, r4
10002b48:	e7ee      	b.n	10002b28 <_vsnprintf+0x20>
10002b4a:	3301      	adds	r3, #1
10002b4c:	9311      	str	r3, [sp, #68]	; 0x44
10002b4e:	2400      	movs	r4, #0
10002b50:	9a11      	ldr	r2, [sp, #68]	; 0x44
10002b52:	7811      	ldrb	r1, [r2, #0]
10002b54:	000b      	movs	r3, r1
10002b56:	3b20      	subs	r3, #32
10002b58:	b2d8      	uxtb	r0, r3
10002b5a:	2810      	cmp	r0, #16
10002b5c:	d803      	bhi.n	10002b66 <_vsnprintf+0x5e>
10002b5e:	0083      	lsls	r3, r0, #2
10002b60:	48d0      	ldr	r0, [pc, #832]	; (10002ea4 <_vsnprintf+0x39c>)
10002b62:	58c3      	ldr	r3, [r0, r3]
10002b64:	469f      	mov	pc, r3
10002b66:	000b      	movs	r3, r1
10002b68:	3b30      	subs	r3, #48	; 0x30
10002b6a:	b2db      	uxtb	r3, r3
10002b6c:	2b09      	cmp	r3, #9
10002b6e:	d92c      	bls.n	10002bca <_vsnprintf+0xc2>
10002b70:	292a      	cmp	r1, #42	; 0x2a
10002b72:	d02f      	beq.n	10002bd4 <_vsnprintf+0xcc>
10002b74:	2300      	movs	r3, #0
10002b76:	930a      	str	r3, [sp, #40]	; 0x28
10002b78:	9b11      	ldr	r3, [sp, #68]	; 0x44
10002b7a:	781a      	ldrb	r2, [r3, #0]
10002b7c:	2a2e      	cmp	r2, #46	; 0x2e
10002b7e:	d039      	beq.n	10002bf4 <_vsnprintf+0xec>
10002b80:	2300      	movs	r3, #0
10002b82:	469a      	mov	sl, r3
10002b84:	9a11      	ldr	r2, [sp, #68]	; 0x44
10002b86:	7813      	ldrb	r3, [r2, #0]
10002b88:	3b68      	subs	r3, #104	; 0x68
10002b8a:	b2d9      	uxtb	r1, r3
10002b8c:	2912      	cmp	r1, #18
10002b8e:	d876      	bhi.n	10002c7e <_vsnprintf+0x176>
10002b90:	008b      	lsls	r3, r1, #2
10002b92:	49c5      	ldr	r1, [pc, #788]	; (10002ea8 <_vsnprintf+0x3a0>)
10002b94:	58cb      	ldr	r3, [r1, r3]
10002b96:	469f      	mov	pc, r3
10002b98:	2301      	movs	r3, #1
10002b9a:	431c      	orrs	r4, r3
10002b9c:	3201      	adds	r2, #1
10002b9e:	9211      	str	r2, [sp, #68]	; 0x44
10002ba0:	e7d6      	b.n	10002b50 <_vsnprintf+0x48>
10002ba2:	2302      	movs	r3, #2
10002ba4:	431c      	orrs	r4, r3
10002ba6:	3201      	adds	r2, #1
10002ba8:	9211      	str	r2, [sp, #68]	; 0x44
10002baa:	e7d1      	b.n	10002b50 <_vsnprintf+0x48>
10002bac:	2304      	movs	r3, #4
10002bae:	431c      	orrs	r4, r3
10002bb0:	3201      	adds	r2, #1
10002bb2:	9211      	str	r2, [sp, #68]	; 0x44
10002bb4:	e7cc      	b.n	10002b50 <_vsnprintf+0x48>
10002bb6:	2308      	movs	r3, #8
10002bb8:	431c      	orrs	r4, r3
10002bba:	3201      	adds	r2, #1
10002bbc:	9211      	str	r2, [sp, #68]	; 0x44
10002bbe:	e7c7      	b.n	10002b50 <_vsnprintf+0x48>
10002bc0:	2310      	movs	r3, #16
10002bc2:	431c      	orrs	r4, r3
10002bc4:	3201      	adds	r2, #1
10002bc6:	9211      	str	r2, [sp, #68]	; 0x44
10002bc8:	e7c2      	b.n	10002b50 <_vsnprintf+0x48>
10002bca:	a811      	add	r0, sp, #68	; 0x44
10002bcc:	f7ff fa26 	bl	1000201c <_atoi>
10002bd0:	900a      	str	r0, [sp, #40]	; 0x28
10002bd2:	e7d1      	b.n	10002b78 <_vsnprintf+0x70>
10002bd4:	9b1c      	ldr	r3, [sp, #112]	; 0x70
10002bd6:	1d1a      	adds	r2, r3, #4
10002bd8:	921c      	str	r2, [sp, #112]	; 0x70
10002bda:	6818      	ldr	r0, [r3, #0]
10002bdc:	2800      	cmp	r0, #0
10002bde:	db04      	blt.n	10002bea <_vsnprintf+0xe2>
10002be0:	900a      	str	r0, [sp, #40]	; 0x28
10002be2:	9b11      	ldr	r3, [sp, #68]	; 0x44
10002be4:	3301      	adds	r3, #1
10002be6:	9311      	str	r3, [sp, #68]	; 0x44
10002be8:	e7c6      	b.n	10002b78 <_vsnprintf+0x70>
10002bea:	2302      	movs	r3, #2
10002bec:	431c      	orrs	r4, r3
10002bee:	4243      	negs	r3, r0
10002bf0:	930a      	str	r3, [sp, #40]	; 0x28
10002bf2:	e7f6      	b.n	10002be2 <_vsnprintf+0xda>
10002bf4:	2280      	movs	r2, #128	; 0x80
10002bf6:	00d2      	lsls	r2, r2, #3
10002bf8:	4314      	orrs	r4, r2
10002bfa:	1c5a      	adds	r2, r3, #1
10002bfc:	9211      	str	r2, [sp, #68]	; 0x44
10002bfe:	785a      	ldrb	r2, [r3, #1]
10002c00:	0013      	movs	r3, r2
10002c02:	3b30      	subs	r3, #48	; 0x30
10002c04:	b2db      	uxtb	r3, r3
10002c06:	2b09      	cmp	r3, #9
10002c08:	d904      	bls.n	10002c14 <_vsnprintf+0x10c>
10002c0a:	2a2a      	cmp	r2, #42	; 0x2a
10002c0c:	d007      	beq.n	10002c1e <_vsnprintf+0x116>
10002c0e:	2300      	movs	r3, #0
10002c10:	469a      	mov	sl, r3
10002c12:	e7b7      	b.n	10002b84 <_vsnprintf+0x7c>
10002c14:	a811      	add	r0, sp, #68	; 0x44
10002c16:	f7ff fa01 	bl	1000201c <_atoi>
10002c1a:	4682      	mov	sl, r0
10002c1c:	e7b2      	b.n	10002b84 <_vsnprintf+0x7c>
10002c1e:	9b1c      	ldr	r3, [sp, #112]	; 0x70
10002c20:	1d1a      	adds	r2, r3, #4
10002c22:	921c      	str	r2, [sp, #112]	; 0x70
10002c24:	6818      	ldr	r0, [r3, #0]
10002c26:	2800      	cmp	r0, #0
10002c28:	db04      	blt.n	10002c34 <_vsnprintf+0x12c>
10002c2a:	4682      	mov	sl, r0
10002c2c:	9b11      	ldr	r3, [sp, #68]	; 0x44
10002c2e:	3301      	adds	r3, #1
10002c30:	9311      	str	r3, [sp, #68]	; 0x44
10002c32:	e7a7      	b.n	10002b84 <_vsnprintf+0x7c>
10002c34:	2000      	movs	r0, #0
10002c36:	e7f8      	b.n	10002c2a <_vsnprintf+0x122>
10002c38:	2380      	movs	r3, #128	; 0x80
10002c3a:	005b      	lsls	r3, r3, #1
10002c3c:	4323      	orrs	r3, r4
10002c3e:	1c51      	adds	r1, r2, #1
10002c40:	9111      	str	r1, [sp, #68]	; 0x44
10002c42:	7852      	ldrb	r2, [r2, #1]
10002c44:	2a6c      	cmp	r2, #108	; 0x6c
10002c46:	d001      	beq.n	10002c4c <_vsnprintf+0x144>
10002c48:	001c      	movs	r4, r3
10002c4a:	e018      	b.n	10002c7e <_vsnprintf+0x176>
10002c4c:	23c0      	movs	r3, #192	; 0xc0
10002c4e:	009b      	lsls	r3, r3, #2
10002c50:	431c      	orrs	r4, r3
10002c52:	3101      	adds	r1, #1
10002c54:	9111      	str	r1, [sp, #68]	; 0x44
10002c56:	e012      	b.n	10002c7e <_vsnprintf+0x176>
10002c58:	2380      	movs	r3, #128	; 0x80
10002c5a:	4323      	orrs	r3, r4
10002c5c:	1c51      	adds	r1, r2, #1
10002c5e:	9111      	str	r1, [sp, #68]	; 0x44
10002c60:	7852      	ldrb	r2, [r2, #1]
10002c62:	2a68      	cmp	r2, #104	; 0x68
10002c64:	d001      	beq.n	10002c6a <_vsnprintf+0x162>
10002c66:	001c      	movs	r4, r3
10002c68:	e009      	b.n	10002c7e <_vsnprintf+0x176>
10002c6a:	23c0      	movs	r3, #192	; 0xc0
10002c6c:	431c      	orrs	r4, r3
10002c6e:	3101      	adds	r1, #1
10002c70:	9111      	str	r1, [sp, #68]	; 0x44
10002c72:	e004      	b.n	10002c7e <_vsnprintf+0x176>
10002c74:	2380      	movs	r3, #128	; 0x80
10002c76:	005b      	lsls	r3, r3, #1
10002c78:	431c      	orrs	r4, r3
10002c7a:	3201      	adds	r2, #1
10002c7c:	9211      	str	r2, [sp, #68]	; 0x44
10002c7e:	9b11      	ldr	r3, [sp, #68]	; 0x44
10002c80:	7818      	ldrb	r0, [r3, #0]
10002c82:	0003      	movs	r3, r0
10002c84:	3b25      	subs	r3, #37	; 0x25
10002c86:	b2da      	uxtb	r2, r3
10002c88:	2a53      	cmp	r2, #83	; 0x53
10002c8a:	d900      	bls.n	10002c8e <_vsnprintf+0x186>
10002c8c:	e22c      	b.n	100030e8 <_vsnprintf+0x5e0>
10002c8e:	0093      	lsls	r3, r2, #2
10002c90:	4a86      	ldr	r2, [pc, #536]	; (10002eac <_vsnprintf+0x3a4>)
10002c92:	58d3      	ldr	r3, [r2, r3]
10002c94:	469f      	mov	pc, r3
10002c96:	2380      	movs	r3, #128	; 0x80
10002c98:	009b      	lsls	r3, r3, #2
10002c9a:	431c      	orrs	r4, r3
10002c9c:	3201      	adds	r2, #1
10002c9e:	9211      	str	r2, [sp, #68]	; 0x44
10002ca0:	e7ed      	b.n	10002c7e <_vsnprintf+0x176>
10002ca2:	2380      	movs	r3, #128	; 0x80
10002ca4:	005b      	lsls	r3, r3, #1
10002ca6:	431c      	orrs	r4, r3
10002ca8:	3201      	adds	r2, #1
10002caa:	9211      	str	r2, [sp, #68]	; 0x44
10002cac:	e7e7      	b.n	10002c7e <_vsnprintf+0x176>
10002cae:	2878      	cmp	r0, #120	; 0x78
10002cb0:	d009      	beq.n	10002cc6 <_vsnprintf+0x1be>
10002cb2:	2858      	cmp	r0, #88	; 0x58
10002cb4:	d038      	beq.n	10002d28 <_vsnprintf+0x220>
10002cb6:	286f      	cmp	r0, #111	; 0x6f
10002cb8:	d038      	beq.n	10002d2c <_vsnprintf+0x224>
10002cba:	2862      	cmp	r0, #98	; 0x62
10002cbc:	d038      	beq.n	10002d30 <_vsnprintf+0x228>
10002cbe:	2310      	movs	r3, #16
10002cc0:	439c      	bics	r4, r3
10002cc2:	260a      	movs	r6, #10
10002cc4:	e000      	b.n	10002cc8 <_vsnprintf+0x1c0>
10002cc6:	2610      	movs	r6, #16
10002cc8:	2858      	cmp	r0, #88	; 0x58
10002cca:	d033      	beq.n	10002d34 <_vsnprintf+0x22c>
10002ccc:	2869      	cmp	r0, #105	; 0x69
10002cce:	d003      	beq.n	10002cd8 <_vsnprintf+0x1d0>
10002cd0:	2864      	cmp	r0, #100	; 0x64
10002cd2:	d001      	beq.n	10002cd8 <_vsnprintf+0x1d0>
10002cd4:	220c      	movs	r2, #12
10002cd6:	4394      	bics	r4, r2
10002cd8:	0563      	lsls	r3, r4, #21
10002cda:	d501      	bpl.n	10002ce0 <_vsnprintf+0x1d8>
10002cdc:	2201      	movs	r2, #1
10002cde:	4394      	bics	r4, r2
10002ce0:	2869      	cmp	r0, #105	; 0x69
10002ce2:	d02a      	beq.n	10002d3a <_vsnprintf+0x232>
10002ce4:	2864      	cmp	r0, #100	; 0x64
10002ce6:	d028      	beq.n	10002d3a <_vsnprintf+0x232>
10002ce8:	05a3      	lsls	r3, r4, #22
10002cea:	d500      	bpl.n	10002cee <_vsnprintf+0x1e6>
10002cec:	e09f      	b.n	10002e2e <_vsnprintf+0x326>
10002cee:	05e3      	lsls	r3, r4, #23
10002cf0:	d500      	bpl.n	10002cf4 <_vsnprintf+0x1ec>
10002cf2:	e0b8      	b.n	10002e66 <_vsnprintf+0x35e>
10002cf4:	0663      	lsls	r3, r4, #25
10002cf6:	d400      	bmi.n	10002cfa <_vsnprintf+0x1f2>
10002cf8:	e0ca      	b.n	10002e90 <_vsnprintf+0x388>
10002cfa:	9a1c      	ldr	r2, [sp, #112]	; 0x70
10002cfc:	1d11      	adds	r1, r2, #4
10002cfe:	911c      	str	r1, [sp, #112]	; 0x70
10002d00:	6811      	ldr	r1, [r2, #0]
10002d02:	22ff      	movs	r2, #255	; 0xff
10002d04:	400a      	ands	r2, r1
10002d06:	9405      	str	r4, [sp, #20]
10002d08:	9b0a      	ldr	r3, [sp, #40]	; 0x28
10002d0a:	9304      	str	r3, [sp, #16]
10002d0c:	4653      	mov	r3, sl
10002d0e:	9303      	str	r3, [sp, #12]
10002d10:	9602      	str	r6, [sp, #8]
10002d12:	2300      	movs	r3, #0
10002d14:	9301      	str	r3, [sp, #4]
10002d16:	9200      	str	r2, [sp, #0]
10002d18:	4643      	mov	r3, r8
10002d1a:	003a      	movs	r2, r7
10002d1c:	4659      	mov	r1, fp
10002d1e:	0028      	movs	r0, r5
10002d20:	f7ff fa6e 	bl	10002200 <_ntoa_long>
10002d24:	0007      	movs	r7, r0
10002d26:	e027      	b.n	10002d78 <_vsnprintf+0x270>
10002d28:	2610      	movs	r6, #16
10002d2a:	e7cd      	b.n	10002cc8 <_vsnprintf+0x1c0>
10002d2c:	2608      	movs	r6, #8
10002d2e:	e7cb      	b.n	10002cc8 <_vsnprintf+0x1c0>
10002d30:	2602      	movs	r6, #2
10002d32:	e7c9      	b.n	10002cc8 <_vsnprintf+0x1c0>
10002d34:	2220      	movs	r2, #32
10002d36:	4314      	orrs	r4, r2
10002d38:	e7c8      	b.n	10002ccc <_vsnprintf+0x1c4>
10002d3a:	05a3      	lsls	r3, r4, #22
10002d3c:	d420      	bmi.n	10002d80 <_vsnprintf+0x278>
10002d3e:	05e3      	lsls	r3, r4, #23
10002d40:	d450      	bmi.n	10002de4 <_vsnprintf+0x2dc>
10002d42:	0663      	lsls	r3, r4, #25
10002d44:	d566      	bpl.n	10002e14 <_vsnprintf+0x30c>
10002d46:	9a1c      	ldr	r2, [sp, #112]	; 0x70
10002d48:	1d11      	adds	r1, r2, #4
10002d4a:	911c      	str	r1, [sp, #112]	; 0x70
10002d4c:	6811      	ldr	r1, [r2, #0]
10002d4e:	22ff      	movs	r2, #255	; 0xff
10002d50:	400a      	ands	r2, r1
10002d52:	17d3      	asrs	r3, r2, #31
10002d54:	18d1      	adds	r1, r2, r3
10002d56:	4059      	eors	r1, r3
10002d58:	9405      	str	r4, [sp, #20]
10002d5a:	9b0a      	ldr	r3, [sp, #40]	; 0x28
10002d5c:	9304      	str	r3, [sp, #16]
10002d5e:	4653      	mov	r3, sl
10002d60:	9303      	str	r3, [sp, #12]
10002d62:	9602      	str	r6, [sp, #8]
10002d64:	0fd2      	lsrs	r2, r2, #31
10002d66:	9201      	str	r2, [sp, #4]
10002d68:	9100      	str	r1, [sp, #0]
10002d6a:	4643      	mov	r3, r8
10002d6c:	003a      	movs	r2, r7
10002d6e:	4659      	mov	r1, fp
10002d70:	0028      	movs	r0, r5
10002d72:	f7ff fa45 	bl	10002200 <_ntoa_long>
10002d76:	0007      	movs	r7, r0
10002d78:	9b11      	ldr	r3, [sp, #68]	; 0x44
10002d7a:	3301      	adds	r3, #1
10002d7c:	9311      	str	r3, [sp, #68]	; 0x44
10002d7e:	e6d3      	b.n	10002b28 <_vsnprintf+0x20>
10002d80:	9b1c      	ldr	r3, [sp, #112]	; 0x70
10002d82:	1dda      	adds	r2, r3, #7
10002d84:	2107      	movs	r1, #7
10002d86:	438a      	bics	r2, r1
10002d88:	0011      	movs	r1, r2
10002d8a:	3108      	adds	r1, #8
10002d8c:	911c      	str	r1, [sp, #112]	; 0x70
10002d8e:	6811      	ldr	r1, [r2, #0]
10002d90:	6853      	ldr	r3, [r2, #4]
10002d92:	469c      	mov	ip, r3
10002d94:	17db      	asrs	r3, r3, #31
10002d96:	930c      	str	r3, [sp, #48]	; 0x30
10002d98:	930d      	str	r3, [sp, #52]	; 0x34
10002d9a:	9a0c      	ldr	r2, [sp, #48]	; 0x30
10002d9c:	9b0d      	ldr	r3, [sp, #52]	; 0x34
10002d9e:	0010      	movs	r0, r2
10002da0:	4048      	eors	r0, r1
10002da2:	900e      	str	r0, [sp, #56]	; 0x38
10002da4:	4662      	mov	r2, ip
10002da6:	4053      	eors	r3, r2
10002da8:	930f      	str	r3, [sp, #60]	; 0x3c
10002daa:	980e      	ldr	r0, [sp, #56]	; 0x38
10002dac:	990f      	ldr	r1, [sp, #60]	; 0x3c
10002dae:	9a0c      	ldr	r2, [sp, #48]	; 0x30
10002db0:	9b0d      	ldr	r3, [sp, #52]	; 0x34
10002db2:	1a80      	subs	r0, r0, r2
10002db4:	4199      	sbcs	r1, r3
10002db6:	900e      	str	r0, [sp, #56]	; 0x38
10002db8:	910f      	str	r1, [sp, #60]	; 0x3c
10002dba:	9408      	str	r4, [sp, #32]
10002dbc:	9b0a      	ldr	r3, [sp, #40]	; 0x28
10002dbe:	9307      	str	r3, [sp, #28]
10002dc0:	4653      	mov	r3, sl
10002dc2:	9306      	str	r3, [sp, #24]
10002dc4:	9604      	str	r6, [sp, #16]
10002dc6:	2300      	movs	r3, #0
10002dc8:	9305      	str	r3, [sp, #20]
10002dca:	4663      	mov	r3, ip
10002dcc:	0fda      	lsrs	r2, r3, #31
10002dce:	9202      	str	r2, [sp, #8]
10002dd0:	9000      	str	r0, [sp, #0]
10002dd2:	9101      	str	r1, [sp, #4]
10002dd4:	4643      	mov	r3, r8
10002dd6:	003a      	movs	r2, r7
10002dd8:	4659      	mov	r1, fp
10002dda:	0028      	movs	r0, r5
10002ddc:	f7ff fa6e 	bl	100022bc <_ntoa_long_long>
10002de0:	0007      	movs	r7, r0
10002de2:	e7c9      	b.n	10002d78 <_vsnprintf+0x270>
10002de4:	9a1c      	ldr	r2, [sp, #112]	; 0x70
10002de6:	1d11      	adds	r1, r2, #4
10002de8:	911c      	str	r1, [sp, #112]	; 0x70
10002dea:	6812      	ldr	r2, [r2, #0]
10002dec:	17d3      	asrs	r3, r2, #31
10002dee:	18d1      	adds	r1, r2, r3
10002df0:	4059      	eors	r1, r3
10002df2:	9405      	str	r4, [sp, #20]
10002df4:	9b0a      	ldr	r3, [sp, #40]	; 0x28
10002df6:	9304      	str	r3, [sp, #16]
10002df8:	4653      	mov	r3, sl
10002dfa:	9303      	str	r3, [sp, #12]
10002dfc:	9602      	str	r6, [sp, #8]
10002dfe:	0fd2      	lsrs	r2, r2, #31
10002e00:	9201      	str	r2, [sp, #4]
10002e02:	9100      	str	r1, [sp, #0]
10002e04:	4643      	mov	r3, r8
10002e06:	003a      	movs	r2, r7
10002e08:	4659      	mov	r1, fp
10002e0a:	0028      	movs	r0, r5
10002e0c:	f7ff f9f8 	bl	10002200 <_ntoa_long>
10002e10:	0007      	movs	r7, r0
10002e12:	e7b1      	b.n	10002d78 <_vsnprintf+0x270>
10002e14:	0623      	lsls	r3, r4, #24
10002e16:	d505      	bpl.n	10002e24 <_vsnprintf+0x31c>
10002e18:	9a1c      	ldr	r2, [sp, #112]	; 0x70
10002e1a:	1d11      	adds	r1, r2, #4
10002e1c:	911c      	str	r1, [sp, #112]	; 0x70
10002e1e:	2300      	movs	r3, #0
10002e20:	5ed2      	ldrsh	r2, [r2, r3]
10002e22:	e796      	b.n	10002d52 <_vsnprintf+0x24a>
10002e24:	9a1c      	ldr	r2, [sp, #112]	; 0x70
10002e26:	1d11      	adds	r1, r2, #4
10002e28:	911c      	str	r1, [sp, #112]	; 0x70
10002e2a:	6812      	ldr	r2, [r2, #0]
10002e2c:	e791      	b.n	10002d52 <_vsnprintf+0x24a>
10002e2e:	9b1c      	ldr	r3, [sp, #112]	; 0x70
10002e30:	1dda      	adds	r2, r3, #7
10002e32:	2107      	movs	r1, #7
10002e34:	438a      	bics	r2, r1
10002e36:	0011      	movs	r1, r2
10002e38:	3108      	adds	r1, #8
10002e3a:	911c      	str	r1, [sp, #112]	; 0x70
10002e3c:	9408      	str	r4, [sp, #32]
10002e3e:	9b0a      	ldr	r3, [sp, #40]	; 0x28
10002e40:	9307      	str	r3, [sp, #28]
10002e42:	4653      	mov	r3, sl
10002e44:	9306      	str	r3, [sp, #24]
10002e46:	9604      	str	r6, [sp, #16]
10002e48:	2300      	movs	r3, #0
10002e4a:	9305      	str	r3, [sp, #20]
10002e4c:	9302      	str	r3, [sp, #8]
10002e4e:	6813      	ldr	r3, [r2, #0]
10002e50:	6854      	ldr	r4, [r2, #4]
10002e52:	9300      	str	r3, [sp, #0]
10002e54:	9401      	str	r4, [sp, #4]
10002e56:	4643      	mov	r3, r8
10002e58:	003a      	movs	r2, r7
10002e5a:	4659      	mov	r1, fp
10002e5c:	0028      	movs	r0, r5
10002e5e:	f7ff fa2d 	bl	100022bc <_ntoa_long_long>
10002e62:	0007      	movs	r7, r0
10002e64:	e788      	b.n	10002d78 <_vsnprintf+0x270>
10002e66:	9a1c      	ldr	r2, [sp, #112]	; 0x70
10002e68:	1d11      	adds	r1, r2, #4
10002e6a:	911c      	str	r1, [sp, #112]	; 0x70
10002e6c:	9405      	str	r4, [sp, #20]
10002e6e:	9b0a      	ldr	r3, [sp, #40]	; 0x28
10002e70:	9304      	str	r3, [sp, #16]
10002e72:	4653      	mov	r3, sl
10002e74:	9303      	str	r3, [sp, #12]
10002e76:	9602      	str	r6, [sp, #8]
10002e78:	2300      	movs	r3, #0
10002e7a:	9301      	str	r3, [sp, #4]
10002e7c:	6813      	ldr	r3, [r2, #0]
10002e7e:	9300      	str	r3, [sp, #0]
10002e80:	4643      	mov	r3, r8
10002e82:	003a      	movs	r2, r7
10002e84:	4659      	mov	r1, fp
10002e86:	0028      	movs	r0, r5
10002e88:	f7ff f9ba 	bl	10002200 <_ntoa_long>
10002e8c:	0007      	movs	r7, r0
10002e8e:	e773      	b.n	10002d78 <_vsnprintf+0x270>
10002e90:	0623      	lsls	r3, r4, #24
10002e92:	d50d      	bpl.n	10002eb0 <_vsnprintf+0x3a8>
10002e94:	9a1c      	ldr	r2, [sp, #112]	; 0x70
10002e96:	1d11      	adds	r1, r2, #4
10002e98:	911c      	str	r1, [sp, #112]	; 0x70
10002e9a:	6812      	ldr	r2, [r2, #0]
10002e9c:	0412      	lsls	r2, r2, #16
10002e9e:	0c12      	lsrs	r2, r2, #16
10002ea0:	e731      	b.n	10002d06 <_vsnprintf+0x1fe>
10002ea2:	46c0      	nop			; (mov r8, r8)
10002ea4:	10007aa4 	.word	0x10007aa4
10002ea8:	10007ae8 	.word	0x10007ae8
10002eac:	10007b34 	.word	0x10007b34
10002eb0:	9a1c      	ldr	r2, [sp, #112]	; 0x70
10002eb2:	1d11      	adds	r1, r2, #4
10002eb4:	911c      	str	r1, [sp, #112]	; 0x70
10002eb6:	6812      	ldr	r2, [r2, #0]
10002eb8:	e725      	b.n	10002d06 <_vsnprintf+0x1fe>
10002eba:	2846      	cmp	r0, #70	; 0x46
10002ebc:	d01a      	beq.n	10002ef4 <_vsnprintf+0x3ec>
10002ebe:	9b1c      	ldr	r3, [sp, #112]	; 0x70
10002ec0:	3307      	adds	r3, #7
10002ec2:	2207      	movs	r2, #7
10002ec4:	4393      	bics	r3, r2
10002ec6:	001a      	movs	r2, r3
10002ec8:	3208      	adds	r2, #8
10002eca:	921c      	str	r2, [sp, #112]	; 0x70
10002ecc:	9404      	str	r4, [sp, #16]
10002ece:	9a0a      	ldr	r2, [sp, #40]	; 0x28
10002ed0:	9203      	str	r2, [sp, #12]
10002ed2:	4652      	mov	r2, sl
10002ed4:	9202      	str	r2, [sp, #8]
10002ed6:	685c      	ldr	r4, [r3, #4]
10002ed8:	681b      	ldr	r3, [r3, #0]
10002eda:	9300      	str	r3, [sp, #0]
10002edc:	9401      	str	r4, [sp, #4]
10002ede:	4643      	mov	r3, r8
10002ee0:	003a      	movs	r2, r7
10002ee2:	4659      	mov	r1, fp
10002ee4:	0028      	movs	r0, r5
10002ee6:	f7ff fc65 	bl	100027b4 <_ftoa>
10002eea:	0007      	movs	r7, r0
10002eec:	9b11      	ldr	r3, [sp, #68]	; 0x44
10002eee:	3301      	adds	r3, #1
10002ef0:	9311      	str	r3, [sp, #68]	; 0x44
10002ef2:	e619      	b.n	10002b28 <_vsnprintf+0x20>
10002ef4:	2320      	movs	r3, #32
10002ef6:	431c      	orrs	r4, r3
10002ef8:	e7e1      	b.n	10002ebe <_vsnprintf+0x3b6>
10002efa:	2867      	cmp	r0, #103	; 0x67
10002efc:	d001      	beq.n	10002f02 <_vsnprintf+0x3fa>
10002efe:	2847      	cmp	r0, #71	; 0x47
10002f00:	d102      	bne.n	10002f08 <_vsnprintf+0x400>
10002f02:	2380      	movs	r3, #128	; 0x80
10002f04:	011b      	lsls	r3, r3, #4
10002f06:	431c      	orrs	r4, r3
10002f08:	2845      	cmp	r0, #69	; 0x45
10002f0a:	d001      	beq.n	10002f10 <_vsnprintf+0x408>
10002f0c:	2847      	cmp	r0, #71	; 0x47
10002f0e:	d101      	bne.n	10002f14 <_vsnprintf+0x40c>
10002f10:	2320      	movs	r3, #32
10002f12:	431c      	orrs	r4, r3
10002f14:	9b1c      	ldr	r3, [sp, #112]	; 0x70
10002f16:	3307      	adds	r3, #7
10002f18:	2207      	movs	r2, #7
10002f1a:	4393      	bics	r3, r2
10002f1c:	001a      	movs	r2, r3
10002f1e:	3208      	adds	r2, #8
10002f20:	921c      	str	r2, [sp, #112]	; 0x70
10002f22:	9404      	str	r4, [sp, #16]
10002f24:	9a0a      	ldr	r2, [sp, #40]	; 0x28
10002f26:	9203      	str	r2, [sp, #12]
10002f28:	4652      	mov	r2, sl
10002f2a:	9202      	str	r2, [sp, #8]
10002f2c:	685c      	ldr	r4, [r3, #4]
10002f2e:	681b      	ldr	r3, [r3, #0]
10002f30:	9300      	str	r3, [sp, #0]
10002f32:	9401      	str	r4, [sp, #4]
10002f34:	4643      	mov	r3, r8
10002f36:	003a      	movs	r2, r7
10002f38:	4659      	mov	r1, fp
10002f3a:	0028      	movs	r0, r5
10002f3c:	f7ff fa30 	bl	100023a0 <_etoa>
10002f40:	0007      	movs	r7, r0
10002f42:	9b11      	ldr	r3, [sp, #68]	; 0x44
10002f44:	3301      	adds	r3, #1
10002f46:	9311      	str	r3, [sp, #68]	; 0x44
10002f48:	e5ee      	b.n	10002b28 <_vsnprintf+0x20>
10002f4a:	2302      	movs	r3, #2
10002f4c:	001a      	movs	r2, r3
10002f4e:	4022      	ands	r2, r4
10002f50:	4692      	mov	sl, r2
10002f52:	4223      	tst	r3, r4
10002f54:	d01f      	beq.n	10002f96 <_vsnprintf+0x48e>
10002f56:	2401      	movs	r4, #1
10002f58:	9b1c      	ldr	r3, [sp, #112]	; 0x70
10002f5a:	1d1a      	adds	r2, r3, #4
10002f5c:	921c      	str	r2, [sp, #112]	; 0x70
10002f5e:	1c7a      	adds	r2, r7, #1
10002f60:	4691      	mov	r9, r2
10002f62:	7818      	ldrb	r0, [r3, #0]
10002f64:	4643      	mov	r3, r8
10002f66:	003a      	movs	r2, r7
10002f68:	4659      	mov	r1, fp
10002f6a:	47a8      	blx	r5
10002f6c:	4653      	mov	r3, sl
10002f6e:	2b00      	cmp	r3, #0
10002f70:	d116      	bne.n	10002fa0 <_vsnprintf+0x498>
10002f72:	9b11      	ldr	r3, [sp, #68]	; 0x44
10002f74:	3301      	adds	r3, #1
10002f76:	9311      	str	r3, [sp, #68]	; 0x44
10002f78:	464f      	mov	r7, r9
10002f7a:	e5d5      	b.n	10002b28 <_vsnprintf+0x20>
10002f7c:	1c56      	adds	r6, r2, #1
10002f7e:	4643      	mov	r3, r8
10002f80:	4659      	mov	r1, fp
10002f82:	2020      	movs	r0, #32
10002f84:	47b8      	blx	r7
10002f86:	0023      	movs	r3, r4
10002f88:	0032      	movs	r2, r6
10002f8a:	1c5c      	adds	r4, r3, #1
10002f8c:	429d      	cmp	r5, r3
10002f8e:	d8f5      	bhi.n	10002f7c <_vsnprintf+0x474>
10002f90:	003d      	movs	r5, r7
10002f92:	0017      	movs	r7, r2
10002f94:	e7e0      	b.n	10002f58 <_vsnprintf+0x450>
10002f96:	2301      	movs	r3, #1
10002f98:	003a      	movs	r2, r7
10002f9a:	002f      	movs	r7, r5
10002f9c:	9d0a      	ldr	r5, [sp, #40]	; 0x28
10002f9e:	e7f4      	b.n	10002f8a <_vsnprintf+0x482>
10002fa0:	464a      	mov	r2, r9
10002fa2:	46a9      	mov	r9, r5
10002fa4:	9d0a      	ldr	r5, [sp, #40]	; 0x28
10002fa6:	e006      	b.n	10002fb6 <_vsnprintf+0x4ae>
10002fa8:	1c57      	adds	r7, r2, #1
10002faa:	4643      	mov	r3, r8
10002fac:	4659      	mov	r1, fp
10002fae:	2020      	movs	r0, #32
10002fb0:	47c8      	blx	r9
10002fb2:	0034      	movs	r4, r6
10002fb4:	003a      	movs	r2, r7
10002fb6:	1c66      	adds	r6, r4, #1
10002fb8:	42a5      	cmp	r5, r4
10002fba:	d8f5      	bhi.n	10002fa8 <_vsnprintf+0x4a0>
10002fbc:	464d      	mov	r5, r9
10002fbe:	4691      	mov	r9, r2
10002fc0:	e7d7      	b.n	10002f72 <_vsnprintf+0x46a>
10002fc2:	9b1c      	ldr	r3, [sp, #112]	; 0x70
10002fc4:	1d1a      	adds	r2, r3, #4
10002fc6:	921c      	str	r2, [sp, #112]	; 0x70
10002fc8:	681b      	ldr	r3, [r3, #0]
10002fca:	4699      	mov	r9, r3
10002fcc:	4653      	mov	r3, sl
10002fce:	2b00      	cmp	r3, #0
10002fd0:	d100      	bne.n	10002fd4 <_vsnprintf+0x4cc>
10002fd2:	3b01      	subs	r3, #1
10002fd4:	464e      	mov	r6, r9
10002fd6:	e001      	b.n	10002fdc <_vsnprintf+0x4d4>
10002fd8:	3601      	adds	r6, #1
10002fda:	0013      	movs	r3, r2
10002fdc:	7832      	ldrb	r2, [r6, #0]
10002fde:	2a00      	cmp	r2, #0
10002fe0:	d002      	beq.n	10002fe8 <_vsnprintf+0x4e0>
10002fe2:	1e5a      	subs	r2, r3, #1
10002fe4:	2b00      	cmp	r3, #0
10002fe6:	d1f7      	bne.n	10002fd8 <_vsnprintf+0x4d0>
10002fe8:	464b      	mov	r3, r9
10002fea:	1af2      	subs	r2, r6, r3
10002fec:	9210      	str	r2, [sp, #64]	; 0x40
10002fee:	2380      	movs	r3, #128	; 0x80
10002ff0:	00db      	lsls	r3, r3, #3
10002ff2:	0026      	movs	r6, r4
10002ff4:	401e      	ands	r6, r3
10002ff6:	421c      	tst	r4, r3
10002ff8:	d003      	beq.n	10003002 <_vsnprintf+0x4fa>
10002ffa:	4552      	cmp	r2, sl
10002ffc:	d901      	bls.n	10003002 <_vsnprintf+0x4fa>
10002ffe:	4653      	mov	r3, sl
10003000:	9310      	str	r3, [sp, #64]	; 0x40
10003002:	2302      	movs	r3, #2
10003004:	001a      	movs	r2, r3
10003006:	4022      	ands	r2, r4
10003008:	920b      	str	r2, [sp, #44]	; 0x2c
1000300a:	4223      	tst	r3, r4
1000300c:	d005      	beq.n	1000301a <_vsnprintf+0x512>
1000300e:	003a      	movs	r2, r7
10003010:	0037      	movs	r7, r6
10003012:	464c      	mov	r4, r9
10003014:	46a9      	mov	r9, r5
10003016:	4655      	mov	r5, sl
10003018:	e020      	b.n	1000305c <_vsnprintf+0x554>
1000301a:	003a      	movs	r2, r7
1000301c:	9b10      	ldr	r3, [sp, #64]	; 0x40
1000301e:	465f      	mov	r7, fp
10003020:	46b3      	mov	fp, r6
10003022:	002e      	movs	r6, r5
10003024:	e006      	b.n	10003034 <_vsnprintf+0x52c>
10003026:	1c55      	adds	r5, r2, #1
10003028:	4643      	mov	r3, r8
1000302a:	0039      	movs	r1, r7
1000302c:	2020      	movs	r0, #32
1000302e:	47b0      	blx	r6
10003030:	0023      	movs	r3, r4
10003032:	002a      	movs	r2, r5
10003034:	1c5c      	adds	r4, r3, #1
10003036:	990a      	ldr	r1, [sp, #40]	; 0x28
10003038:	4299      	cmp	r1, r3
1000303a:	d8f4      	bhi.n	10003026 <_vsnprintf+0x51e>
1000303c:	0035      	movs	r5, r6
1000303e:	465e      	mov	r6, fp
10003040:	46bb      	mov	fp, r7
10003042:	9410      	str	r4, [sp, #64]	; 0x40
10003044:	0037      	movs	r7, r6
10003046:	464c      	mov	r4, r9
10003048:	46a9      	mov	r9, r5
1000304a:	4655      	mov	r5, sl
1000304c:	e006      	b.n	1000305c <_vsnprintf+0x554>
1000304e:	001d      	movs	r5, r3
10003050:	3401      	adds	r4, #1
10003052:	1c56      	adds	r6, r2, #1
10003054:	4643      	mov	r3, r8
10003056:	4659      	mov	r1, fp
10003058:	47c8      	blx	r9
1000305a:	0032      	movs	r2, r6
1000305c:	7820      	ldrb	r0, [r4, #0]
1000305e:	2800      	cmp	r0, #0
10003060:	d004      	beq.n	1000306c <_vsnprintf+0x564>
10003062:	2f00      	cmp	r7, #0
10003064:	d0f4      	beq.n	10003050 <_vsnprintf+0x548>
10003066:	1e6b      	subs	r3, r5, #1
10003068:	2d00      	cmp	r5, #0
1000306a:	d1f0      	bne.n	1000304e <_vsnprintf+0x546>
1000306c:	0017      	movs	r7, r2
1000306e:	464d      	mov	r5, r9
10003070:	9b0b      	ldr	r3, [sp, #44]	; 0x2c
10003072:	2b00      	cmp	r3, #0
10003074:	d103      	bne.n	1000307e <_vsnprintf+0x576>
10003076:	9b11      	ldr	r3, [sp, #68]	; 0x44
10003078:	3301      	adds	r3, #1
1000307a:	9311      	str	r3, [sp, #68]	; 0x44
1000307c:	e554      	b.n	10002b28 <_vsnprintf+0x20>
1000307e:	9f0a      	ldr	r7, [sp, #40]	; 0x28
10003080:	9b10      	ldr	r3, [sp, #64]	; 0x40
10003082:	e006      	b.n	10003092 <_vsnprintf+0x58a>
10003084:	1c56      	adds	r6, r2, #1
10003086:	4643      	mov	r3, r8
10003088:	4659      	mov	r1, fp
1000308a:	2020      	movs	r0, #32
1000308c:	47a8      	blx	r5
1000308e:	0023      	movs	r3, r4
10003090:	0032      	movs	r2, r6
10003092:	1c5c      	adds	r4, r3, #1
10003094:	429f      	cmp	r7, r3
10003096:	d8f5      	bhi.n	10003084 <_vsnprintf+0x57c>
10003098:	0017      	movs	r7, r2
1000309a:	e7ec      	b.n	10003076 <_vsnprintf+0x56e>
1000309c:	2321      	movs	r3, #33	; 0x21
1000309e:	431c      	orrs	r4, r3
100030a0:	9b1c      	ldr	r3, [sp, #112]	; 0x70
100030a2:	1d1a      	adds	r2, r3, #4
100030a4:	921c      	str	r2, [sp, #112]	; 0x70
100030a6:	681b      	ldr	r3, [r3, #0]
100030a8:	9300      	str	r3, [sp, #0]
100030aa:	9405      	str	r4, [sp, #20]
100030ac:	2308      	movs	r3, #8
100030ae:	9304      	str	r3, [sp, #16]
100030b0:	4653      	mov	r3, sl
100030b2:	9303      	str	r3, [sp, #12]
100030b4:	2310      	movs	r3, #16
100030b6:	9302      	str	r3, [sp, #8]
100030b8:	2300      	movs	r3, #0
100030ba:	9301      	str	r3, [sp, #4]
100030bc:	4643      	mov	r3, r8
100030be:	003a      	movs	r2, r7
100030c0:	4659      	mov	r1, fp
100030c2:	0028      	movs	r0, r5
100030c4:	f7ff f89c 	bl	10002200 <_ntoa_long>
100030c8:	0007      	movs	r7, r0
100030ca:	9b11      	ldr	r3, [sp, #68]	; 0x44
100030cc:	3301      	adds	r3, #1
100030ce:	9311      	str	r3, [sp, #68]	; 0x44
100030d0:	e52a      	b.n	10002b28 <_vsnprintf+0x20>
100030d2:	1c7c      	adds	r4, r7, #1
100030d4:	4643      	mov	r3, r8
100030d6:	003a      	movs	r2, r7
100030d8:	4659      	mov	r1, fp
100030da:	2025      	movs	r0, #37	; 0x25
100030dc:	47a8      	blx	r5
100030de:	9b11      	ldr	r3, [sp, #68]	; 0x44
100030e0:	3301      	adds	r3, #1
100030e2:	9311      	str	r3, [sp, #68]	; 0x44
100030e4:	0027      	movs	r7, r4
100030e6:	e51f      	b.n	10002b28 <_vsnprintf+0x20>
100030e8:	1c7c      	adds	r4, r7, #1
100030ea:	4643      	mov	r3, r8
100030ec:	003a      	movs	r2, r7
100030ee:	4659      	mov	r1, fp
100030f0:	47a8      	blx	r5
100030f2:	9b11      	ldr	r3, [sp, #68]	; 0x44
100030f4:	3301      	adds	r3, #1
100030f6:	9311      	str	r3, [sp, #68]	; 0x44
100030f8:	0027      	movs	r7, r4
100030fa:	e515      	b.n	10002b28 <_vsnprintf+0x20>
100030fc:	4b0a      	ldr	r3, [pc, #40]	; (10003128 <_vsnprintf+0x620>)
100030fe:	469a      	mov	sl, r3
10003100:	e510      	b.n	10002b24 <_vsnprintf+0x1c>
10003102:	46aa      	mov	sl, r5
10003104:	4547      	cmp	r7, r8
10003106:	d302      	bcc.n	1000310e <_vsnprintf+0x606>
10003108:	4643      	mov	r3, r8
1000310a:	1e5a      	subs	r2, r3, #1
1000310c:	e000      	b.n	10003110 <_vsnprintf+0x608>
1000310e:	003a      	movs	r2, r7
10003110:	4643      	mov	r3, r8
10003112:	4659      	mov	r1, fp
10003114:	2000      	movs	r0, #0
10003116:	47d0      	blx	sl
10003118:	0038      	movs	r0, r7
1000311a:	b013      	add	sp, #76	; 0x4c
1000311c:	bcf0      	pop	{r4, r5, r6, r7}
1000311e:	46bb      	mov	fp, r7
10003120:	46b2      	mov	sl, r6
10003122:	46a9      	mov	r9, r5
10003124:	46a0      	mov	r8, r4
10003126:	bdf0      	pop	{r4, r5, r6, r7, pc}
10003128:	1000200d 	.word	0x1000200d

1000312c <vfctprintf>:
1000312c:	b500      	push	{lr}
1000312e:	b085      	sub	sp, #20
10003130:	9002      	str	r0, [sp, #8]
10003132:	9103      	str	r1, [sp, #12]
10003134:	2101      	movs	r1, #1
10003136:	9300      	str	r3, [sp, #0]
10003138:	0013      	movs	r3, r2
1000313a:	424a      	negs	r2, r1
1000313c:	a902      	add	r1, sp, #8
1000313e:	4802      	ldr	r0, [pc, #8]	; (10003148 <vfctprintf+0x1c>)
10003140:	f7ff fce2 	bl	10002b08 <_vsnprintf>
10003144:	b005      	add	sp, #20
10003146:	bd00      	pop	{pc}
10003148:	1000200f 	.word	0x1000200f

1000314c <__aeabi_bits_init>:
1000314c:	4801      	ldr	r0, [pc, #4]	; (10003154 <__aeabi_bits_init+0x8>)
1000314e:	2104      	movs	r1, #4
10003150:	4b01      	ldr	r3, [pc, #4]	; (10003158 <__aeabi_bits_init+0xc>)
10003152:	4718      	bx	r3
10003154:	200002b0 	.word	0x200002b0
10003158:	1000317d 	.word	0x1000317d

1000315c <rom_func_lookup>:
1000315c:	b510      	push	{r4, lr}
1000315e:	0001      	movs	r1, r0
10003160:	2318      	movs	r3, #24
10003162:	881b      	ldrh	r3, [r3, #0]
10003164:	2214      	movs	r2, #20
10003166:	8810      	ldrh	r0, [r2, #0]
10003168:	4798      	blx	r3
1000316a:	bd10      	pop	{r4, pc}

1000316c <rom_data_lookup>:
1000316c:	b510      	push	{r4, lr}
1000316e:	0001      	movs	r1, r0
10003170:	2318      	movs	r3, #24
10003172:	881b      	ldrh	r3, [r3, #0]
10003174:	2216      	movs	r2, #22
10003176:	8810      	ldrh	r0, [r2, #0]
10003178:	4798      	blx	r3
1000317a:	bd10      	pop	{r4, pc}

1000317c <rom_funcs_lookup>:
1000317c:	b5f0      	push	{r4, r5, r6, r7, lr}
1000317e:	46c6      	mov	lr, r8
10003180:	b500      	push	{lr}
10003182:	0007      	movs	r7, r0
10003184:	000e      	movs	r6, r1
10003186:	2500      	movs	r5, #0
10003188:	2301      	movs	r3, #1
1000318a:	4698      	mov	r8, r3
1000318c:	e000      	b.n	10003190 <rom_funcs_lookup+0x14>
1000318e:	3501      	adds	r5, #1
10003190:	42b5      	cmp	r5, r6
10003192:	d20a      	bcs.n	100031aa <rom_funcs_lookup+0x2e>
10003194:	00ac      	lsls	r4, r5, #2
10003196:	193c      	adds	r4, r7, r4
10003198:	6820      	ldr	r0, [r4, #0]
1000319a:	f7ff ffdf 	bl	1000315c <rom_func_lookup>
1000319e:	6020      	str	r0, [r4, #0]
100031a0:	2800      	cmp	r0, #0
100031a2:	d1f4      	bne.n	1000318e <rom_funcs_lookup+0x12>
100031a4:	2300      	movs	r3, #0
100031a6:	4698      	mov	r8, r3
100031a8:	e7f1      	b.n	1000318e <rom_funcs_lookup+0x12>
100031aa:	4640      	mov	r0, r8
100031ac:	bc80      	pop	{r7}
100031ae:	46b8      	mov	r8, r7
100031b0:	bdf0      	pop	{r4, r5, r6, r7, pc}
	...

100031b4 <__wrap___aeabi_idiv>:
100031b4:	4a12      	ldr	r2, [pc, #72]	; (10003200 <divmod_s32s32_savestate+0x18>)
100031b6:	6f93      	ldr	r3, [r2, #120]	; 0x78
100031b8:	089b      	lsrs	r3, r3, #2
100031ba:	d215      	bcs.n	100031e8 <divmod_s32s32_savestate>

100031bc <divmod_s32s32_unsafe>:
100031bc:	6690      	str	r0, [r2, #104]	; 0x68
100031be:	66d1      	str	r1, [r2, #108]	; 0x6c
100031c0:	2900      	cmp	r1, #0
100031c2:	d005      	beq.n	100031d0 <divmod_s32s32_unsafe+0x14>
100031c4:	e7ff      	b.n	100031c6 <divmod_s32s32_unsafe+0xa>
100031c6:	e7ff      	b.n	100031c8 <divmod_s32s32_unsafe+0xc>
100031c8:	e7ff      	b.n	100031ca <divmod_s32s32_unsafe+0xe>
100031ca:	6f51      	ldr	r1, [r2, #116]	; 0x74
100031cc:	6f10      	ldr	r0, [r2, #112]	; 0x70
100031ce:	4770      	bx	lr
100031d0:	b504      	push	{r2, lr}
100031d2:	2180      	movs	r1, #128	; 0x80
100031d4:	0609      	lsls	r1, r1, #24
100031d6:	17c2      	asrs	r2, r0, #31
100031d8:	4051      	eors	r1, r2
100031da:	2800      	cmp	r0, #0
100031dc:	d000      	beq.n	100031e0 <divmod_s32s32_unsafe+0x24>
100031de:	43c8      	mvns	r0, r1
100031e0:	f003 ff16 	bl	10007010 <____aeabi_idiv0_veneer>
100031e4:	2100      	movs	r1, #0
100031e6:	bd04      	pop	{r2, pc}

100031e8 <divmod_s32s32_savestate>:
100031e8:	b5f0      	push	{r4, r5, r6, r7, lr}
100031ea:	6e14      	ldr	r4, [r2, #96]	; 0x60
100031ec:	6e55      	ldr	r5, [r2, #100]	; 0x64
100031ee:	6f57      	ldr	r7, [r2, #116]	; 0x74
100031f0:	6f16      	ldr	r6, [r2, #112]	; 0x70
100031f2:	f7ff ffe3 	bl	100031bc <divmod_s32s32_unsafe>
100031f6:	6614      	str	r4, [r2, #96]	; 0x60
100031f8:	6655      	str	r5, [r2, #100]	; 0x64
100031fa:	6757      	str	r7, [r2, #116]	; 0x74
100031fc:	6716      	str	r6, [r2, #112]	; 0x70
100031fe:	bdf0      	pop	{r4, r5, r6, r7, pc}
10003200:	d0000000 	.word	0xd0000000

10003204 <__wrap___aeabi_uidiv>:
10003204:	4a11      	ldr	r2, [pc, #68]	; (1000324c <divmod_u32u32_savestate+0x18>)
10003206:	6f93      	ldr	r3, [r2, #120]	; 0x78
10003208:	089b      	lsrs	r3, r3, #2
1000320a:	d213      	bcs.n	10003234 <divmod_u32u32_savestate>

1000320c <divmod_u32u32_unsafe>:
1000320c:	6610      	str	r0, [r2, #96]	; 0x60
1000320e:	6651      	str	r1, [r2, #100]	; 0x64
10003210:	2900      	cmp	r1, #0
10003212:	d005      	beq.n	10003220 <divmod_u32u32_unsafe+0x14>
10003214:	e7ff      	b.n	10003216 <divmod_u32u32_unsafe+0xa>
10003216:	e7ff      	b.n	10003218 <divmod_u32u32_unsafe+0xc>
10003218:	e7ff      	b.n	1000321a <divmod_u32u32_unsafe+0xe>
1000321a:	6f51      	ldr	r1, [r2, #116]	; 0x74
1000321c:	6f10      	ldr	r0, [r2, #112]	; 0x70
1000321e:	4770      	bx	lr
10003220:	b504      	push	{r2, lr}
10003222:	2800      	cmp	r0, #0
10003224:	d001      	beq.n	1000322a <divmod_u32u32_unsafe+0x1e>
10003226:	2000      	movs	r0, #0
10003228:	43c0      	mvns	r0, r0
1000322a:	f003 fef1 	bl	10007010 <____aeabi_idiv0_veneer>
1000322e:	2100      	movs	r1, #0
10003230:	bd04      	pop	{r2, pc}
10003232:	46c0      	nop			; (mov r8, r8)

10003234 <divmod_u32u32_savestate>:
10003234:	b5f0      	push	{r4, r5, r6, r7, lr}
10003236:	6e14      	ldr	r4, [r2, #96]	; 0x60
10003238:	6e55      	ldr	r5, [r2, #100]	; 0x64
1000323a:	6f57      	ldr	r7, [r2, #116]	; 0x74
1000323c:	6f16      	ldr	r6, [r2, #112]	; 0x70
1000323e:	f7ff ffe5 	bl	1000320c <divmod_u32u32_unsafe>
10003242:	6614      	str	r4, [r2, #96]	; 0x60
10003244:	6655      	str	r5, [r2, #100]	; 0x64
10003246:	6757      	str	r7, [r2, #116]	; 0x74
10003248:	6716      	str	r6, [r2, #112]	; 0x70
1000324a:	bdf0      	pop	{r4, r5, r6, r7, pc}
1000324c:	d0000000 	.word	0xd0000000

10003250 <__wrap___aeabi_ldivmod>:
10003250:	4694      	mov	ip, r2
10003252:	4a4a      	ldr	r2, [pc, #296]	; (1000337c <udiv0+0x1a>)
10003254:	6f92      	ldr	r2, [r2, #120]	; 0x78
10003256:	0892      	lsrs	r2, r2, #2
10003258:	4662      	mov	r2, ip
1000325a:	d201      	bcs.n	10003260 <divmod_s64s64_savestate>
1000325c:	e028      	b.n	100032b0 <divmod_s64s64_unsafe>
1000325e:	46c0      	nop			; (mov r8, r8)

10003260 <divmod_s64s64_savestate>:
10003260:	b5f0      	push	{r4, r5, r6, r7, lr}
10003262:	4e46      	ldr	r6, [pc, #280]	; (1000337c <udiv0+0x1a>)
10003264:	6e34      	ldr	r4, [r6, #96]	; 0x60
10003266:	6e75      	ldr	r5, [r6, #100]	; 0x64
10003268:	6f77      	ldr	r7, [r6, #116]	; 0x74
1000326a:	6f36      	ldr	r6, [r6, #112]	; 0x70
1000326c:	f000 f820 	bl	100032b0 <divmod_s64s64_unsafe>
10003270:	4694      	mov	ip, r2
10003272:	4a42      	ldr	r2, [pc, #264]	; (1000337c <udiv0+0x1a>)
10003274:	6614      	str	r4, [r2, #96]	; 0x60
10003276:	6655      	str	r5, [r2, #100]	; 0x64
10003278:	6757      	str	r7, [r2, #116]	; 0x74
1000327a:	6716      	str	r6, [r2, #112]	; 0x70
1000327c:	4662      	mov	r2, ip
1000327e:	bdf0      	pop	{r4, r5, r6, r7, pc}

10003280 <__wrap___aeabi_uldivmod>:
10003280:	4694      	mov	ip, r2
10003282:	4a3e      	ldr	r2, [pc, #248]	; (1000337c <udiv0+0x1a>)
10003284:	6f92      	ldr	r2, [r2, #120]	; 0x78
10003286:	0892      	lsrs	r2, r2, #2
10003288:	4662      	mov	r2, ip
1000328a:	d201      	bcs.n	10003290 <divmod_u64u64_savestate>
1000328c:	e054      	b.n	10003338 <divmod_u64u64_unsafe>
1000328e:	46c0      	nop			; (mov r8, r8)

10003290 <divmod_u64u64_savestate>:
10003290:	b5f0      	push	{r4, r5, r6, r7, lr}
10003292:	4e3a      	ldr	r6, [pc, #232]	; (1000337c <udiv0+0x1a>)
10003294:	6e34      	ldr	r4, [r6, #96]	; 0x60
10003296:	6e75      	ldr	r5, [r6, #100]	; 0x64
10003298:	6f77      	ldr	r7, [r6, #116]	; 0x74
1000329a:	6f36      	ldr	r6, [r6, #112]	; 0x70
1000329c:	f000 f84c 	bl	10003338 <divmod_u64u64_unsafe>
100032a0:	4694      	mov	ip, r2
100032a2:	4a36      	ldr	r2, [pc, #216]	; (1000337c <udiv0+0x1a>)
100032a4:	6614      	str	r4, [r2, #96]	; 0x60
100032a6:	6655      	str	r5, [r2, #100]	; 0x64
100032a8:	6757      	str	r7, [r2, #116]	; 0x74
100032aa:	6716      	str	r6, [r2, #112]	; 0x70
100032ac:	4662      	mov	r2, ip
100032ae:	bdf0      	pop	{r4, r5, r6, r7, pc}

100032b0 <divmod_s64s64_unsafe>:
100032b0:	2b00      	cmp	r3, #0
100032b2:	db24      	blt.n	100032fe <l41_1+0x26>
100032b4:	d011      	beq.n	100032da <l41_1+0x2>
100032b6:	2900      	cmp	r1, #0
100032b8:	da3e      	bge.n	10003338 <divmod_u64u64_unsafe>
100032ba:	b500      	push	{lr}
100032bc:	43c9      	mvns	r1, r1
100032be:	4240      	negs	r0, r0
100032c0:	d100      	bne.n	100032c4 <l39_1>
100032c2:	3101      	adds	r1, #1

100032c4 <l39_1>:
100032c4:	f000 f838 	bl	10003338 <divmod_u64u64_unsafe>
100032c8:	43c9      	mvns	r1, r1
100032ca:	4240      	negs	r0, r0
100032cc:	d100      	bne.n	100032d0 <l40_1>
100032ce:	3101      	adds	r1, #1

100032d0 <l40_1>:
100032d0:	43db      	mvns	r3, r3
100032d2:	4252      	negs	r2, r2
100032d4:	d100      	bne.n	100032d8 <l41_1>
100032d6:	3301      	adds	r3, #1

100032d8 <l41_1>:
100032d8:	bd00      	pop	{pc}
100032da:	2a00      	cmp	r2, #0
100032dc:	d1eb      	bne.n	100032b6 <divmod_s64s64_unsafe+0x6>
100032de:	2800      	cmp	r0, #0
100032e0:	d101      	bne.n	100032e6 <l41_1+0xe>
100032e2:	2900      	cmp	r1, #0
100032e4:	d005      	beq.n	100032f2 <l41_1+0x1a>
100032e6:	2000      	movs	r0, #0
100032e8:	0fc9      	lsrs	r1, r1, #31
100032ea:	07c9      	lsls	r1, r1, #31
100032ec:	d101      	bne.n	100032f2 <l41_1+0x1a>
100032ee:	43c0      	mvns	r0, r0
100032f0:	0841      	lsrs	r1, r0, #1
100032f2:	b500      	push	{lr}
100032f4:	f003 fe84 	bl	10007000 <____aeabi_ldiv0_veneer>
100032f8:	2200      	movs	r2, #0
100032fa:	2300      	movs	r3, #0
100032fc:	bd00      	pop	{pc}
100032fe:	b500      	push	{lr}
10003300:	2900      	cmp	r1, #0
10003302:	db0a      	blt.n	1000331a <l43_1+0x2>
10003304:	43db      	mvns	r3, r3
10003306:	4252      	negs	r2, r2
10003308:	d100      	bne.n	1000330c <l42_1>
1000330a:	3301      	adds	r3, #1

1000330c <l42_1>:
1000330c:	f000 f814 	bl	10003338 <divmod_u64u64_unsafe>
10003310:	43c9      	mvns	r1, r1
10003312:	4240      	negs	r0, r0
10003314:	d100      	bne.n	10003318 <l43_1>
10003316:	3101      	adds	r1, #1

10003318 <l43_1>:
10003318:	bd00      	pop	{pc}
1000331a:	43c9      	mvns	r1, r1
1000331c:	4240      	negs	r0, r0
1000331e:	d100      	bne.n	10003322 <l44_1>
10003320:	3101      	adds	r1, #1

10003322 <l44_1>:
10003322:	43db      	mvns	r3, r3
10003324:	4252      	negs	r2, r2
10003326:	d100      	bne.n	1000332a <l45_1>
10003328:	3301      	adds	r3, #1

1000332a <l45_1>:
1000332a:	f000 f805 	bl	10003338 <divmod_u64u64_unsafe>
1000332e:	43db      	mvns	r3, r3
10003330:	4252      	negs	r2, r2
10003332:	d100      	bne.n	10003336 <l46_1>
10003334:	3301      	adds	r3, #1

10003336 <l46_1>:
10003336:	bd00      	pop	{pc}

10003338 <divmod_u64u64_unsafe>:
10003338:	2900      	cmp	r1, #0
1000333a:	d123      	bne.n	10003384 <y64>
1000333c:	2b00      	cmp	r3, #0
1000333e:	d118      	bne.n	10003372 <udiv0+0x10>
10003340:	2a00      	cmp	r2, #0
10003342:	d00c      	beq.n	1000335e <divmod_u64u64_unsafe+0x26>
10003344:	46bc      	mov	ip, r7
10003346:	4f0d      	ldr	r7, [pc, #52]	; (1000337c <udiv0+0x1a>)
10003348:	6638      	str	r0, [r7, #96]	; 0x60
1000334a:	667a      	str	r2, [r7, #100]	; 0x64
1000334c:	2100      	movs	r1, #0
1000334e:	2300      	movs	r3, #0
10003350:	e7ff      	b.n	10003352 <divmod_u64u64_unsafe+0x1a>
10003352:	e7ff      	b.n	10003354 <divmod_u64u64_unsafe+0x1c>
10003354:	e7ff      	b.n	10003356 <divmod_u64u64_unsafe+0x1e>
10003356:	6f7a      	ldr	r2, [r7, #116]	; 0x74
10003358:	6f38      	ldr	r0, [r7, #112]	; 0x70
1000335a:	4667      	mov	r7, ip
1000335c:	4770      	bx	lr
1000335e:	2800      	cmp	r0, #0
10003360:	d001      	beq.n	10003366 <udiv0+0x4>

10003362 <udiv0>:
10003362:	4807      	ldr	r0, [pc, #28]	; (10003380 <udiv0+0x1e>)
10003364:	0001      	movs	r1, r0
10003366:	b500      	push	{lr}
10003368:	f003 fe4a 	bl	10007000 <____aeabi_ldiv0_veneer>
1000336c:	2200      	movs	r2, #0
1000336e:	2300      	movs	r3, #0
10003370:	bd00      	pop	{pc}
10003372:	0002      	movs	r2, r0
10003374:	000b      	movs	r3, r1
10003376:	2000      	movs	r0, #0
10003378:	2100      	movs	r1, #0
1000337a:	4770      	bx	lr
1000337c:	d0000000 	.word	0xd0000000
10003380:	ffffffff 	.word	0xffffffff

10003384 <y64>:
10003384:	2b00      	cmp	r3, #0
10003386:	d000      	beq.n	1000338a <y64+0x6>
10003388:	e0bf      	b.n	1000350a <y64_x48>
1000338a:	0c13      	lsrs	r3, r2, #16
1000338c:	d128      	bne.n	100033e0 <y64_x32>
1000338e:	2a00      	cmp	r2, #0
10003390:	d0e7      	beq.n	10003362 <udiv0>
10003392:	b480      	push	{r7}
10003394:	4f11      	ldr	r7, [pc, #68]	; (100033dc <y64+0x58>)
10003396:	6639      	str	r1, [r7, #96]	; 0x60
10003398:	667a      	str	r2, [r7, #100]	; 0x64
1000339a:	e7ff      	b.n	1000339c <y64+0x18>
1000339c:	e7ff      	b.n	1000339e <y64+0x1a>
1000339e:	b430      	push	{r4, r5}
100033a0:	0c04      	lsrs	r4, r0, #16
100033a2:	6f7b      	ldr	r3, [r7, #116]	; 0x74
100033a4:	6f39      	ldr	r1, [r7, #112]	; 0x70
100033a6:	041b      	lsls	r3, r3, #16
100033a8:	4323      	orrs	r3, r4
100033aa:	663b      	str	r3, [r7, #96]	; 0x60
100033ac:	667a      	str	r2, [r7, #100]	; 0x64
100033ae:	e7ff      	b.n	100033b0 <y64+0x2c>
100033b0:	e7ff      	b.n	100033b2 <y64+0x2e>
100033b2:	e7ff      	b.n	100033b4 <y64+0x30>
100033b4:	46c0      	nop			; (mov r8, r8)
100033b6:	b284      	uxth	r4, r0
100033b8:	6f7b      	ldr	r3, [r7, #116]	; 0x74
100033ba:	6f3d      	ldr	r5, [r7, #112]	; 0x70
100033bc:	041b      	lsls	r3, r3, #16
100033be:	4323      	orrs	r3, r4
100033c0:	663b      	str	r3, [r7, #96]	; 0x60
100033c2:	667a      	str	r2, [r7, #100]	; 0x64
100033c4:	e7ff      	b.n	100033c6 <y64+0x42>
100033c6:	e7ff      	b.n	100033c8 <y64+0x44>
100033c8:	46c0      	nop			; (mov r8, r8)
100033ca:	2300      	movs	r3, #0
100033cc:	042c      	lsls	r4, r5, #16
100033ce:	0c2d      	lsrs	r5, r5, #16
100033d0:	6f7a      	ldr	r2, [r7, #116]	; 0x74
100033d2:	6f38      	ldr	r0, [r7, #112]	; 0x70
100033d4:	1900      	adds	r0, r0, r4
100033d6:	4169      	adcs	r1, r5
100033d8:	bcb0      	pop	{r4, r5, r7}
100033da:	4770      	bx	lr
100033dc:	d0000000 	.word	0xd0000000

100033e0 <y64_x32>:
100033e0:	b5f0      	push	{r4, r5, r6, r7, lr}
100033e2:	4694      	mov	ip, r2
100033e4:	2500      	movs	r5, #0
100033e6:	0e14      	lsrs	r4, r2, #24
100033e8:	d101      	bne.n	100033ee <y64_x32+0xe>
100033ea:	0212      	lsls	r2, r2, #8
100033ec:	3508      	adds	r5, #8
100033ee:	0f14      	lsrs	r4, r2, #28
100033f0:	d101      	bne.n	100033f6 <y64_x32+0x16>
100033f2:	0112      	lsls	r2, r2, #4
100033f4:	3504      	adds	r5, #4
100033f6:	0f94      	lsrs	r4, r2, #30
100033f8:	d101      	bne.n	100033fe <y64_x32+0x1e>
100033fa:	0092      	lsls	r2, r2, #2
100033fc:	3502      	adds	r5, #2
100033fe:	0fd4      	lsrs	r4, r2, #31
10003400:	d101      	bne.n	10003406 <y64_x32+0x26>
10003402:	0052      	lsls	r2, r2, #1
10003404:	3501      	adds	r5, #1
10003406:	0bd4      	lsrs	r4, r2, #15
10003408:	3401      	adds	r4, #1
1000340a:	4f25      	ldr	r7, [pc, #148]	; (100034a0 <y64_x32+0xc0>)
1000340c:	667c      	str	r4, [r7, #100]	; 0x64
1000340e:	4c25      	ldr	r4, [pc, #148]	; (100034a4 <y64_x32+0xc4>)
10003410:	663c      	str	r4, [r7, #96]	; 0x60
10003412:	0c0e      	lsrs	r6, r1, #16
10003414:	b293      	uxth	r3, r2
10003416:	e7ff      	b.n	10003418 <y64_x32+0x38>
10003418:	e7ff      	b.n	1000341a <y64_x32+0x3a>
1000341a:	e7ff      	b.n	1000341c <y64_x32+0x3c>
1000341c:	6f3c      	ldr	r4, [r7, #112]	; 0x70
1000341e:	4366      	muls	r6, r4
10003420:	0c36      	lsrs	r6, r6, #16
10003422:	0377      	lsls	r7, r6, #13
10003424:	46be      	mov	lr, r7
10003426:	4373      	muls	r3, r6
10003428:	0bdf      	lsrs	r7, r3, #15
1000342a:	045b      	lsls	r3, r3, #17
1000342c:	1ac0      	subs	r0, r0, r3
1000342e:	41b9      	sbcs	r1, r7
10003430:	0c13      	lsrs	r3, r2, #16
10003432:	4373      	muls	r3, r6
10003434:	18db      	adds	r3, r3, r3
10003436:	1ac9      	subs	r1, r1, r3
10003438:	08ce      	lsrs	r6, r1, #3
1000343a:	4366      	muls	r6, r4
1000343c:	0c36      	lsrs	r6, r6, #16
1000343e:	44b6      	add	lr, r6
10003440:	b293      	uxth	r3, r2
10003442:	4373      	muls	r3, r6
10003444:	0f1f      	lsrs	r7, r3, #28
10003446:	011b      	lsls	r3, r3, #4
10003448:	1ac0      	subs	r0, r0, r3
1000344a:	41b9      	sbcs	r1, r7
1000344c:	0c13      	lsrs	r3, r2, #16
1000344e:	4373      	muls	r3, r6
10003450:	0b1f      	lsrs	r7, r3, #12
10003452:	051b      	lsls	r3, r3, #20
10003454:	1ac0      	subs	r0, r0, r3
10003456:	41b9      	sbcs	r1, r7
10003458:	0d86      	lsrs	r6, r0, #22
1000345a:	028f      	lsls	r7, r1, #10
1000345c:	433e      	orrs	r6, r7
1000345e:	4366      	muls	r6, r4
10003460:	0c36      	lsrs	r6, r6, #16
10003462:	2d09      	cmp	r5, #9
10003464:	db24      	blt.n	100034b0 <last0>
10003466:	0a52      	lsrs	r2, r2, #9
10003468:	4372      	muls	r2, r6
1000346a:	1a80      	subs	r0, r0, r2
1000346c:	0377      	lsls	r7, r6, #13
1000346e:	0a46      	lsrs	r6, r0, #9
10003470:	4366      	muls	r6, r4
10003472:	0c36      	lsrs	r6, r6, #16
10003474:	2316      	movs	r3, #22
10003476:	1b5b      	subs	r3, r3, r5
10003478:	40de      	lsrs	r6, r3
1000347a:	40df      	lsrs	r7, r3
1000347c:	19bf      	adds	r7, r7, r6
1000347e:	4664      	mov	r4, ip
10003480:	4366      	muls	r6, r4
10003482:	1b82      	subs	r2, r0, r6
10003484:	4670      	mov	r0, lr
10003486:	3504      	adds	r5, #4
10003488:	3306      	adds	r3, #6
1000348a:	0001      	movs	r1, r0
1000348c:	40d9      	lsrs	r1, r3
1000348e:	40a8      	lsls	r0, r5
10003490:	19c0      	adds	r0, r0, r7
10003492:	d300      	bcc.n	10003496 <y64_x32+0xb6>
10003494:	3101      	adds	r1, #1
10003496:	42a2      	cmp	r2, r4
10003498:	d206      	bcs.n	100034a8 <y64_x32+0xc8>
1000349a:	2300      	movs	r3, #0
1000349c:	bdf0      	pop	{r4, r5, r6, r7, pc}
1000349e:	0000      	.short	0x0000
100034a0:	d0000000 	.word	0xd0000000
100034a4:	ffffffff 	.word	0xffffffff
100034a8:	1b12      	subs	r2, r2, r4
100034aa:	3001      	adds	r0, #1
100034ac:	d3f3      	bcc.n	10003496 <y64_x32+0xb6>
100034ae:	e7f1      	b.n	10003494 <y64_x32+0xb4>

100034b0 <last0>:
100034b0:	2709      	movs	r7, #9
100034b2:	1b7f      	subs	r7, r7, r5
100034b4:	40fe      	lsrs	r6, r7
100034b6:	4664      	mov	r4, ip
100034b8:	b2a2      	uxth	r2, r4
100034ba:	4372      	muls	r2, r6
100034bc:	1a80      	subs	r0, r0, r2
100034be:	d200      	bcs.n	100034c2 <last0+0x12>
100034c0:	3901      	subs	r1, #1
100034c2:	0c22      	lsrs	r2, r4, #16
100034c4:	4372      	muls	r2, r6
100034c6:	0c13      	lsrs	r3, r2, #16
100034c8:	0412      	lsls	r2, r2, #16
100034ca:	1a82      	subs	r2, r0, r2
100034cc:	4199      	sbcs	r1, r3
100034ce:	000b      	movs	r3, r1
100034d0:	4670      	mov	r0, lr
100034d2:	3504      	adds	r5, #4
100034d4:	3713      	adds	r7, #19
100034d6:	0001      	movs	r1, r0
100034d8:	40f9      	lsrs	r1, r7
100034da:	40a8      	lsls	r0, r5
100034dc:	1980      	adds	r0, r0, r6
100034de:	d300      	bcc.n	100034e2 <last0+0x32>
100034e0:	3101      	adds	r1, #1
100034e2:	2b00      	cmp	r3, #0
100034e4:	d102      	bne.n	100034ec <last0+0x3c>
100034e6:	42a2      	cmp	r2, r4
100034e8:	d20a      	bcs.n	10003500 <last0+0x50>
100034ea:	bdf0      	pop	{r4, r5, r6, r7, pc}
100034ec:	3001      	adds	r0, #1
100034ee:	d300      	bcc.n	100034f2 <last0+0x42>
100034f0:	3101      	adds	r1, #1
100034f2:	1b12      	subs	r2, r2, r4
100034f4:	d2fa      	bcs.n	100034ec <last0+0x3c>
100034f6:	3b01      	subs	r3, #1
100034f8:	d1f8      	bne.n	100034ec <last0+0x3c>
100034fa:	42a2      	cmp	r2, r4
100034fc:	d200      	bcs.n	10003500 <last0+0x50>
100034fe:	bdf0      	pop	{r4, r5, r6, r7, pc}
10003500:	3001      	adds	r0, #1
10003502:	d300      	bcc.n	10003506 <last0+0x56>
10003504:	3101      	adds	r1, #1
10003506:	1b12      	subs	r2, r2, r4
10003508:	e7f7      	b.n	100034fa <last0+0x4a>

1000350a <y64_x48>:
1000350a:	b5f0      	push	{r4, r5, r6, r7, lr}
1000350c:	0c1c      	lsrs	r4, r3, #16
1000350e:	d000      	beq.n	10003512 <y64_x48+0x8>
10003510:	e080      	b.n	10003614 <y64_x64>
10003512:	b40c      	push	{r2, r3}
10003514:	2500      	movs	r5, #0
10003516:	0a1c      	lsrs	r4, r3, #8
10003518:	d104      	bne.n	10003524 <y64_x48+0x1a>
1000351a:	021b      	lsls	r3, r3, #8
1000351c:	0e16      	lsrs	r6, r2, #24
1000351e:	4333      	orrs	r3, r6
10003520:	0212      	lsls	r2, r2, #8
10003522:	3508      	adds	r5, #8
10003524:	0b1c      	lsrs	r4, r3, #12
10003526:	d104      	bne.n	10003532 <y64_x48+0x28>
10003528:	011b      	lsls	r3, r3, #4
1000352a:	0f16      	lsrs	r6, r2, #28
1000352c:	4333      	orrs	r3, r6
1000352e:	0112      	lsls	r2, r2, #4
10003530:	3504      	adds	r5, #4
10003532:	0b9c      	lsrs	r4, r3, #14
10003534:	d104      	bne.n	10003540 <y64_x48+0x36>
10003536:	009b      	lsls	r3, r3, #2
10003538:	0f96      	lsrs	r6, r2, #30
1000353a:	4333      	orrs	r3, r6
1000353c:	0092      	lsls	r2, r2, #2
1000353e:	3502      	adds	r5, #2
10003540:	0bdc      	lsrs	r4, r3, #15
10003542:	d102      	bne.n	1000354a <y64_x48+0x40>
10003544:	1892      	adds	r2, r2, r2
10003546:	415b      	adcs	r3, r3
10003548:	3501      	adds	r5, #1
1000354a:	001c      	movs	r4, r3
1000354c:	1897      	adds	r7, r2, r2
1000354e:	4164      	adcs	r4, r4
10003550:	3401      	adds	r4, #1
10003552:	4f46      	ldr	r7, [pc, #280]	; (1000366c <y64_x64+0x58>)
10003554:	667c      	str	r4, [r7, #100]	; 0x64
10003556:	4c46      	ldr	r4, [pc, #280]	; (10003670 <y64_x64+0x5c>)
10003558:	663c      	str	r4, [r7, #96]	; 0x60
1000355a:	0c0e      	lsrs	r6, r1, #16
1000355c:	e7ff      	b.n	1000355e <y64_x48+0x54>
1000355e:	e7ff      	b.n	10003560 <y64_x48+0x56>
10003560:	e7ff      	b.n	10003562 <y64_x48+0x58>
10003562:	46c0      	nop			; (mov r8, r8)
10003564:	6f3c      	ldr	r4, [r7, #112]	; 0x70
10003566:	4366      	muls	r6, r4
10003568:	0c36      	lsrs	r6, r6, #16
1000356a:	0377      	lsls	r7, r6, #13
1000356c:	46be      	mov	lr, r7
1000356e:	b297      	uxth	r7, r2
10003570:	4377      	muls	r7, r6
10003572:	1bc0      	subs	r0, r0, r7
10003574:	d200      	bcs.n	10003578 <y64_x48+0x6e>
10003576:	3901      	subs	r1, #1
10003578:	1bc0      	subs	r0, r0, r7
1000357a:	d200      	bcs.n	1000357e <y64_x48+0x74>
1000357c:	3901      	subs	r1, #1
1000357e:	b29f      	uxth	r7, r3
10003580:	4377      	muls	r7, r6
10003582:	1bc9      	subs	r1, r1, r7
10003584:	1bc9      	subs	r1, r1, r7
10003586:	0c17      	lsrs	r7, r2, #16
10003588:	4377      	muls	r7, r6
1000358a:	047e      	lsls	r6, r7, #17
1000358c:	0bff      	lsrs	r7, r7, #15
1000358e:	1b80      	subs	r0, r0, r6
10003590:	41b9      	sbcs	r1, r7
10003592:	08ce      	lsrs	r6, r1, #3
10003594:	4366      	muls	r6, r4
10003596:	0c36      	lsrs	r6, r6, #16
10003598:	2d0c      	cmp	r5, #12
1000359a:	db33      	blt.n	10003604 <last1>
1000359c:	44b6      	add	lr, r6
1000359e:	0b12      	lsrs	r2, r2, #12
100035a0:	051f      	lsls	r7, r3, #20
100035a2:	433a      	orrs	r2, r7
100035a4:	0b1b      	lsrs	r3, r3, #12
100035a6:	b297      	uxth	r7, r2
100035a8:	4377      	muls	r7, r6
100035aa:	1bc0      	subs	r0, r0, r7
100035ac:	d200      	bcs.n	100035b0 <y64_x48+0xa6>
100035ae:	3901      	subs	r1, #1
100035b0:	b29f      	uxth	r7, r3
100035b2:	4377      	muls	r7, r6
100035b4:	1bc9      	subs	r1, r1, r7
100035b6:	0c17      	lsrs	r7, r2, #16
100035b8:	4377      	muls	r7, r6
100035ba:	043e      	lsls	r6, r7, #16
100035bc:	0c3f      	lsrs	r7, r7, #16
100035be:	1b80      	subs	r0, r0, r6
100035c0:	41b9      	sbcs	r1, r7
100035c2:	0d86      	lsrs	r6, r0, #22
100035c4:	028f      	lsls	r7, r1, #10
100035c6:	433e      	orrs	r6, r7
100035c8:	4366      	muls	r6, r4
100035ca:	2729      	movs	r7, #41	; 0x29
100035cc:	1b7f      	subs	r7, r7, r5
100035ce:	40fe      	lsrs	r6, r7
100035d0:	3d0c      	subs	r5, #12
100035d2:	4677      	mov	r7, lr
100035d4:	40af      	lsls	r7, r5
100035d6:	19bf      	adds	r7, r7, r6
100035d8:	bc30      	pop	{r4, r5}
100035da:	b2a2      	uxth	r2, r4
100035dc:	b2ab      	uxth	r3, r5
100035de:	4372      	muls	r2, r6
100035e0:	4373      	muls	r3, r6
100035e2:	1a80      	subs	r0, r0, r2
100035e4:	4199      	sbcs	r1, r3
100035e6:	0c22      	lsrs	r2, r4, #16
100035e8:	4372      	muls	r2, r6
100035ea:	0c13      	lsrs	r3, r2, #16
100035ec:	0412      	lsls	r2, r2, #16
100035ee:	1a80      	subs	r0, r0, r2
100035f0:	4199      	sbcs	r1, r3
100035f2:	0002      	movs	r2, r0
100035f4:	000b      	movs	r3, r1
100035f6:	3701      	adds	r7, #1
100035f8:	1b00      	subs	r0, r0, r4
100035fa:	41a9      	sbcs	r1, r5
100035fc:	d2f9      	bcs.n	100035f2 <y64_x48+0xe8>
100035fe:	1e78      	subs	r0, r7, #1
10003600:	2100      	movs	r1, #0
10003602:	bdf0      	pop	{r4, r5, r6, r7, pc}

10003604 <last1>:
10003604:	270c      	movs	r7, #12
10003606:	1b7f      	subs	r7, r7, r5
10003608:	40fe      	lsrs	r6, r7
1000360a:	4677      	mov	r7, lr
1000360c:	0b7f      	lsrs	r7, r7, #13
1000360e:	40af      	lsls	r7, r5
10003610:	19ff      	adds	r7, r7, r7
10003612:	e7e0      	b.n	100035d6 <y64_x48+0xcc>

10003614 <y64_x64>:
10003614:	2400      	movs	r4, #0
10003616:	1c5d      	adds	r5, r3, #1
10003618:	d007      	beq.n	1000362a <y64_x64+0x16>
1000361a:	4f14      	ldr	r7, [pc, #80]	; (1000366c <y64_x64+0x58>)
1000361c:	667d      	str	r5, [r7, #100]	; 0x64
1000361e:	6639      	str	r1, [r7, #96]	; 0x60
10003620:	e7ff      	b.n	10003622 <y64_x64+0xe>
10003622:	e7ff      	b.n	10003624 <y64_x64+0x10>
10003624:	e7ff      	b.n	10003626 <y64_x64+0x12>
10003626:	e7ff      	b.n	10003628 <y64_x64+0x14>
10003628:	6f3c      	ldr	r4, [r7, #112]	; 0x70
1000362a:	b295      	uxth	r5, r2
1000362c:	b29e      	uxth	r6, r3
1000362e:	4365      	muls	r5, r4
10003630:	4366      	muls	r6, r4
10003632:	1b40      	subs	r0, r0, r5
10003634:	41b1      	sbcs	r1, r6
10003636:	0c15      	lsrs	r5, r2, #16
10003638:	0c1e      	lsrs	r6, r3, #16
1000363a:	4365      	muls	r5, r4
1000363c:	4366      	muls	r6, r4
1000363e:	0436      	lsls	r6, r6, #16
10003640:	0c2f      	lsrs	r7, r5, #16
10003642:	433e      	orrs	r6, r7
10003644:	042d      	lsls	r5, r5, #16
10003646:	1b40      	subs	r0, r0, r5
10003648:	41b1      	sbcs	r1, r6
1000364a:	4299      	cmp	r1, r3
1000364c:	d204      	bcs.n	10003658 <y64_x64+0x44>
1000364e:	0002      	movs	r2, r0
10003650:	000b      	movs	r3, r1
10003652:	0020      	movs	r0, r4
10003654:	2100      	movs	r1, #0
10003656:	bdf0      	pop	{r4, r5, r6, r7, pc}
10003658:	d101      	bne.n	1000365e <y64_x64+0x4a>
1000365a:	4290      	cmp	r0, r2
1000365c:	d3f7      	bcc.n	1000364e <y64_x64+0x3a>
1000365e:	1a80      	subs	r0, r0, r2
10003660:	4199      	sbcs	r1, r3
10003662:	3401      	adds	r4, #1
10003664:	4299      	cmp	r1, r3
10003666:	d3f2      	bcc.n	1000364e <y64_x64+0x3a>
10003668:	e7f6      	b.n	10003658 <y64_x64+0x44>
1000366a:	0000      	.short	0x0000
1000366c:	d0000000 	.word	0xd0000000
10003670:	ffffffff 	.word	0xffffffff

10003674 <__wrap___aeabi_drsub>:
10003674:	4048      	eors	r0, r1
10003676:	4041      	eors	r1, r0
10003678:	4048      	eors	r0, r1

1000367a <__wrap___aeabi_dsub>:
1000367a:	b418      	push	{r3, r4}
1000367c:	4b1b      	ldr	r3, [pc, #108]	; (100036ec <__wrap___aeabi_dmul+0x12>)
1000367e:	685b      	ldr	r3, [r3, #4]
10003680:	46fc      	mov	ip, pc
10003682:	9301      	str	r3, [sp, #4]
10003684:	bd08      	pop	{r3, pc}
10003686:	df04      	.short	0xdf04
10003688:	1000394f 	.word	0x1000394f

1000368c <__wrap___aeabi_dadd>:
1000368c:	b418      	push	{r3, r4}
1000368e:	4b17      	ldr	r3, [pc, #92]	; (100036ec <__wrap___aeabi_dmul+0x12>)
10003690:	681b      	ldr	r3, [r3, #0]
10003692:	46fc      	mov	ip, pc
10003694:	9301      	str	r3, [sp, #4]
10003696:	bd08      	pop	{r3, pc}
10003698:	3959df00 	.word	0x3959df00
1000369c:	1000      	.short	0x1000

1000369e <__wrap___aeabi_ddiv>:
1000369e:	4694      	mov	ip, r2
100036a0:	4a13      	ldr	r2, [pc, #76]	; (100036f0 <__wrap___aeabi_dmul+0x16>)
100036a2:	6f92      	ldr	r2, [r2, #120]	; 0x78
100036a4:	0892      	lsrs	r2, r2, #2
100036a6:	d209      	bcs.n	100036bc <ddiv_save_state>
100036a8:	4662      	mov	r2, ip

100036aa <ddiv_shim_call>:
100036aa:	b418      	push	{r3, r4}
100036ac:	4b0f      	ldr	r3, [pc, #60]	; (100036ec <__wrap___aeabi_dmul+0x12>)
100036ae:	68db      	ldr	r3, [r3, #12]
100036b0:	46fc      	mov	ip, pc
100036b2:	9301      	str	r3, [sp, #4]
100036b4:	bd08      	pop	{r3, pc}
100036b6:	df0c      	.short	0xdf0c
100036b8:	10003c11 	.word	0x10003c11

100036bc <ddiv_save_state>:
100036bc:	4a0c      	ldr	r2, [pc, #48]	; (100036f0 <__wrap___aeabi_dmul+0x16>)
100036be:	b5f0      	push	{r4, r5, r6, r7, lr}
100036c0:	6e14      	ldr	r4, [r2, #96]	; 0x60
100036c2:	6e55      	ldr	r5, [r2, #100]	; 0x64
100036c4:	6f57      	ldr	r7, [r2, #116]	; 0x74
100036c6:	6f16      	ldr	r6, [r2, #112]	; 0x70
100036c8:	4662      	mov	r2, ip
100036ca:	f7ff ffee 	bl	100036aa <ddiv_shim_call>
100036ce:	4a08      	ldr	r2, [pc, #32]	; (100036f0 <__wrap___aeabi_dmul+0x16>)
100036d0:	6614      	str	r4, [r2, #96]	; 0x60
100036d2:	6655      	str	r5, [r2, #100]	; 0x64
100036d4:	6757      	str	r7, [r2, #116]	; 0x74
100036d6:	6716      	str	r6, [r2, #112]	; 0x70
100036d8:	bdf0      	pop	{r4, r5, r6, r7, pc}

100036da <__wrap___aeabi_dmul>:
100036da:	b418      	push	{r3, r4}
100036dc:	4b03      	ldr	r3, [pc, #12]	; (100036ec <__wrap___aeabi_dmul+0x12>)
100036de:	689b      	ldr	r3, [r3, #8]
100036e0:	46fc      	mov	ip, pc
100036e2:	9301      	str	r3, [sp, #4]
100036e4:	bd08      	pop	{r3, pc}
100036e6:	df08      	.short	0xdf08
100036e8:	10003ab5 	.word	0x10003ab5
100036ec:	20000ed4 	.word	0x20000ed4
100036f0:	d0000000 	.word	0xd0000000

100036f4 <__wrap___aeabi_cdrcmple>:
100036f4:	b5ff      	push	{r0, r1, r2, r3, r4, r5, r6, r7, lr}
100036f6:	4050      	eors	r0, r2
100036f8:	4042      	eors	r2, r0
100036fa:	4050      	eors	r0, r2
100036fc:	4059      	eors	r1, r3
100036fe:	404b      	eors	r3, r1
10003700:	4059      	eors	r1, r3
10003702:	e000      	b.n	10003706 <__aeabi_dfcmple_guts>

10003704 <__wrap___aeabi_cdcmpeq>:
10003704:	b5ff      	push	{r0, r1, r2, r3, r4, r5, r6, r7, lr}

10003706 <__aeabi_dfcmple_guts>:
10003706:	4f15      	ldr	r7, [pc, #84]	; (1000375c <__aeabi_dfcmple_guts+0x56>)
10003708:	004c      	lsls	r4, r1, #1
1000370a:	0d64      	lsrs	r4, r4, #21
1000370c:	d003      	beq.n	10003716 <__aeabi_dfcmple_guts+0x10>
1000370e:	42bc      	cmp	r4, r7
10003710:	d104      	bne.n	1000371c <__aeabi_dfcmple_guts+0x16>
10003712:	030c      	lsls	r4, r1, #12
10003714:	d814      	bhi.n	10003740 <__aeabi_dfcmple_guts+0x3a>
10003716:	2000      	movs	r0, #0
10003718:	0d09      	lsrs	r1, r1, #20
1000371a:	0509      	lsls	r1, r1, #20
1000371c:	005c      	lsls	r4, r3, #1
1000371e:	0d64      	lsrs	r4, r4, #21
10003720:	d003      	beq.n	1000372a <__aeabi_dfcmple_guts+0x24>
10003722:	42bc      	cmp	r4, r7
10003724:	d104      	bne.n	10003730 <__aeabi_dfcmple_guts+0x2a>
10003726:	031c      	lsls	r4, r3, #12
10003728:	d80a      	bhi.n	10003740 <__aeabi_dfcmple_guts+0x3a>
1000372a:	2200      	movs	r2, #0
1000372c:	0d1b      	lsrs	r3, r3, #20
1000372e:	051b      	lsls	r3, r3, #20
10003730:	2601      	movs	r6, #1
10003732:	404b      	eors	r3, r1
10003734:	d409      	bmi.n	1000374a <__aeabi_dfcmple_guts+0x44>
10003736:	404b      	eors	r3, r1
10003738:	d503      	bpl.n	10003742 <__aeabi_dfcmple_guts+0x3c>
1000373a:	428b      	cmp	r3, r1
1000373c:	d100      	bne.n	10003740 <__aeabi_dfcmple_guts+0x3a>
1000373e:	4282      	cmp	r2, r0
10003740:	bdff      	pop	{r0, r1, r2, r3, r4, r5, r6, r7, pc}
10003742:	4299      	cmp	r1, r3
10003744:	d1fc      	bne.n	10003740 <__aeabi_dfcmple_guts+0x3a>
10003746:	4290      	cmp	r0, r2
10003748:	bdff      	pop	{r0, r1, r2, r3, r4, r5, r6, r7, pc}
1000374a:	430b      	orrs	r3, r1
1000374c:	18db      	adds	r3, r3, r3
1000374e:	4303      	orrs	r3, r0
10003750:	4313      	orrs	r3, r2
10003752:	d0f5      	beq.n	10003740 <__aeabi_dfcmple_guts+0x3a>
10003754:	43c9      	mvns	r1, r1
10003756:	1849      	adds	r1, r1, r1
10003758:	bdff      	pop	{r0, r1, r2, r3, r4, r5, r6, r7, pc}
1000375a:	0000      	.short	0x0000
1000375c:	000007ff 	.word	0x000007ff

10003760 <__wrap___aeabi_dcmplt>:
10003760:	b500      	push	{lr}
10003762:	f7ff ffcf 	bl	10003704 <__wrap___aeabi_cdcmpeq>
10003766:	4180      	sbcs	r0, r0
10003768:	bd00      	pop	{pc}
1000376a:	46c0      	nop			; (mov r8, r8)

1000376c <__wrap___aeabi_dcmple>:
1000376c:	b500      	push	{lr}
1000376e:	f7ff ffc9 	bl	10003704 <__wrap___aeabi_cdcmpeq>
10003772:	d901      	bls.n	10003778 <__wrap___aeabi_dcmple+0xc>
10003774:	2000      	movs	r0, #0
10003776:	bd00      	pop	{pc}
10003778:	2001      	movs	r0, #1
1000377a:	bd00      	pop	{pc}

1000377c <__wrap___aeabi_dcmpge>:
1000377c:	b500      	push	{lr}
1000377e:	f7ff ffb9 	bl	100036f4 <__wrap___aeabi_cdrcmple>
10003782:	d901      	bls.n	10003788 <__wrap___aeabi_dcmpge+0xc>
10003784:	2000      	movs	r0, #0
10003786:	bd00      	pop	{pc}
10003788:	2001      	movs	r0, #1
1000378a:	bd00      	pop	{pc}

1000378c <__wrap___aeabi_dcmpgt>:
1000378c:	b500      	push	{lr}
1000378e:	f7ff ffb1 	bl	100036f4 <__wrap___aeabi_cdrcmple>
10003792:	4180      	sbcs	r0, r0
10003794:	bd00      	pop	{pc}

10003796 <__wrap___aeabi_dcmpun>:
10003796:	2001      	movs	r0, #1
10003798:	0540      	lsls	r0, r0, #21
1000379a:	004a      	lsls	r2, r1, #1
1000379c:	1812      	adds	r2, r2, r0
1000379e:	d804      	bhi.n	100037aa <__wrap___aeabi_dcmpun+0x14>
100037a0:	005a      	lsls	r2, r3, #1
100037a2:	1812      	adds	r2, r2, r0
100037a4:	d801      	bhi.n	100037aa <__wrap___aeabi_dcmpun+0x14>
100037a6:	2000      	movs	r0, #0
100037a8:	4770      	bx	lr
100037aa:	2001      	movs	r0, #1
100037ac:	4770      	bx	lr
100037ae:	2000      	movs	r0, #0
100037b0:	4770      	bx	lr
	...

100037b4 <__wrap___aeabi_ui2d>:
100037b4:	2100      	movs	r1, #0
100037b6:	2800      	cmp	r0, #0
100037b8:	d105      	bne.n	100037c6 <__wrap___aeabi_i2d+0xa>
100037ba:	4770      	bx	lr

100037bc <__wrap___aeabi_i2d>:
100037bc:	17c1      	asrs	r1, r0, #31
100037be:	4048      	eors	r0, r1
100037c0:	1a40      	subs	r0, r0, r1
100037c2:	d0fa      	beq.n	100037ba <__wrap___aeabi_ui2d+0x6>
100037c4:	07c9      	lsls	r1, r1, #31
100037c6:	b513      	push	{r0, r1, r4, lr}
100037c8:	4b06      	ldr	r3, [pc, #24]	; (100037e4 <__wrap___aeabi_i2d+0x28>)
100037ca:	681b      	ldr	r3, [r3, #0]
100037cc:	4798      	blx	r3
100037ce:	bc0c      	pop	{r2, r3}
100037d0:	1c44      	adds	r4, r0, #1
100037d2:	40a2      	lsls	r2, r4
100037d4:	0510      	lsls	r0, r2, #20
100037d6:	0b12      	lsrs	r2, r2, #12
100037d8:	4903      	ldr	r1, [pc, #12]	; (100037e8 <__wrap___aeabi_i2d+0x2c>)
100037da:	1b09      	subs	r1, r1, r4
100037dc:	0509      	lsls	r1, r1, #20
100037de:	4319      	orrs	r1, r3
100037e0:	4311      	orrs	r1, r2
100037e2:	bd10      	pop	{r4, pc}
100037e4:	20000fd4 	.word	0x20000fd4
100037e8:	0000041f 	.word	0x0000041f

100037ec <__wrap___aeabi_d2iz>:
100037ec:	b510      	push	{r4, lr}
100037ee:	004c      	lsls	r4, r1, #1
100037f0:	0d62      	lsrs	r2, r4, #21
100037f2:	2380      	movs	r3, #128	; 0x80
100037f4:	18d2      	adds	r2, r2, r3
100037f6:	00db      	lsls	r3, r3, #3
100037f8:	1ad2      	subs	r2, r2, r3
100037fa:	055b      	lsls	r3, r3, #21
100037fc:	2a7e      	cmp	r2, #126	; 0x7e
100037fe:	dd10      	ble.n	10003822 <__wrap___aeabi_d2iz+0x36>
10003800:	3a9e      	subs	r2, #158	; 0x9e
10003802:	da13      	bge.n	1000382c <__wrap___aeabi_d2iz+0x40>
10003804:	17cc      	asrs	r4, r1, #31
10003806:	0309      	lsls	r1, r1, #12
10003808:	0849      	lsrs	r1, r1, #1
1000380a:	4319      	orrs	r1, r3
1000380c:	4252      	negs	r2, r2
1000380e:	40d1      	lsrs	r1, r2
10003810:	0064      	lsls	r4, r4, #1
10003812:	3401      	adds	r4, #1
10003814:	3215      	adds	r2, #21
10003816:	2a20      	cmp	r2, #32
10003818:	da05      	bge.n	10003826 <__wrap___aeabi_d2iz+0x3a>
1000381a:	40d0      	lsrs	r0, r2
1000381c:	4308      	orrs	r0, r1
1000381e:	4360      	muls	r0, r4
10003820:	bd10      	pop	{r4, pc}
10003822:	2000      	movs	r0, #0
10003824:	bd10      	pop	{r4, pc}
10003826:	4608      	mov	r0, r1
10003828:	4360      	muls	r0, r4
1000382a:	bd10      	pop	{r4, pc}
1000382c:	0fc8      	lsrs	r0, r1, #31
1000382e:	18c0      	adds	r0, r0, r3
10003830:	3801      	subs	r0, #1
10003832:	bd10      	pop	{r4, pc}

10003834 <__wrap___aeabi_d2uiz>:
10003834:	b418      	push	{r3, r4}
10003836:	4b04      	ldr	r3, [pc, #16]	; (10003848 <__wrap___aeabi_d2uiz+0x14>)
10003838:	6a5b      	ldr	r3, [r3, #36]	; 0x24
1000383a:	46fc      	mov	ip, pc
1000383c:	9301      	str	r3, [sp, #4]
1000383e:	bd08      	pop	{r3, pc}
10003840:	3dc1df24 	.word	0x3dc1df24
10003844:	00001000 	.word	0x00001000
10003848:	20000ed4 	.word	0x20000ed4

1000384c <__aeabi_double_init>:
1000384c:	b570      	push	{r4, r5, r6, lr}
1000384e:	2313      	movs	r3, #19
10003850:	781c      	ldrb	r4, [r3, #0]
10003852:	2c01      	cmp	r4, #1
10003854:	d014      	beq.n	10003880 <__aeabi_double_init+0x34>
10003856:	2c01      	cmp	r4, #1
10003858:	dc14      	bgt.n	10003884 <__aeabi_double_init+0x38>
1000385a:	2c02      	cmp	r4, #2
1000385c:	dc02      	bgt.n	10003864 <__aeabi_double_init+0x18>
1000385e:	4a1f      	ldr	r2, [pc, #124]	; (100038dc <__aeabi_double_init+0x90>)
10003860:	4b1f      	ldr	r3, [pc, #124]	; (100038e0 <__aeabi_double_init+0x94>)
10003862:	649a      	str	r2, [r3, #72]	; 0x48
10003864:	481f      	ldr	r0, [pc, #124]	; (100038e4 <__aeabi_double_init+0x98>)
10003866:	f7ff fc79 	bl	1000315c <rom_func_lookup>
1000386a:	4b1f      	ldr	r3, [pc, #124]	; (100038e8 <__aeabi_double_init+0x9c>)
1000386c:	6018      	str	r0, [r3, #0]
1000386e:	bd70      	pop	{r4, r5, r6, pc}
10003870:	0099      	lsls	r1, r3, #2
10003872:	481a      	ldr	r0, [pc, #104]	; (100038dc <__aeabi_double_init+0x90>)
10003874:	4a1a      	ldr	r2, [pc, #104]	; (100038e0 <__aeabi_double_init+0x94>)
10003876:	5088      	str	r0, [r1, r2]
10003878:	3301      	adds	r3, #1
1000387a:	2b1f      	cmp	r3, #31
1000387c:	d9f8      	bls.n	10003870 <__aeabi_double_init+0x24>
1000387e:	e7ea      	b.n	10003856 <__aeabi_double_init+0xa>
10003880:	2300      	movs	r3, #0
10003882:	e7fa      	b.n	1000387a <__aeabi_double_init+0x2e>
10003884:	4819      	ldr	r0, [pc, #100]	; (100038ec <__aeabi_double_init+0xa0>)
10003886:	f7ff fc71 	bl	1000316c <rom_data_lookup>
1000388a:	0005      	movs	r5, r0
1000388c:	4818      	ldr	r0, [pc, #96]	; (100038f0 <__aeabi_double_init+0xa4>)
1000388e:	f7ff fc6d 	bl	1000316c <rom_data_lookup>
10003892:	3802      	subs	r0, #2
10003894:	7803      	ldrb	r3, [r0, #0]
10003896:	009b      	lsls	r3, r3, #2
10003898:	2b7f      	cmp	r3, #127	; 0x7f
1000389a:	dd19      	ble.n	100038d0 <__aeabi_double_init+0x84>
1000389c:	2280      	movs	r2, #128	; 0x80
1000389e:	0029      	movs	r1, r5
100038a0:	480f      	ldr	r0, [pc, #60]	; (100038e0 <__aeabi_double_init+0x94>)
100038a2:	f000 fba7 	bl	10003ff4 <__wrap___aeabi_memcpy>
100038a6:	2c02      	cmp	r4, #2
100038a8:	d1d7      	bne.n	1000385a <__aeabi_double_init+0xe>
100038aa:	4b12      	ldr	r3, [pc, #72]	; (100038f4 <__aeabi_double_init+0xa8>)
100038ac:	881a      	ldrh	r2, [r3, #0]
100038ae:	23b5      	movs	r3, #181	; 0xb5
100038b0:	021b      	lsls	r3, r3, #8
100038b2:	429a      	cmp	r2, r3
100038b4:	d109      	bne.n	100038ca <__aeabi_double_init+0x7e>
100038b6:	4b10      	ldr	r3, [pc, #64]	; (100038f8 <__aeabi_double_init+0xac>)
100038b8:	881a      	ldrh	r2, [r3, #0]
100038ba:	4b10      	ldr	r3, [pc, #64]	; (100038fc <__aeabi_double_init+0xb0>)
100038bc:	429a      	cmp	r2, r3
100038be:	d104      	bne.n	100038ca <__aeabi_double_init+0x7e>
100038c0:	4b0f      	ldr	r3, [pc, #60]	; (10003900 <__aeabi_double_init+0xb4>)
100038c2:	881a      	ldrh	r2, [r3, #0]
100038c4:	4b0f      	ldr	r3, [pc, #60]	; (10003904 <__aeabi_double_init+0xb8>)
100038c6:	429a      	cmp	r2, r3
100038c8:	d0c7      	beq.n	1000385a <__aeabi_double_init+0xe>
100038ca:	2000      	movs	r0, #0
100038cc:	f7fe fb86 	bl	10001fdc <panic>
100038d0:	4b0d      	ldr	r3, [pc, #52]	; (10003908 <__aeabi_double_init+0xbc>)
100038d2:	4a0e      	ldr	r2, [pc, #56]	; (1000390c <__aeabi_double_init+0xc0>)
100038d4:	2132      	movs	r1, #50	; 0x32
100038d6:	480e      	ldr	r0, [pc, #56]	; (10003910 <__aeabi_double_init+0xc4>)
100038d8:	f7fe fae6 	bl	10001ea8 <__assert_func>
100038dc:	10003915 	.word	0x10003915
100038e0:	20000ed4 	.word	0x20000ed4
100038e4:	0000334c 	.word	0x0000334c
100038e8:	20000fd4 	.word	0x20000fd4
100038ec:	00004453 	.word	0x00004453
100038f0:	00004653 	.word	0x00004653
100038f4:	00003854 	.word	0x00003854
100038f8:	000038d8 	.word	0x000038d8
100038fc:	00004649 	.word	0x00004649
10003900:	0000389c 	.word	0x0000389c
10003904:	00004659 	.word	0x00004659
10003908:	10007cd8 	.word	0x10007cd8
1000390c:	10007d78 	.word	0x10007d78
10003910:	10007d38 	.word	0x10007d38

10003914 <double_table_shim_on_use_helper>:
10003914:	b507      	push	{r0, r1, r2, lr}
10003916:	4660      	mov	r0, ip
10003918:	2800      	cmp	r0, #0
1000391a:	d100      	bne.n	1000391e <double_table_shim_on_use_helper+0xa>
1000391c:	be00      	bkpt	0x0000
1000391e:	8801      	ldrh	r1, [r0, #0]
10003920:	0a0a      	lsrs	r2, r1, #8
10003922:	3002      	adds	r0, #2
10003924:	2adf      	cmp	r2, #223	; 0xdf
10003926:	d1fa      	bne.n	1000391e <double_table_shim_on_use_helper+0xa>
10003928:	b2c9      	uxtb	r1, r1
1000392a:	0882      	lsrs	r2, r0, #2
1000392c:	d304      	bcc.n	10003938 <double_table_shim_on_use_helper+0x24>
1000392e:	8802      	ldrh	r2, [r0, #0]
10003930:	8840      	ldrh	r0, [r0, #2]
10003932:	0400      	lsls	r0, r0, #16
10003934:	4310      	orrs	r0, r2
10003936:	e000      	b.n	1000393a <double_table_shim_on_use_helper+0x26>
10003938:	6800      	ldr	r0, [r0, #0]
1000393a:	4a02      	ldr	r2, [pc, #8]	; (10003944 <double_table_shim_on_use_helper+0x30>)
1000393c:	5050      	str	r0, [r2, r1]
1000393e:	9003      	str	r0, [sp, #12]
10003940:	bd07      	pop	{r0, r1, r2, pc}
10003942:	0000      	.short	0x0000
10003944:	20000ed4 	.word	0x20000ed4

10003948 <drsub_shim>:
10003948:	b40f      	push	{r0, r1, r2, r3}
1000394a:	bc03      	pop	{r0, r1}
1000394c:	bc0c      	pop	{r2, r3}

1000394e <dsub_shim>:
1000394e:	b5f0      	push	{r4, r5, r6, r7, lr}
10003950:	2401      	movs	r4, #1
10003952:	07e4      	lsls	r4, r4, #31
10003954:	4063      	eors	r3, r4
10003956:	e000      	b.n	1000395a <da_entry>

10003958 <dadd_shim>:
10003958:	b5f0      	push	{r4, r5, r6, r7, lr}

1000395a <da_entry>:
1000395a:	0d0c      	lsrs	r4, r1, #20
1000395c:	0fcf      	lsrs	r7, r1, #31
1000395e:	1e66      	subs	r6, r4, #1
10003960:	0536      	lsls	r6, r6, #20
10003962:	1b89      	subs	r1, r1, r6
10003964:	0564      	lsls	r4, r4, #21
10003966:	d303      	bcc.n	10003970 <l7_1>
10003968:	43c9      	mvns	r1, r1
1000396a:	4240      	negs	r0, r0
1000396c:	d300      	bcc.n	10003970 <l7_1>
1000396e:	3101      	adds	r1, #1

10003970 <l7_1>:
10003970:	0d64      	lsrs	r4, r4, #21
10003972:	d003      	beq.n	1000397c <l7_2>
10003974:	1c66      	adds	r6, r4, #1
10003976:	0af6      	lsrs	r6, r6, #11
10003978:	d007      	beq.n	1000398a <l7_3>
1000397a:	1be4      	subs	r4, r4, r7

1000397c <l7_2>:
1000397c:	2000      	movs	r0, #0
1000397e:	007f      	lsls	r7, r7, #1
10003980:	1c79      	adds	r1, r7, #1
10003982:	0789      	lsls	r1, r1, #30
10003984:	1289      	asrs	r1, r1, #10
10003986:	3c80      	subs	r4, #128	; 0x80
10003988:	0324      	lsls	r4, r4, #12

1000398a <l7_3>:
1000398a:	0d1d      	lsrs	r5, r3, #20
1000398c:	0fdf      	lsrs	r7, r3, #31
1000398e:	1e6e      	subs	r6, r5, #1
10003990:	0536      	lsls	r6, r6, #20
10003992:	1b9b      	subs	r3, r3, r6
10003994:	056d      	lsls	r5, r5, #21
10003996:	d303      	bcc.n	100039a0 <l8_1>
10003998:	43db      	mvns	r3, r3
1000399a:	4252      	negs	r2, r2
1000399c:	d300      	bcc.n	100039a0 <l8_1>
1000399e:	3301      	adds	r3, #1

100039a0 <l8_1>:
100039a0:	0d6d      	lsrs	r5, r5, #21
100039a2:	d003      	beq.n	100039ac <l8_2>
100039a4:	1c6e      	adds	r6, r5, #1
100039a6:	0af6      	lsrs	r6, r6, #11
100039a8:	d007      	beq.n	100039ba <l8_3>
100039aa:	1bed      	subs	r5, r5, r7

100039ac <l8_2>:
100039ac:	2200      	movs	r2, #0
100039ae:	007f      	lsls	r7, r7, #1
100039b0:	1c7b      	adds	r3, r7, #1
100039b2:	079b      	lsls	r3, r3, #30
100039b4:	129b      	asrs	r3, r3, #10
100039b6:	3d80      	subs	r5, #128	; 0x80
100039b8:	032d      	lsls	r5, r5, #12

100039ba <l8_3>:
100039ba:	1b2f      	subs	r7, r5, r4
100039bc:	1b66      	subs	r6, r4, r5
100039be:	d458      	bmi.n	10003a72 <da_ygtx>
100039c0:	46a4      	mov	ip, r4
100039c2:	2e20      	cmp	r6, #32
100039c4:	da46      	bge.n	10003a54 <da_xrgty>
100039c6:	3720      	adds	r7, #32
100039c8:	0014      	movs	r4, r2
100039ca:	40bc      	lsls	r4, r7

100039cc <da_xgty0>:
100039cc:	001d      	movs	r5, r3
100039ce:	40bd      	lsls	r5, r7
100039d0:	40f2      	lsrs	r2, r6
100039d2:	4133      	asrs	r3, r6
100039d4:	432a      	orrs	r2, r5

100039d6 <da_add>:
100039d6:	1880      	adds	r0, r0, r2
100039d8:	4159      	adcs	r1, r3

100039da <da_pack>:
100039da:	0fcb      	lsrs	r3, r1, #31
100039dc:	d005      	beq.n	100039ea <da_pack+0x10>
100039de:	43c9      	mvns	r1, r1
100039e0:	43c0      	mvns	r0, r0
100039e2:	2200      	movs	r2, #0
100039e4:	4264      	negs	r4, r4
100039e6:	4150      	adcs	r0, r2
100039e8:	4151      	adcs	r1, r2
100039ea:	4662      	mov	r2, ip
100039ec:	0d4d      	lsrs	r5, r1, #21
100039ee:	d128      	bne.n	10003a42 <da_0>
100039f0:	0d0d      	lsrs	r5, r1, #20
100039f2:	d107      	bne.n	10003a04 <da_1>
100039f4:	2800      	cmp	r0, #0
100039f6:	d01f      	beq.n	10003a38 <da_5>

100039f8 <da_2>:
100039f8:	1924      	adds	r4, r4, r4
100039fa:	4140      	adcs	r0, r0
100039fc:	4149      	adcs	r1, r1
100039fe:	3a01      	subs	r2, #1
10003a00:	0d0d      	lsrs	r5, r1, #20
10003a02:	d0f9      	beq.n	100039f8 <da_2>

10003a04 <da_1>:
10003a04:	0064      	lsls	r4, r4, #1
10003a06:	d306      	bcc.n	10003a16 <da_3>

10003a08 <da_4>:
10003a08:	3001      	adds	r0, #1
10003a0a:	d300      	bcc.n	10003a0e <da_4+0x6>
10003a0c:	3101      	adds	r1, #1
10003a0e:	2c00      	cmp	r4, #0
10003a10:	d101      	bne.n	10003a16 <da_3>
10003a12:	0840      	lsrs	r0, r0, #1
10003a14:	0040      	lsls	r0, r0, #1

10003a16 <da_3>:
10003a16:	3a01      	subs	r2, #1
10003a18:	d40b      	bmi.n	10003a32 <da_6>
10003a1a:	1c94      	adds	r4, r2, #2
10003a1c:	0ae4      	lsrs	r4, r4, #11
10003a1e:	d104      	bne.n	10003a2a <da_7>
10003a20:	0512      	lsls	r2, r2, #20
10003a22:	4411      	add	r1, r2
10003a24:	07db      	lsls	r3, r3, #31
10003a26:	4419      	add	r1, r3
10003a28:	bdf0      	pop	{r4, r5, r6, r7, pc}

10003a2a <da_7>:
10003a2a:	07d9      	lsls	r1, r3, #31
10003a2c:	4b20      	ldr	r3, [pc, #128]	; (10003ab0 <da_xmgty+0x4>)
10003a2e:	4319      	orrs	r1, r3
10003a30:	e000      	b.n	10003a34 <da_6+0x2>

10003a32 <da_6>:
10003a32:	07d9      	lsls	r1, r3, #31
10003a34:	2000      	movs	r0, #0
10003a36:	bdf0      	pop	{r4, r5, r6, r7, pc}

10003a38 <da_5>:
10003a38:	2900      	cmp	r1, #0
10003a3a:	d1dd      	bne.n	100039f8 <da_2>
10003a3c:	2c00      	cmp	r4, #0
10003a3e:	d1db      	bne.n	100039f8 <da_2>
10003a40:	bdf0      	pop	{r4, r5, r6, r7, pc}

10003a42 <da_0>:
10003a42:	3201      	adds	r2, #1
10003a44:	07c6      	lsls	r6, r0, #31
10003a46:	0840      	lsrs	r0, r0, #1
10003a48:	07cd      	lsls	r5, r1, #31
10003a4a:	4328      	orrs	r0, r5
10003a4c:	0849      	lsrs	r1, r1, #1
10003a4e:	2e00      	cmp	r6, #0
10003a50:	d0e1      	beq.n	10003a16 <da_3>
10003a52:	e7d9      	b.n	10003a08 <da_4>

10003a54 <da_xrgty>:
10003a54:	2e3c      	cmp	r6, #60	; 0x3c
10003a56:	da29      	bge.n	10003aac <da_xmgty>
10003a58:	3e20      	subs	r6, #32
10003a5a:	3740      	adds	r7, #64	; 0x40
10003a5c:	0014      	movs	r4, r2
10003a5e:	40bc      	lsls	r4, r7
10003a60:	d000      	beq.n	10003a64 <da_xrgty+0x10>
10003a62:	2401      	movs	r4, #1
10003a64:	40f2      	lsrs	r2, r6
10003a66:	4314      	orrs	r4, r2
10003a68:	001a      	movs	r2, r3
10003a6a:	40bb      	lsls	r3, r7
10003a6c:	431c      	orrs	r4, r3
10003a6e:	17d3      	asrs	r3, r2, #31
10003a70:	e7ac      	b.n	100039cc <da_xgty0>

10003a72 <da_ygtx>:
10003a72:	46ac      	mov	ip, r5
10003a74:	2f20      	cmp	r7, #32
10003a76:	da08      	bge.n	10003a8a <da_yrgtx>
10003a78:	3620      	adds	r6, #32
10003a7a:	0004      	movs	r4, r0
10003a7c:	40b4      	lsls	r4, r6

10003a7e <da_ygtx0>:
10003a7e:	000d      	movs	r5, r1
10003a80:	40b5      	lsls	r5, r6
10003a82:	40f8      	lsrs	r0, r7
10003a84:	4139      	asrs	r1, r7
10003a86:	4328      	orrs	r0, r5
10003a88:	e7a5      	b.n	100039d6 <da_add>

10003a8a <da_yrgtx>:
10003a8a:	2f3c      	cmp	r7, #60	; 0x3c
10003a8c:	da0c      	bge.n	10003aa8 <da_ymgtx>
10003a8e:	3f20      	subs	r7, #32
10003a90:	3640      	adds	r6, #64	; 0x40
10003a92:	0004      	movs	r4, r0
10003a94:	40b4      	lsls	r4, r6
10003a96:	d000      	beq.n	10003a9a <da_yrgtx+0x10>
10003a98:	2401      	movs	r4, #1
10003a9a:	40f8      	lsrs	r0, r7
10003a9c:	4304      	orrs	r4, r0
10003a9e:	0008      	movs	r0, r1
10003aa0:	40b1      	lsls	r1, r6
10003aa2:	430c      	orrs	r4, r1
10003aa4:	17c1      	asrs	r1, r0, #31
10003aa6:	e7ea      	b.n	10003a7e <da_ygtx0>

10003aa8 <da_ymgtx>:
10003aa8:	0010      	movs	r0, r2
10003aaa:	0019      	movs	r1, r3

10003aac <da_xmgty>:
10003aac:	2400      	movs	r4, #0
10003aae:	e794      	b.n	100039da <da_pack>
10003ab0:	7ff00000 	.word	0x7ff00000

10003ab4 <dmul_shim>:
10003ab4:	b5f0      	push	{r4, r5, r6, r7, lr}
10003ab6:	0d0c      	lsrs	r4, r1, #20
10003ab8:	1e66      	subs	r6, r4, #1
10003aba:	0536      	lsls	r6, r6, #20
10003abc:	1b89      	subs	r1, r1, r6
10003abe:	0ae6      	lsrs	r6, r4, #11
10003ac0:	0564      	lsls	r4, r4, #21
10003ac2:	0d64      	lsrs	r4, r4, #21
10003ac4:	d002      	beq.n	10003acc <l11_1>
10003ac6:	1c65      	adds	r5, r4, #1
10003ac8:	0aed      	lsrs	r5, r5, #11
10003aca:	d004      	beq.n	10003ad6 <l11_2>

10003acc <l11_1>:
10003acc:	2000      	movs	r0, #0
10003ace:	2101      	movs	r1, #1
10003ad0:	0509      	lsls	r1, r1, #20
10003ad2:	3c80      	subs	r4, #128	; 0x80
10003ad4:	0324      	lsls	r4, r4, #12

10003ad6 <l11_2>:
10003ad6:	46a4      	mov	ip, r4
10003ad8:	0d1c      	lsrs	r4, r3, #20
10003ada:	1e67      	subs	r7, r4, #1
10003adc:	053f      	lsls	r7, r7, #20
10003ade:	1bdb      	subs	r3, r3, r7
10003ae0:	0ae7      	lsrs	r7, r4, #11
10003ae2:	0564      	lsls	r4, r4, #21
10003ae4:	0d64      	lsrs	r4, r4, #21
10003ae6:	d002      	beq.n	10003aee <l12_1>
10003ae8:	1c65      	adds	r5, r4, #1
10003aea:	0aed      	lsrs	r5, r5, #11
10003aec:	d004      	beq.n	10003af8 <l12_2>

10003aee <l12_1>:
10003aee:	2200      	movs	r2, #0
10003af0:	2301      	movs	r3, #1
10003af2:	051b      	lsls	r3, r3, #20
10003af4:	3c80      	subs	r4, #128	; 0x80
10003af6:	0324      	lsls	r4, r4, #12

10003af8 <l12_2>:
10003af8:	4077      	eors	r7, r6
10003afa:	4464      	add	r4, ip
10003afc:	b497      	push	{r0, r1, r2, r4, r7}
10003afe:	b284      	uxth	r4, r0
10003b00:	b296      	uxth	r6, r2
10003b02:	4374      	muls	r4, r6
10003b04:	0c07      	lsrs	r7, r0, #16
10003b06:	437e      	muls	r6, r7
10003b08:	0c15      	lsrs	r5, r2, #16
10003b0a:	436f      	muls	r7, r5
10003b0c:	b280      	uxth	r0, r0
10003b0e:	4368      	muls	r0, r5
10003b10:	1836      	adds	r6, r6, r0
10003b12:	d302      	bcc.n	10003b1a <l13_1>
10003b14:	2001      	movs	r0, #1
10003b16:	0400      	lsls	r0, r0, #16
10003b18:	183f      	adds	r7, r7, r0

10003b1a <l13_1>:
10003b1a:	0430      	lsls	r0, r6, #16
10003b1c:	0c35      	lsrs	r5, r6, #16
10003b1e:	1900      	adds	r0, r0, r4
10003b20:	417d      	adcs	r5, r7
10003b22:	4684      	mov	ip, r0
10003b24:	b288      	uxth	r0, r1
10003b26:	b29a      	uxth	r2, r3
10003b28:	4350      	muls	r0, r2
10003b2a:	0c0c      	lsrs	r4, r1, #16
10003b2c:	4362      	muls	r2, r4
10003b2e:	0c1f      	lsrs	r7, r3, #16
10003b30:	437c      	muls	r4, r7
10003b32:	b28e      	uxth	r6, r1
10003b34:	437e      	muls	r6, r7
10003b36:	1992      	adds	r2, r2, r6
10003b38:	d302      	bcc.n	10003b40 <l14_1>
10003b3a:	2601      	movs	r6, #1
10003b3c:	0436      	lsls	r6, r6, #16
10003b3e:	19a4      	adds	r4, r4, r6

10003b40 <l14_1>:
10003b40:	0416      	lsls	r6, r2, #16
10003b42:	0c17      	lsrs	r7, r2, #16
10003b44:	1836      	adds	r6, r6, r0
10003b46:	4167      	adcs	r7, r4
10003b48:	bc01      	pop	{r0}
10003b4a:	b281      	uxth	r1, r0
10003b4c:	b29a      	uxth	r2, r3
10003b4e:	4351      	muls	r1, r2
10003b50:	0c04      	lsrs	r4, r0, #16
10003b52:	4362      	muls	r2, r4
10003b54:	0c1b      	lsrs	r3, r3, #16
10003b56:	435c      	muls	r4, r3
10003b58:	b280      	uxth	r0, r0
10003b5a:	4358      	muls	r0, r3
10003b5c:	1812      	adds	r2, r2, r0
10003b5e:	d302      	bcc.n	10003b66 <l15_1>
10003b60:	2001      	movs	r0, #1
10003b62:	0400      	lsls	r0, r0, #16
10003b64:	1824      	adds	r4, r4, r0

10003b66 <l15_1>:
10003b66:	0410      	lsls	r0, r2, #16
10003b68:	0c13      	lsrs	r3, r2, #16
10003b6a:	1840      	adds	r0, r0, r1
10003b6c:	4163      	adcs	r3, r4
10003b6e:	182d      	adds	r5, r5, r0
10003b70:	415e      	adcs	r6, r3
10003b72:	2000      	movs	r0, #0
10003b74:	4147      	adcs	r7, r0
10003b76:	bc06      	pop	{r1, r2}
10003b78:	b288      	uxth	r0, r1
10003b7a:	b293      	uxth	r3, r2
10003b7c:	4358      	muls	r0, r3
10003b7e:	0c0c      	lsrs	r4, r1, #16
10003b80:	4363      	muls	r3, r4
10003b82:	0c12      	lsrs	r2, r2, #16
10003b84:	4354      	muls	r4, r2
10003b86:	b289      	uxth	r1, r1
10003b88:	4351      	muls	r1, r2
10003b8a:	185b      	adds	r3, r3, r1
10003b8c:	d302      	bcc.n	10003b94 <l16_1>
10003b8e:	2101      	movs	r1, #1
10003b90:	0409      	lsls	r1, r1, #16
10003b92:	1864      	adds	r4, r4, r1

10003b94 <l16_1>:
10003b94:	0419      	lsls	r1, r3, #16
10003b96:	0c1a      	lsrs	r2, r3, #16
10003b98:	1809      	adds	r1, r1, r0
10003b9a:	4162      	adcs	r2, r4
10003b9c:	186d      	adds	r5, r5, r1
10003b9e:	4156      	adcs	r6, r2
10003ba0:	2000      	movs	r0, #0
10003ba2:	4147      	adcs	r7, r0
10003ba4:	bc18      	pop	{r3, r4}
10003ba6:	02f9      	lsls	r1, r7, #11
10003ba8:	0d72      	lsrs	r2, r6, #21
10003baa:	4311      	orrs	r1, r2
10003bac:	02f0      	lsls	r0, r6, #11
10003bae:	0d6a      	lsrs	r2, r5, #21
10003bb0:	4310      	orrs	r0, r2
10003bb2:	02ed      	lsls	r5, r5, #11
10003bb4:	0d0a      	lsrs	r2, r1, #20
10003bb6:	d103      	bne.n	10003bc0 <l16_1+0x2c>
10003bb8:	196d      	adds	r5, r5, r5
10003bba:	4140      	adcs	r0, r0
10003bbc:	4149      	adcs	r1, r1
10003bbe:	3b01      	subs	r3, #1
10003bc0:	4e12      	ldr	r6, [pc, #72]	; (10003c0c <dm_1+0xa>)
10003bc2:	1b9b      	subs	r3, r3, r6
10003bc4:	0076      	lsls	r6, r6, #1
10003bc6:	42b3      	cmp	r3, r6
10003bc8:	d20e      	bcs.n	10003be8 <dm_0>
10003bca:	006d      	lsls	r5, r5, #1
10003bcc:	d307      	bcc.n	10003bde <l16_1+0x4a>
10003bce:	3001      	adds	r0, #1
10003bd0:	2600      	movs	r6, #0
10003bd2:	4171      	adcs	r1, r6
10003bd4:	4666      	mov	r6, ip
10003bd6:	4335      	orrs	r5, r6
10003bd8:	d101      	bne.n	10003bde <l16_1+0x4a>
10003bda:	0840      	lsrs	r0, r0, #1
10003bdc:	0040      	lsls	r0, r0, #1
10003bde:	051b      	lsls	r3, r3, #20
10003be0:	18c9      	adds	r1, r1, r3

10003be2 <dm_2>:
10003be2:	07e4      	lsls	r4, r4, #31
10003be4:	4421      	add	r1, r4
10003be6:	bdf0      	pop	{r4, r5, r6, r7, pc}

10003be8 <dm_0>:
10003be8:	da0b      	bge.n	10003c02 <dm_1>
10003bea:	3301      	adds	r3, #1
10003bec:	d106      	bne.n	10003bfc <dm_0+0x14>
10003bee:	3001      	adds	r0, #1
10003bf0:	d104      	bne.n	10003bfc <dm_0+0x14>
10003bf2:	3101      	adds	r1, #1
10003bf4:	0d4f      	lsrs	r7, r1, #21
10003bf6:	d001      	beq.n	10003bfc <dm_0+0x14>
10003bf8:	0849      	lsrs	r1, r1, #1
10003bfa:	e7f2      	b.n	10003be2 <dm_2>
10003bfc:	07e1      	lsls	r1, r4, #31
10003bfe:	2000      	movs	r0, #0
10003c00:	bdf0      	pop	{r4, r5, r6, r7, pc}

10003c02 <dm_1>:
10003c02:	3601      	adds	r6, #1
10003c04:	0531      	lsls	r1, r6, #20
10003c06:	2000      	movs	r0, #0
10003c08:	e7eb      	b.n	10003be2 <dm_2>
10003c0a:	0000      	.short	0x0000
10003c0c:	000003ff 	.word	0x000003ff

10003c10 <ddiv_shim>:
10003c10:	b5f0      	push	{r4, r5, r6, r7, lr}

10003c12 <ddiv0>:
10003c12:	0d1c      	lsrs	r4, r3, #20
10003c14:	1e67      	subs	r7, r4, #1
10003c16:	053f      	lsls	r7, r7, #20
10003c18:	1bdb      	subs	r3, r3, r7
10003c1a:	0ae7      	lsrs	r7, r4, #11
10003c1c:	0564      	lsls	r4, r4, #21
10003c1e:	0d64      	lsrs	r4, r4, #21
10003c20:	d002      	beq.n	10003c28 <l19_1>
10003c22:	1c66      	adds	r6, r4, #1
10003c24:	0af6      	lsrs	r6, r6, #11
10003c26:	d004      	beq.n	10003c32 <l19_2>

10003c28 <l19_1>:
10003c28:	2200      	movs	r2, #0
10003c2a:	2301      	movs	r3, #1
10003c2c:	051b      	lsls	r3, r3, #20
10003c2e:	3c80      	subs	r4, #128	; 0x80
10003c30:	0324      	lsls	r4, r4, #12

10003c32 <l19_2>:
10003c32:	25d0      	movs	r5, #208	; 0xd0
10003c34:	062d      	lsls	r5, r5, #24
10003c36:	2600      	movs	r6, #0
10003c38:	43f6      	mvns	r6, r6
10003c3a:	662e      	str	r6, [r5, #96]	; 0x60
10003c3c:	091e      	lsrs	r6, r3, #4
10003c3e:	666e      	str	r6, [r5, #100]	; 0x64
10003c40:	0fce      	lsrs	r6, r1, #31
10003c42:	19f6      	adds	r6, r6, r7
10003c44:	46b4      	mov	ip, r6
10003c46:	0049      	lsls	r1, r1, #1
10003c48:	0d4f      	lsrs	r7, r1, #21
10003c4a:	d002      	beq.n	10003c52 <l19_2+0x20>
10003c4c:	1c7e      	adds	r6, r7, #1
10003c4e:	0af6      	lsrs	r6, r6, #11
10003c50:	d003      	beq.n	10003c5a <l19_2+0x28>
10003c52:	2000      	movs	r0, #0
10003c54:	2100      	movs	r1, #0
10003c56:	3f40      	subs	r7, #64	; 0x40
10003c58:	033f      	lsls	r7, r7, #12
10003c5a:	1b3e      	subs	r6, r7, r4
10003c5c:	00b6      	lsls	r6, r6, #2
10003c5e:	44b4      	add	ip, r6
10003c60:	3f01      	subs	r7, #1
10003c62:	057f      	lsls	r7, r7, #21
10003c64:	1bc9      	subs	r1, r1, r7
10003c66:	0849      	lsrs	r1, r1, #1
10003c68:	6f2e      	ldr	r6, [r5, #112]	; 0x70
10003c6a:	3601      	adds	r6, #1
10003c6c:	0876      	lsrs	r6, r6, #1
10003c6e:	029c      	lsls	r4, r3, #10
10003c70:	0d95      	lsrs	r5, r2, #22
10003c72:	4325      	orrs	r5, r4
10003c74:	4375      	muls	r5, r6
10003c76:	13ed      	asrs	r5, r5, #15
10003c78:	4375      	muls	r5, r6
10003c7a:	13ad      	asrs	r5, r5, #14
10003c7c:	3501      	adds	r5, #1
10003c7e:	106d      	asrs	r5, r5, #1
10003c80:	03f6      	lsls	r6, r6, #15
10003c82:	1b76      	subs	r6, r6, r5
10003c84:	b40c      	push	{r2, r3}
10003c86:	02cc      	lsls	r4, r1, #11
10003c88:	0d45      	lsrs	r5, r0, #21
10003c8a:	432c      	orrs	r4, r5
10003c8c:	b2a2      	uxth	r2, r4
10003c8e:	b2b3      	uxth	r3, r6
10003c90:	435a      	muls	r2, r3
10003c92:	0c27      	lsrs	r7, r4, #16
10003c94:	437b      	muls	r3, r7
10003c96:	0c35      	lsrs	r5, r6, #16
10003c98:	436f      	muls	r7, r5
10003c9a:	b2a4      	uxth	r4, r4
10003c9c:	436c      	muls	r4, r5
10003c9e:	191b      	adds	r3, r3, r4
10003ca0:	d302      	bcc.n	10003ca8 <l20_1>
10003ca2:	2401      	movs	r4, #1
10003ca4:	0424      	lsls	r4, r4, #16
10003ca6:	193f      	adds	r7, r7, r4

10003ca8 <l20_1>:
10003ca8:	041c      	lsls	r4, r3, #16
10003caa:	0c1d      	lsrs	r5, r3, #16
10003cac:	18a4      	adds	r4, r4, r2
10003cae:	417d      	adcs	r5, r7
10003cb0:	1924      	adds	r4, r4, r4
10003cb2:	416d      	adcs	r5, r5
10003cb4:	9a00      	ldr	r2, [sp, #0]
10003cb6:	b291      	uxth	r1, r2
10003cb8:	b2ac      	uxth	r4, r5
10003cba:	4361      	muls	r1, r4
10003cbc:	0c17      	lsrs	r7, r2, #16
10003cbe:	437c      	muls	r4, r7
10003cc0:	0c2b      	lsrs	r3, r5, #16
10003cc2:	435f      	muls	r7, r3
10003cc4:	b292      	uxth	r2, r2
10003cc6:	435a      	muls	r2, r3
10003cc8:	18a4      	adds	r4, r4, r2
10003cca:	d302      	bcc.n	10003cd2 <l21_1>
10003ccc:	2201      	movs	r2, #1
10003cce:	0412      	lsls	r2, r2, #16
10003cd0:	18bf      	adds	r7, r7, r2

10003cd2 <l21_1>:
10003cd2:	0422      	lsls	r2, r4, #16
10003cd4:	0c23      	lsrs	r3, r4, #16
10003cd6:	1852      	adds	r2, r2, r1
10003cd8:	417b      	adcs	r3, r7
10003cda:	9c01      	ldr	r4, [sp, #4]
10003cdc:	436c      	muls	r4, r5
10003cde:	191b      	adds	r3, r3, r4
10003ce0:	0e52      	lsrs	r2, r2, #25
10003ce2:	01d9      	lsls	r1, r3, #7
10003ce4:	430a      	orrs	r2, r1
10003ce6:	0144      	lsls	r4, r0, #5
10003ce8:	1aa0      	subs	r0, r4, r2
10003cea:	b281      	uxth	r1, r0
10003cec:	b2b2      	uxth	r2, r6
10003cee:	4351      	muls	r1, r2
10003cf0:	1403      	asrs	r3, r0, #16
10003cf2:	435a      	muls	r2, r3
10003cf4:	0c36      	lsrs	r6, r6, #16
10003cf6:	4373      	muls	r3, r6
10003cf8:	b287      	uxth	r7, r0
10003cfa:	4377      	muls	r7, r6
10003cfc:	17d6      	asrs	r6, r2, #31
10003cfe:	19d2      	adds	r2, r2, r7
10003d00:	2700      	movs	r7, #0
10003d02:	417e      	adcs	r6, r7
10003d04:	0436      	lsls	r6, r6, #16
10003d06:	199b      	adds	r3, r3, r6
10003d08:	0417      	lsls	r7, r2, #16
10003d0a:	0c16      	lsrs	r6, r2, #16
10003d0c:	187f      	adds	r7, r7, r1
10003d0e:	415e      	adcs	r6, r3
10003d10:	1673      	asrs	r3, r6, #25
10003d12:	18ed      	adds	r5, r5, r3
10003d14:	01f3      	lsls	r3, r6, #7
10003d16:	2600      	movs	r6, #0
10003d18:	3380      	adds	r3, #128	; 0x80
10003d1a:	4175      	adcs	r5, r6
10003d1c:	0fa9      	lsrs	r1, r5, #30
10003d1e:	d106      	bne.n	10003d2e <dd_0>
10003d20:	0064      	lsls	r4, r4, #1
10003d22:	0a69      	lsrs	r1, r5, #9
10003d24:	05e8      	lsls	r0, r5, #23
10003d26:	0a5b      	lsrs	r3, r3, #9
10003d28:	4318      	orrs	r0, r3
10003d2a:	d209      	bcs.n	10003d40 <dd_1>
10003d2c:	e02f      	b.n	10003d8e <dd_2>

10003d2e <dd_0>:
10003d2e:	2204      	movs	r2, #4
10003d30:	4494      	add	ip, r2
10003d32:	3380      	adds	r3, #128	; 0x80
10003d34:	4175      	adcs	r5, r6
10003d36:	0aa9      	lsrs	r1, r5, #10
10003d38:	05a8      	lsls	r0, r5, #22
10003d3a:	0a9b      	lsrs	r3, r3, #10
10003d3c:	4318      	orrs	r0, r3
10003d3e:	d326      	bcc.n	10003d8e <dd_2>

10003d40 <dd_1>:
10003d40:	4140      	adcs	r0, r0
10003d42:	4149      	adcs	r1, r1
10003d44:	0424      	lsls	r4, r4, #16
10003d46:	9a00      	ldr	r2, [sp, #0]
10003d48:	9b01      	ldr	r3, [sp, #4]
10003d4a:	000d      	movs	r5, r1
10003d4c:	4355      	muls	r5, r2
10003d4e:	1b64      	subs	r4, r4, r5
10003d50:	4343      	muls	r3, r0
10003d52:	1ae4      	subs	r4, r4, r3
10003d54:	b295      	uxth	r5, r2
10003d56:	b286      	uxth	r6, r0
10003d58:	4375      	muls	r5, r6
10003d5a:	0c17      	lsrs	r7, r2, #16
10003d5c:	437e      	muls	r6, r7
10003d5e:	0c03      	lsrs	r3, r0, #16
10003d60:	435f      	muls	r7, r3
10003d62:	b292      	uxth	r2, r2
10003d64:	435a      	muls	r2, r3
10003d66:	18b6      	adds	r6, r6, r2
10003d68:	d302      	bcc.n	10003d70 <l23_1>
10003d6a:	2201      	movs	r2, #1
10003d6c:	0412      	lsls	r2, r2, #16
10003d6e:	18bf      	adds	r7, r7, r2

10003d70 <l23_1>:
10003d70:	0432      	lsls	r2, r6, #16
10003d72:	0c33      	lsrs	r3, r6, #16
10003d74:	1952      	adds	r2, r2, r5
10003d76:	417b      	adcs	r3, r7
10003d78:	4252      	negs	r2, r2
10003d7a:	419c      	sbcs	r4, r3
10003d7c:	2c00      	cmp	r4, #0
10003d7e:	d402      	bmi.n	10003d86 <l23_1+0x16>
10003d80:	2200      	movs	r2, #0
10003d82:	3001      	adds	r0, #1
10003d84:	4151      	adcs	r1, r2
10003d86:	0840      	lsrs	r0, r0, #1
10003d88:	07ca      	lsls	r2, r1, #31
10003d8a:	4310      	orrs	r0, r2
10003d8c:	0849      	lsrs	r1, r1, #1

10003d8e <dd_2>:
10003d8e:	b002      	add	sp, #8
10003d90:	4662      	mov	r2, ip
10003d92:	07d7      	lsls	r7, r2, #31
10003d94:	1092      	asrs	r2, r2, #2
10003d96:	4b08      	ldr	r3, [pc, #32]	; (10003db8 <dd_4+0x6>)
10003d98:	18d2      	adds	r2, r2, r3
10003d9a:	4b08      	ldr	r3, [pc, #32]	; (10003dbc <dd_4+0xa>)
10003d9c:	429a      	cmp	r2, r3
10003d9e:	d203      	bcs.n	10003da8 <dd_3>
10003da0:	0512      	lsls	r2, r2, #20
10003da2:	1889      	adds	r1, r1, r2

10003da4 <dd_5>:
10003da4:	19c9      	adds	r1, r1, r7
10003da6:	bdf0      	pop	{r4, r5, r6, r7, pc}

10003da8 <dd_3>:
10003da8:	2000      	movs	r0, #0
10003daa:	2a00      	cmp	r2, #0
10003dac:	dc01      	bgt.n	10003db2 <dd_4>
10003dae:	0039      	movs	r1, r7
10003db0:	bdf0      	pop	{r4, r5, r6, r7, pc}

10003db2 <dd_4>:
10003db2:	3301      	adds	r3, #1
10003db4:	0519      	lsls	r1, r3, #20
10003db6:	e7f5      	b.n	10003da4 <dd_5>
10003db8:	000003fd 	.word	0x000003fd
10003dbc:	000007fe 	.word	0x000007fe

10003dc0 <double2uint_shim>:
10003dc0:	2200      	movs	r2, #0

10003dc2 <double2ufix_shim>:
10003dc2:	b500      	push	{lr}
10003dc4:	3220      	adds	r2, #32
10003dc6:	f000 f804 	bl	10003dd2 <double2ufix64_shim>
10003dca:	0008      	movs	r0, r1
10003dcc:	bd00      	pop	{pc}
	...

10003dd0 <double2uint64_shim>:
10003dd0:	2200      	movs	r2, #0

10003dd2 <double2ufix64_shim>:
10003dd2:	150b      	asrs	r3, r1, #20
10003dd4:	d40a      	bmi.n	10003dec <ret_dzero>

10003dd6 <d2fix>:
10003dd6:	b510      	push	{r4, lr}
10003dd8:	4694      	mov	ip, r2
10003dda:	f000 f831 	bl	10003e40 <dunpacks>
10003dde:	1414      	asrs	r4, r2, #16
10003de0:	3401      	adds	r4, #1
10003de2:	da00      	bge.n	10003de6 <d2fix+0x10>
10003de4:	2100      	movs	r1, #0
10003de6:	17cb      	asrs	r3, r1, #31
10003de8:	4c14      	ldr	r4, [pc, #80]	; (10003e3c <d2fix_a+0x4a>)
10003dea:	4720      	bx	r4

10003dec <ret_dzero>:
10003dec:	2000      	movs	r0, #0
10003dee:	2100      	movs	r1, #0
10003df0:	4770      	bx	lr

10003df2 <d2fix_a>:
10003df2:	4462      	add	r2, ip
10003df4:	3a34      	subs	r2, #52	; 0x34
10003df6:	d40c      	bmi.n	10003e12 <d2fix_a+0x20>
10003df8:	2a0c      	cmp	r2, #12
10003dfa:	da07      	bge.n	10003e0c <d2fix_a+0x1a>
10003dfc:	0004      	movs	r4, r0
10003dfe:	4091      	lsls	r1, r2
10003e00:	4090      	lsls	r0, r2
10003e02:	4252      	negs	r2, r2
10003e04:	3220      	adds	r2, #32
10003e06:	40d4      	lsrs	r4, r2
10003e08:	4321      	orrs	r1, r4
10003e0a:	bd10      	pop	{r4, pc}
10003e0c:	43d8      	mvns	r0, r3
10003e0e:	43d9      	mvns	r1, r3
10003e10:	bd10      	pop	{r4, pc}
10003e12:	3220      	adds	r2, #32
10003e14:	d407      	bmi.n	10003e26 <d2fix_a+0x34>
10003e16:	460c      	mov	r4, r1
10003e18:	4094      	lsls	r4, r2
10003e1a:	4252      	negs	r2, r2
10003e1c:	3220      	adds	r2, #32
10003e1e:	4111      	asrs	r1, r2
10003e20:	40d0      	lsrs	r0, r2
10003e22:	4320      	orrs	r0, r4
10003e24:	bd10      	pop	{r4, pc}
10003e26:	0008      	movs	r0, r1
10003e28:	17c9      	asrs	r1, r1, #31
10003e2a:	3220      	adds	r2, #32
10003e2c:	d403      	bmi.n	10003e36 <d2fix_a+0x44>
10003e2e:	4252      	negs	r2, r2
10003e30:	3220      	adds	r2, #32
10003e32:	4110      	asrs	r0, r2
10003e34:	bd10      	pop	{r4, pc}
10003e36:	0018      	movs	r0, r3
10003e38:	0019      	movs	r1, r3
10003e3a:	bd10      	pop	{r4, pc}
10003e3c:	10003df3 	.word	0x10003df3

10003e40 <dunpacks>:
10003e40:	0d0a      	lsrs	r2, r1, #20
10003e42:	0fcc      	lsrs	r4, r1, #31
10003e44:	1e53      	subs	r3, r2, #1
10003e46:	051b      	lsls	r3, r3, #20
10003e48:	1ac9      	subs	r1, r1, r3
10003e4a:	0552      	lsls	r2, r2, #21
10003e4c:	d303      	bcc.n	10003e56 <l59_1>
10003e4e:	43c9      	mvns	r1, r1
10003e50:	4240      	negs	r0, r0
10003e52:	d300      	bcc.n	10003e56 <l59_1>
10003e54:	3101      	adds	r1, #1

10003e56 <l59_1>:
10003e56:	0d52      	lsrs	r2, r2, #21
10003e58:	d003      	beq.n	10003e62 <l59_2>
10003e5a:	1c53      	adds	r3, r2, #1
10003e5c:	0adb      	lsrs	r3, r3, #11
10003e5e:	d007      	beq.n	10003e70 <l59_3>
10003e60:	1b12      	subs	r2, r2, r4

10003e62 <l59_2>:
10003e62:	2000      	movs	r0, #0
10003e64:	0064      	lsls	r4, r4, #1
10003e66:	1c61      	adds	r1, r4, #1
10003e68:	0789      	lsls	r1, r1, #30
10003e6a:	1289      	asrs	r1, r1, #10
10003e6c:	3a80      	subs	r2, #128	; 0x80
10003e6e:	0312      	lsls	r2, r2, #12

10003e70 <l59_3>:
10003e70:	4b01      	ldr	r3, [pc, #4]	; (10003e78 <l59_3+0x8>)
10003e72:	1ad2      	subs	r2, r2, r3
10003e74:	4770      	bx	lr
10003e76:	0000      	.short	0x0000
10003e78:	000003ff 	.word	0x000003ff

10003e7c <__aeabi_float_init>:
10003e7c:	b570      	push	{r4, r5, r6, lr}
10003e7e:	2313      	movs	r3, #19
10003e80:	781d      	ldrb	r5, [r3, #0]
10003e82:	482a      	ldr	r0, [pc, #168]	; (10003f2c <__aeabi_float_init+0xb0>)
10003e84:	f7ff f972 	bl	1000316c <rom_data_lookup>
10003e88:	0004      	movs	r4, r0
10003e8a:	2d01      	cmp	r5, #1
10003e8c:	d011      	beq.n	10003eb2 <__aeabi_float_init+0x36>
10003e8e:	2d01      	cmp	r5, #1
10003e90:	dd09      	ble.n	10003ea6 <__aeabi_float_init+0x2a>
10003e92:	1ea3      	subs	r3, r4, #2
10003e94:	781b      	ldrb	r3, [r3, #0]
10003e96:	009b      	lsls	r3, r3, #2
10003e98:	2b7f      	cmp	r3, #127	; 0x7f
10003e9a:	dd40      	ble.n	10003f1e <__aeabi_float_init+0xa2>
10003e9c:	2280      	movs	r2, #128	; 0x80
10003e9e:	0021      	movs	r1, r4
10003ea0:	4823      	ldr	r0, [pc, #140]	; (10003f30 <__aeabi_float_init+0xb4>)
10003ea2:	f000 f8a7 	bl	10003ff4 <__wrap___aeabi_memcpy>
10003ea6:	4823      	ldr	r0, [pc, #140]	; (10003f34 <__aeabi_float_init+0xb8>)
10003ea8:	f7ff f958 	bl	1000315c <rom_func_lookup>
10003eac:	4b22      	ldr	r3, [pc, #136]	; (10003f38 <__aeabi_float_init+0xbc>)
10003eae:	6018      	str	r0, [r3, #0]
10003eb0:	bd70      	pop	{r4, r5, r6, pc}
10003eb2:	2254      	movs	r2, #84	; 0x54
10003eb4:	0001      	movs	r1, r0
10003eb6:	481e      	ldr	r0, [pc, #120]	; (10003f30 <__aeabi_float_init+0xb4>)
10003eb8:	f000 f89c 	bl	10003ff4 <__wrap___aeabi_memcpy>
10003ebc:	4b1f      	ldr	r3, [pc, #124]	; (10003f3c <__aeabi_float_init+0xc0>)
10003ebe:	881a      	ldrh	r2, [r3, #0]
10003ec0:	4b1f      	ldr	r3, [pc, #124]	; (10003f40 <__aeabi_float_init+0xc4>)
10003ec2:	429a      	cmp	r2, r3
10003ec4:	d11c      	bne.n	10003f00 <__aeabi_float_init+0x84>
10003ec6:	23a7      	movs	r3, #167	; 0xa7
10003ec8:	019b      	lsls	r3, r3, #6
10003eca:	881a      	ldrh	r2, [r3, #0]
10003ecc:	4b1d      	ldr	r3, [pc, #116]	; (10003f44 <__aeabi_float_init+0xc8>)
10003ece:	429a      	cmp	r2, r3
10003ed0:	d116      	bne.n	10003f00 <__aeabi_float_init+0x84>
10003ed2:	4b1d      	ldr	r3, [pc, #116]	; (10003f48 <__aeabi_float_init+0xcc>)
10003ed4:	881a      	ldrh	r2, [r3, #0]
10003ed6:	4b1d      	ldr	r3, [pc, #116]	; (10003f4c <__aeabi_float_init+0xd0>)
10003ed8:	429a      	cmp	r2, r3
10003eda:	d111      	bne.n	10003f00 <__aeabi_float_init+0x84>
10003edc:	4b1c      	ldr	r3, [pc, #112]	; (10003f50 <__aeabi_float_init+0xd4>)
10003ede:	881a      	ldrh	r2, [r3, #0]
10003ee0:	2394      	movs	r3, #148	; 0x94
10003ee2:	019b      	lsls	r3, r3, #6
10003ee4:	429a      	cmp	r2, r3
10003ee6:	d10b      	bne.n	10003f00 <__aeabi_float_init+0x84>
10003ee8:	4b1a      	ldr	r3, [pc, #104]	; (10003f54 <__aeabi_float_init+0xd8>)
10003eea:	881a      	ldrh	r2, [r3, #0]
10003eec:	4b1a      	ldr	r3, [pc, #104]	; (10003f58 <__aeabi_float_init+0xdc>)
10003eee:	429a      	cmp	r2, r3
10003ef0:	d106      	bne.n	10003f00 <__aeabi_float_init+0x84>
10003ef2:	4b1a      	ldr	r3, [pc, #104]	; (10003f5c <__aeabi_float_init+0xe0>)
10003ef4:	681a      	ldr	r2, [r3, #0]
10003ef6:	4b1a      	ldr	r3, [pc, #104]	; (10003f60 <__aeabi_float_init+0xe4>)
10003ef8:	429a      	cmp	r2, r3
10003efa:	d101      	bne.n	10003f00 <__aeabi_float_init+0x84>
10003efc:	2315      	movs	r3, #21
10003efe:	e007      	b.n	10003f10 <__aeabi_float_init+0x94>
10003f00:	4818      	ldr	r0, [pc, #96]	; (10003f64 <__aeabi_float_init+0xe8>)
10003f02:	f7fe f86b 	bl	10001fdc <panic>
10003f06:	0099      	lsls	r1, r3, #2
10003f08:	4817      	ldr	r0, [pc, #92]	; (10003f68 <__aeabi_float_init+0xec>)
10003f0a:	4a09      	ldr	r2, [pc, #36]	; (10003f30 <__aeabi_float_init+0xb4>)
10003f0c:	5088      	str	r0, [r1, r2]
10003f0e:	3301      	adds	r3, #1
10003f10:	2b1f      	cmp	r3, #31
10003f12:	d9f8      	bls.n	10003f06 <__aeabi_float_init+0x8a>
10003f14:	4a14      	ldr	r2, [pc, #80]	; (10003f68 <__aeabi_float_init+0xec>)
10003f16:	4b06      	ldr	r3, [pc, #24]	; (10003f30 <__aeabi_float_init+0xb4>)
10003f18:	621a      	str	r2, [r3, #32]
10003f1a:	61da      	str	r2, [r3, #28]
10003f1c:	e7b7      	b.n	10003e8e <__aeabi_float_init+0x12>
10003f1e:	4b13      	ldr	r3, [pc, #76]	; (10003f6c <__aeabi_float_init+0xf0>)
10003f20:	4a13      	ldr	r2, [pc, #76]	; (10003f70 <__aeabi_float_init+0xf4>)
10003f22:	2142      	movs	r1, #66	; 0x42
10003f24:	4813      	ldr	r0, [pc, #76]	; (10003f74 <__aeabi_float_init+0xf8>)
10003f26:	f7fd ffbf 	bl	10001ea8 <__assert_func>
10003f2a:	46c0      	nop			; (mov r8, r8)
10003f2c:	00004653 	.word	0x00004653
10003f30:	20000fd8 	.word	0x20000fd8
10003f34:	0000334c 	.word	0x0000334c
10003f38:	20000fd4 	.word	0x20000fd4
10003f3c:	000029ee 	.word	0x000029ee
10003f40:	00000fc4 	.word	0x00000fc4
10003f44:	00000dc2 	.word	0x00000dc2
10003f48:	00002b96 	.word	0x00002b96
10003f4c:	0000b5c0 	.word	0x0000b5c0
10003f50:	00002b18 	.word	0x00002b18
10003f54:	00002acc 	.word	0x00002acc
10003f58:	0000b510 	.word	0x0000b510
10003f5c:	00002cfc 	.word	0x00002cfc
10003f60:	6487ed51 	.word	0x6487ed51
10003f64:	10007048 	.word	0x10007048
10003f68:	10003f79 	.word	0x10003f79
10003f6c:	10007d8c 	.word	0x10007d8c
10003f70:	10007dfc 	.word	0x10007dfc
10003f74:	10007dc0 	.word	0x10007dc0

10003f78 <float_table_shim_on_use_helper>:
10003f78:	b507      	push	{r0, r1, r2, lr}
10003f7a:	4660      	mov	r0, ip
10003f7c:	2800      	cmp	r0, #0
10003f7e:	d100      	bne.n	10003f82 <float_table_shim_on_use_helper+0xa>
10003f80:	be00      	bkpt	0x0000
10003f82:	8801      	ldrh	r1, [r0, #0]
10003f84:	0a0a      	lsrs	r2, r1, #8
10003f86:	3002      	adds	r0, #2
10003f88:	2adf      	cmp	r2, #223	; 0xdf
10003f8a:	d1fa      	bne.n	10003f82 <float_table_shim_on_use_helper+0xa>
10003f8c:	b2c9      	uxtb	r1, r1
10003f8e:	0882      	lsrs	r2, r0, #2
10003f90:	d304      	bcc.n	10003f9c <float_table_shim_on_use_helper+0x24>
10003f92:	8802      	ldrh	r2, [r0, #0]
10003f94:	8840      	ldrh	r0, [r0, #2]
10003f96:	0400      	lsls	r0, r0, #16
10003f98:	4310      	orrs	r0, r2
10003f9a:	e000      	b.n	10003f9e <float_table_shim_on_use_helper+0x26>
10003f9c:	6800      	ldr	r0, [r0, #0]
10003f9e:	4a02      	ldr	r2, [pc, #8]	; (10003fa8 <float_table_shim_on_use_helper+0x30>)
10003fa0:	5050      	str	r0, [r2, r1]
10003fa2:	9003      	str	r0, [sp, #12]
10003fa4:	bd07      	pop	{r0, r1, r2, pc}
10003fa6:	0000      	.short	0x0000
10003fa8:	20000fd8 	.word	0x20000fd8

10003fac <__wrap_malloc>:
10003fac:	b510      	push	{r4, lr}
10003fae:	0004      	movs	r4, r0
10003fb0:	f002 fbc0 	bl	10006734 <malloc>
10003fb4:	2800      	cmp	r0, #0
10003fb6:	d004      	beq.n	10003fc2 <__wrap_malloc+0x16>
10003fb8:	1904      	adds	r4, r0, r4
10003fba:	4b03      	ldr	r3, [pc, #12]	; (10003fc8 <__wrap_malloc+0x1c>)
10003fbc:	429c      	cmp	r4, r3
10003fbe:	d800      	bhi.n	10003fc2 <__wrap_malloc+0x16>
10003fc0:	bd10      	pop	{r4, pc}
10003fc2:	4802      	ldr	r0, [pc, #8]	; (10003fcc <__wrap_malloc+0x20>)
10003fc4:	f7fe f80a 	bl	10001fdc <panic>
10003fc8:	20040000 	.word	0x20040000
10003fcc:	10007e10 	.word	0x10007e10

10003fd0 <__wrap_free>:
10003fd0:	b510      	push	{r4, lr}
10003fd2:	f002 fbb9 	bl	10006748 <free>
10003fd6:	bd10      	pop	{r4, pc}

10003fd8 <__aeabi_mem_init>:
10003fd8:	4801      	ldr	r0, [pc, #4]	; (10003fe0 <__aeabi_mem_init+0x8>)
10003fda:	2104      	movs	r1, #4
10003fdc:	4b01      	ldr	r3, [pc, #4]	; (10003fe4 <__aeabi_mem_init+0xc>)
10003fde:	4718      	bx	r3
10003fe0:	200002c0 	.word	0x200002c0
10003fe4:	1000317d 	.word	0x1000317d

10003fe8 <__wrap_memset>:
10003fe8:	4b01      	ldr	r3, [pc, #4]	; (10003ff0 <__wrap_memset+0x8>)
10003fea:	681b      	ldr	r3, [r3, #0]
10003fec:	4718      	bx	r3
10003fee:	0000      	.short	0x0000
10003ff0:	200002c0 	.word	0x200002c0

10003ff4 <__wrap___aeabi_memcpy>:
10003ff4:	4b01      	ldr	r3, [pc, #4]	; (10003ffc <__wrap___aeabi_memcpy+0x8>)
10003ff6:	685b      	ldr	r3, [r3, #4]
10003ff8:	4718      	bx	r3
10003ffa:	0000      	.short	0x0000
10003ffc:	200002c0 	.word	0x200002c0

10004000 <stdio_out_chars_no_crlf>:
10004000:	b510      	push	{r4, lr}
10004002:	0003      	movs	r3, r0
10004004:	0008      	movs	r0, r1
10004006:	0011      	movs	r1, r2
10004008:	681b      	ldr	r3, [r3, #0]
1000400a:	4798      	blx	r3
1000400c:	bd10      	pop	{r4, pc}
	...

10004010 <stdio_out_chars_crlf>:
10004010:	b5f8      	push	{r3, r4, r5, r6, r7, lr}
10004012:	0007      	movs	r7, r0
10004014:	000d      	movs	r5, r1
10004016:	0016      	movs	r6, r2
10004018:	7d43      	ldrb	r3, [r0, #21]
1000401a:	2b00      	cmp	r3, #0
1000401c:	d002      	beq.n	10004024 <stdio_out_chars_crlf+0x14>
1000401e:	2400      	movs	r4, #0
10004020:	2000      	movs	r0, #0
10004022:	e00c      	b.n	1000403e <stdio_out_chars_crlf+0x2e>
10004024:	6803      	ldr	r3, [r0, #0]
10004026:	0011      	movs	r1, r2
10004028:	0028      	movs	r0, r5
1000402a:	4798      	blx	r3
1000402c:	e02d      	b.n	1000408a <stdio_out_chars_crlf+0x7a>
1000402e:	7d3b      	ldrb	r3, [r7, #20]
10004030:	e010      	b.n	10004054 <stdio_out_chars_crlf+0x44>
10004032:	2102      	movs	r1, #2
10004034:	4815      	ldr	r0, [pc, #84]	; (1000408c <stdio_out_chars_crlf+0x7c>)
10004036:	683b      	ldr	r3, [r7, #0]
10004038:	4798      	blx	r3
1000403a:	1c60      	adds	r0, r4, #1
1000403c:	3401      	adds	r4, #1
1000403e:	42b4      	cmp	r4, r6
10004040:	da14      	bge.n	1000406c <stdio_out_chars_crlf+0x5c>
10004042:	2c00      	cmp	r4, #0
10004044:	ddf3      	ble.n	1000402e <stdio_out_chars_crlf+0x1e>
10004046:	192b      	adds	r3, r5, r4
10004048:	3b01      	subs	r3, #1
1000404a:	781b      	ldrb	r3, [r3, #0]
1000404c:	3b0d      	subs	r3, #13
1000404e:	425a      	negs	r2, r3
10004050:	4153      	adcs	r3, r2
10004052:	b2db      	uxtb	r3, r3
10004054:	5d2a      	ldrb	r2, [r5, r4]
10004056:	2a0a      	cmp	r2, #10
10004058:	d1f0      	bne.n	1000403c <stdio_out_chars_crlf+0x2c>
1000405a:	2b00      	cmp	r3, #0
1000405c:	d1ee      	bne.n	1000403c <stdio_out_chars_crlf+0x2c>
1000405e:	42a0      	cmp	r0, r4
10004060:	dae7      	bge.n	10004032 <stdio_out_chars_crlf+0x22>
10004062:	1a21      	subs	r1, r4, r0
10004064:	1828      	adds	r0, r5, r0
10004066:	683b      	ldr	r3, [r7, #0]
10004068:	4798      	blx	r3
1000406a:	e7e2      	b.n	10004032 <stdio_out_chars_crlf+0x22>
1000406c:	42b0      	cmp	r0, r6
1000406e:	da03      	bge.n	10004078 <stdio_out_chars_crlf+0x68>
10004070:	1a31      	subs	r1, r6, r0
10004072:	1828      	adds	r0, r5, r0
10004074:	683b      	ldr	r3, [r7, #0]
10004076:	4798      	blx	r3
10004078:	2e00      	cmp	r6, #0
1000407a:	dd06      	ble.n	1000408a <stdio_out_chars_crlf+0x7a>
1000407c:	19ad      	adds	r5, r5, r6
1000407e:	3d01      	subs	r5, #1
10004080:	782b      	ldrb	r3, [r5, #0]
10004082:	3b0d      	subs	r3, #13
10004084:	425a      	negs	r2, r3
10004086:	4153      	adcs	r3, r2
10004088:	753b      	strb	r3, [r7, #20]
1000408a:	bdf8      	pop	{r3, r4, r5, r6, r7, pc}
1000408c:	10007ea8 	.word	0x10007ea8

10004090 <stdio_stack_buffer_flush>:
10004090:	b570      	push	{r4, r5, r6, lr}
10004092:	0005      	movs	r5, r0
10004094:	6803      	ldr	r3, [r0, #0]
10004096:	2b00      	cmp	r3, #0
10004098:	d016      	beq.n	100040c8 <stdio_stack_buffer_flush+0x38>
1000409a:	4b0c      	ldr	r3, [pc, #48]	; (100040cc <stdio_stack_buffer_flush+0x3c>)
1000409c:	681c      	ldr	r4, [r3, #0]
1000409e:	e005      	b.n	100040ac <stdio_stack_buffer_flush+0x1c>
100040a0:	0029      	movs	r1, r5
100040a2:	c904      	ldmia	r1!, {r2}
100040a4:	0020      	movs	r0, r4
100040a6:	f7ff ffb3 	bl	10004010 <stdio_out_chars_crlf>
100040aa:	6924      	ldr	r4, [r4, #16]
100040ac:	2c00      	cmp	r4, #0
100040ae:	d009      	beq.n	100040c4 <stdio_stack_buffer_flush+0x34>
100040b0:	6823      	ldr	r3, [r4, #0]
100040b2:	2b00      	cmp	r3, #0
100040b4:	d0f9      	beq.n	100040aa <stdio_stack_buffer_flush+0x1a>
100040b6:	4b06      	ldr	r3, [pc, #24]	; (100040d0 <stdio_stack_buffer_flush+0x40>)
100040b8:	681b      	ldr	r3, [r3, #0]
100040ba:	2b00      	cmp	r3, #0
100040bc:	d0f0      	beq.n	100040a0 <stdio_stack_buffer_flush+0x10>
100040be:	42a3      	cmp	r3, r4
100040c0:	d1f3      	bne.n	100040aa <stdio_stack_buffer_flush+0x1a>
100040c2:	e7ed      	b.n	100040a0 <stdio_stack_buffer_flush+0x10>
100040c4:	2300      	movs	r3, #0
100040c6:	602b      	str	r3, [r5, #0]
100040c8:	bd70      	pop	{r4, r5, r6, pc}
100040ca:	46c0      	nop			; (mov r8, r8)
100040cc:	20000eb4 	.word	0x20000eb4
100040d0:	20000ebc 	.word	0x20000ebc

100040d4 <stdio_buffered_printer>:
100040d4:	b570      	push	{r4, r5, r6, lr}
100040d6:	0005      	movs	r5, r0
100040d8:	000c      	movs	r4, r1
100040da:	680b      	ldr	r3, [r1, #0]
100040dc:	2b80      	cmp	r3, #128	; 0x80
100040de:	d005      	beq.n	100040ec <stdio_buffered_printer+0x18>
100040e0:	6821      	ldr	r1, [r4, #0]
100040e2:	1c4b      	adds	r3, r1, #1
100040e4:	6023      	str	r3, [r4, #0]
100040e6:	1864      	adds	r4, r4, r1
100040e8:	7125      	strb	r5, [r4, #4]
100040ea:	bd70      	pop	{r4, r5, r6, pc}
100040ec:	0008      	movs	r0, r1
100040ee:	f7ff ffcf 	bl	10004090 <stdio_stack_buffer_flush>
100040f2:	e7f5      	b.n	100040e0 <stdio_buffered_printer+0xc>

100040f4 <stdout_serialize_begin>:
100040f4:	b510      	push	{r4, lr}
100040f6:	f7fd f971 	bl	100013dc <time_us_64>
100040fa:	0002      	movs	r2, r0
100040fc:	1e0b      	subs	r3, r1, #0
100040fe:	db0b      	blt.n	10004118 <stdout_serialize_begin+0x24>
10004100:	480d      	ldr	r0, [pc, #52]	; (10004138 <stdout_serialize_begin+0x44>)
10004102:	2100      	movs	r1, #0
10004104:	1812      	adds	r2, r2, r0
10004106:	414b      	adcs	r3, r1
10004108:	2b00      	cmp	r3, #0
1000410a:	db0b      	blt.n	10004124 <stdout_serialize_begin+0x30>
1000410c:	2b00      	cmp	r3, #0
1000410e:	db0d      	blt.n	1000412c <stdout_serialize_begin+0x38>
10004110:	480a      	ldr	r0, [pc, #40]	; (1000413c <stdout_serialize_begin+0x48>)
10004112:	f002 ff85 	bl	10007020 <__mutex_try_enter_block_until_veneer>
10004116:	bd10      	pop	{r4, pc}
10004118:	4b09      	ldr	r3, [pc, #36]	; (10004140 <stdout_serialize_begin+0x4c>)
1000411a:	4a0a      	ldr	r2, [pc, #40]	; (10004144 <stdout_serialize_begin+0x50>)
1000411c:	213f      	movs	r1, #63	; 0x3f
1000411e:	480a      	ldr	r0, [pc, #40]	; (10004148 <stdout_serialize_begin+0x54>)
10004120:	f7fd fec2 	bl	10001ea8 <__assert_func>
10004124:	2201      	movs	r2, #1
10004126:	4252      	negs	r2, r2
10004128:	4b08      	ldr	r3, [pc, #32]	; (1000414c <stdout_serialize_begin+0x58>)
1000412a:	e7ef      	b.n	1000410c <stdout_serialize_begin+0x18>
1000412c:	4b04      	ldr	r3, [pc, #16]	; (10004140 <stdout_serialize_begin+0x4c>)
1000412e:	4a05      	ldr	r2, [pc, #20]	; (10004144 <stdout_serialize_begin+0x50>)
10004130:	213f      	movs	r1, #63	; 0x3f
10004132:	4805      	ldr	r0, [pc, #20]	; (10004148 <stdout_serialize_begin+0x54>)
10004134:	f7fd feb8 	bl	10001ea8 <__assert_func>
10004138:	000f4240 	.word	0x000f4240
1000413c:	20000b30 	.word	0x20000b30
10004140:	10007330 	.word	0x10007330
10004144:	10007e90 	.word	0x10007e90
10004148:	1000734c 	.word	0x1000734c
1000414c:	7fffffff 	.word	0x7fffffff

10004150 <stdout_serialize_end>:
10004150:	b510      	push	{r4, lr}
10004152:	4802      	ldr	r0, [pc, #8]	; (1000415c <stdout_serialize_end+0xc>)
10004154:	f002 ff4c 	bl	10006ff0 <__mutex_exit_veneer>
10004158:	bd10      	pop	{r4, pc}
1000415a:	46c0      	nop			; (mov r8, r8)
1000415c:	20000b30 	.word	0x20000b30

10004160 <stdio_put_string>:
10004160:	b5f0      	push	{r4, r5, r6, r7, lr}
10004162:	46ce      	mov	lr, r9
10004164:	4647      	mov	r7, r8
10004166:	b580      	push	{r7, lr}
10004168:	b083      	sub	sp, #12
1000416a:	0006      	movs	r6, r0
1000416c:	000d      	movs	r5, r1
1000416e:	4690      	mov	r8, r2
10004170:	001c      	movs	r4, r3
10004172:	f7ff ffbf 	bl	100040f4 <stdout_serialize_begin>
10004176:	4681      	mov	r9, r0
10004178:	1c6b      	adds	r3, r5, #1
1000417a:	d005      	beq.n	10004188 <stdio_put_string+0x28>
1000417c:	2c00      	cmp	r4, #0
1000417e:	d008      	beq.n	10004192 <stdio_put_string+0x32>
10004180:	4f19      	ldr	r7, [pc, #100]	; (100041e8 <stdio_put_string+0x88>)
10004182:	4b1a      	ldr	r3, [pc, #104]	; (100041ec <stdio_put_string+0x8c>)
10004184:	681c      	ldr	r4, [r3, #0]
10004186:	e007      	b.n	10004198 <stdio_put_string+0x38>
10004188:	0030      	movs	r0, r6
1000418a:	f002 fdcb 	bl	10006d24 <strlen>
1000418e:	0005      	movs	r5, r0
10004190:	e7f4      	b.n	1000417c <stdio_put_string+0x1c>
10004192:	4f17      	ldr	r7, [pc, #92]	; (100041f0 <stdio_put_string+0x90>)
10004194:	e7f5      	b.n	10004182 <stdio_put_string+0x22>
10004196:	6924      	ldr	r4, [r4, #16]
10004198:	2c00      	cmp	r4, #0
1000419a:	d017      	beq.n	100041cc <stdio_put_string+0x6c>
1000419c:	6823      	ldr	r3, [r4, #0]
1000419e:	2b00      	cmp	r3, #0
100041a0:	d0f9      	beq.n	10004196 <stdio_put_string+0x36>
100041a2:	4b14      	ldr	r3, [pc, #80]	; (100041f4 <stdio_put_string+0x94>)
100041a4:	681b      	ldr	r3, [r3, #0]
100041a6:	2b00      	cmp	r3, #0
100041a8:	d001      	beq.n	100041ae <stdio_put_string+0x4e>
100041aa:	42a3      	cmp	r3, r4
100041ac:	d1f3      	bne.n	10004196 <stdio_put_string+0x36>
100041ae:	002a      	movs	r2, r5
100041b0:	0031      	movs	r1, r6
100041b2:	0020      	movs	r0, r4
100041b4:	47b8      	blx	r7
100041b6:	4643      	mov	r3, r8
100041b8:	2b00      	cmp	r3, #0
100041ba:	d0ec      	beq.n	10004196 <stdio_put_string+0x36>
100041bc:	466b      	mov	r3, sp
100041be:	1dd9      	adds	r1, r3, #7
100041c0:	230a      	movs	r3, #10
100041c2:	700b      	strb	r3, [r1, #0]
100041c4:	2201      	movs	r2, #1
100041c6:	0020      	movs	r0, r4
100041c8:	47b8      	blx	r7
100041ca:	e7e4      	b.n	10004196 <stdio_put_string+0x36>
100041cc:	464b      	mov	r3, r9
100041ce:	2b00      	cmp	r3, #0
100041d0:	d107      	bne.n	100041e2 <stdio_put_string+0x82>
100041d2:	1e6b      	subs	r3, r5, #1
100041d4:	419d      	sbcs	r5, r3
100041d6:	b2e8      	uxtb	r0, r5
100041d8:	b003      	add	sp, #12
100041da:	bcc0      	pop	{r6, r7}
100041dc:	46b9      	mov	r9, r7
100041de:	46b0      	mov	r8, r6
100041e0:	bdf0      	pop	{r4, r5, r6, r7, pc}
100041e2:	f7ff ffb5 	bl	10004150 <stdout_serialize_end>
100041e6:	e7f4      	b.n	100041d2 <stdio_put_string+0x72>
100041e8:	10004001 	.word	0x10004001
100041ec:	20000eb4 	.word	0x20000eb4
100041f0:	10004011 	.word	0x10004011
100041f4:	20000ebc 	.word	0x20000ebc

100041f8 <stdio_set_driver_enabled>:
100041f8:	4a09      	ldr	r2, [pc, #36]	; (10004220 <stdio_set_driver_enabled+0x28>)
100041fa:	e001      	b.n	10004200 <stdio_set_driver_enabled+0x8>
100041fc:	3310      	adds	r3, #16
100041fe:	001a      	movs	r2, r3
10004200:	6813      	ldr	r3, [r2, #0]
10004202:	2b00      	cmp	r3, #0
10004204:	d008      	beq.n	10004218 <stdio_set_driver_enabled+0x20>
10004206:	4283      	cmp	r3, r0
10004208:	d1f8      	bne.n	100041fc <stdio_set_driver_enabled+0x4>
1000420a:	2900      	cmp	r1, #0
1000420c:	d107      	bne.n	1000421e <stdio_set_driver_enabled+0x26>
1000420e:	6903      	ldr	r3, [r0, #16]
10004210:	6013      	str	r3, [r2, #0]
10004212:	2300      	movs	r3, #0
10004214:	6103      	str	r3, [r0, #16]
10004216:	e002      	b.n	1000421e <stdio_set_driver_enabled+0x26>
10004218:	2900      	cmp	r1, #0
1000421a:	d000      	beq.n	1000421e <stdio_set_driver_enabled+0x26>
1000421c:	6010      	str	r0, [r2, #0]
1000421e:	4770      	bx	lr
10004220:	20000eb4 	.word	0x20000eb4

10004224 <stdio_flush>:
10004224:	b510      	push	{r4, lr}
10004226:	4b06      	ldr	r3, [pc, #24]	; (10004240 <stdio_flush+0x1c>)
10004228:	681c      	ldr	r4, [r3, #0]
1000422a:	e001      	b.n	10004230 <stdio_flush+0xc>
1000422c:	4798      	blx	r3
1000422e:	6924      	ldr	r4, [r4, #16]
10004230:	2c00      	cmp	r4, #0
10004232:	d003      	beq.n	1000423c <stdio_flush+0x18>
10004234:	6863      	ldr	r3, [r4, #4]
10004236:	2b00      	cmp	r3, #0
10004238:	d1f8      	bne.n	1000422c <stdio_flush+0x8>
1000423a:	e7f8      	b.n	1000422e <stdio_flush+0xa>
1000423c:	bd10      	pop	{r4, pc}
1000423e:	46c0      	nop			; (mov r8, r8)
10004240:	20000eb4 	.word	0x20000eb4

10004244 <__wrap_puts>:
10004244:	b570      	push	{r4, r5, r6, lr}
10004246:	0005      	movs	r5, r0
10004248:	f002 fd6c 	bl	10006d24 <strlen>
1000424c:	0004      	movs	r4, r0
1000424e:	2300      	movs	r3, #0
10004250:	2201      	movs	r2, #1
10004252:	0001      	movs	r1, r0
10004254:	0028      	movs	r0, r5
10004256:	f7ff ff83 	bl	10004160 <stdio_put_string>
1000425a:	f7ff ffe3 	bl	10004224 <stdio_flush>
1000425e:	0020      	movs	r0, r4
10004260:	bd70      	pop	{r4, r5, r6, pc}
	...

10004264 <__wrap_vprintf>:
10004264:	b570      	push	{r4, r5, r6, lr}
10004266:	b0a2      	sub	sp, #136	; 0x88
10004268:	0004      	movs	r4, r0
1000426a:	000e      	movs	r6, r1
1000426c:	f7ff ff42 	bl	100040f4 <stdout_serialize_begin>
10004270:	0005      	movs	r5, r0
10004272:	2300      	movs	r3, #0
10004274:	9301      	str	r3, [sp, #4]
10004276:	0033      	movs	r3, r6
10004278:	0022      	movs	r2, r4
1000427a:	a901      	add	r1, sp, #4
1000427c:	4808      	ldr	r0, [pc, #32]	; (100042a0 <__wrap_vprintf+0x3c>)
1000427e:	f7fe ff55 	bl	1000312c <vfctprintf>
10004282:	0004      	movs	r4, r0
10004284:	a801      	add	r0, sp, #4
10004286:	f7ff ff03 	bl	10004090 <stdio_stack_buffer_flush>
1000428a:	f7ff ffcb 	bl	10004224 <stdio_flush>
1000428e:	2d00      	cmp	r5, #0
10004290:	d102      	bne.n	10004298 <__wrap_vprintf+0x34>
10004292:	0020      	movs	r0, r4
10004294:	b022      	add	sp, #136	; 0x88
10004296:	bd70      	pop	{r4, r5, r6, pc}
10004298:	f7ff ff5a 	bl	10004150 <stdout_serialize_end>
1000429c:	e7f9      	b.n	10004292 <__wrap_vprintf+0x2e>
1000429e:	46c0      	nop			; (mov r8, r8)
100042a0:	100040d5 	.word	0x100040d5

100042a4 <__wrap_printf>:
100042a4:	b40f      	push	{r0, r1, r2, r3}
100042a6:	b500      	push	{lr}
100042a8:	b083      	sub	sp, #12
100042aa:	a904      	add	r1, sp, #16
100042ac:	c901      	ldmia	r1!, {r0}
100042ae:	9101      	str	r1, [sp, #4]
100042b0:	f7ff ffd8 	bl	10004264 <__wrap_vprintf>
100042b4:	b003      	add	sp, #12
100042b6:	bc08      	pop	{r3}
100042b8:	b004      	add	sp, #16
100042ba:	4718      	bx	r3

100042bc <stdio_init_all>:
100042bc:	b510      	push	{r4, lr}
100042be:	f000 f8f9 	bl	100044b4 <stdio_uart_init>
100042c2:	2001      	movs	r0, #1
100042c4:	bd10      	pop	{r4, pc}
	...

100042c8 <stdio_uart_out_chars>:
100042c8:	b5f0      	push	{r4, r5, r6, r7, lr}
100042ca:	b083      	sub	sp, #12
100042cc:	0005      	movs	r5, r0
100042ce:	000e      	movs	r6, r1
100042d0:	2400      	movs	r4, #0
100042d2:	e00f      	b.n	100042f4 <stdio_uart_out_chars+0x2c>
100042d4:	466b      	mov	r3, sp
100042d6:	1dd9      	adds	r1, r3, #7
100042d8:	230d      	movs	r3, #13
100042da:	700b      	strb	r3, [r1, #0]
100042dc:	2000      	movs	r0, #0
100042de:	2800      	cmp	r0, #0
100042e0:	d116      	bne.n	10004310 <stdio_uart_out_chars+0x48>
100042e2:	6993      	ldr	r3, [r2, #24]
100042e4:	069b      	lsls	r3, r3, #26
100042e6:	d4fc      	bmi.n	100042e2 <stdio_uart_out_chars+0x1a>
100042e8:	780b      	ldrb	r3, [r1, #0]
100042ea:	6013      	str	r3, [r2, #0]
100042ec:	3001      	adds	r0, #1
100042ee:	3101      	adds	r1, #1
100042f0:	e7f5      	b.n	100042de <stdio_uart_out_chars+0x16>
100042f2:	3401      	adds	r4, #1
100042f4:	42b4      	cmp	r4, r6
100042f6:	da19      	bge.n	1000432c <stdio_uart_out_chars+0x64>
100042f8:	4b0d      	ldr	r3, [pc, #52]	; (10004330 <stdio_uart_out_chars+0x68>)
100042fa:	681a      	ldr	r2, [r3, #0]
100042fc:	5d2f      	ldrb	r7, [r5, r4]
100042fe:	4b0d      	ldr	r3, [pc, #52]	; (10004334 <stdio_uart_out_chars+0x6c>)
10004300:	18d3      	adds	r3, r2, r3
10004302:	4259      	negs	r1, r3
10004304:	414b      	adcs	r3, r1
10004306:	005b      	lsls	r3, r3, #1
10004308:	490b      	ldr	r1, [pc, #44]	; (10004338 <stdio_uart_out_chars+0x70>)
1000430a:	5e5b      	ldrsh	r3, [r3, r1]
1000430c:	42bb      	cmp	r3, r7
1000430e:	d0e1      	beq.n	100042d4 <stdio_uart_out_chars+0xc>
10004310:	466b      	mov	r3, sp
10004312:	1dd9      	adds	r1, r3, #7
10004314:	700f      	strb	r7, [r1, #0]
10004316:	2000      	movs	r0, #0
10004318:	2800      	cmp	r0, #0
1000431a:	d1ea      	bne.n	100042f2 <stdio_uart_out_chars+0x2a>
1000431c:	6993      	ldr	r3, [r2, #24]
1000431e:	069b      	lsls	r3, r3, #26
10004320:	d4fc      	bmi.n	1000431c <stdio_uart_out_chars+0x54>
10004322:	780b      	ldrb	r3, [r1, #0]
10004324:	6013      	str	r3, [r2, #0]
10004326:	3001      	adds	r0, #1
10004328:	3101      	adds	r1, #1
1000432a:	e7f5      	b.n	10004318 <stdio_uart_out_chars+0x50>
1000432c:	b003      	add	sp, #12
1000432e:	bdf0      	pop	{r4, r5, r6, r7, pc}
10004330:	200010f0 	.word	0x200010f0
10004334:	bffc8000 	.word	0xbffc8000
10004338:	200010ec 	.word	0x200010ec

1000433c <stdio_uart_in_chars>:
1000433c:	b5f0      	push	{r4, r5, r6, r7, lr}
1000433e:	b083      	sub	sp, #12
10004340:	0006      	movs	r6, r0
10004342:	000f      	movs	r7, r1
10004344:	2500      	movs	r5, #0
10004346:	e004      	b.n	10004352 <stdio_uart_in_chars+0x16>
10004348:	466b      	mov	r3, sp
1000434a:	3307      	adds	r3, #7
1000434c:	781b      	ldrb	r3, [r3, #0]
1000434e:	702b      	strb	r3, [r5, #0]
10004350:	0025      	movs	r5, r4
10004352:	42bd      	cmp	r5, r7
10004354:	da15      	bge.n	10004382 <stdio_uart_in_chars+0x46>
10004356:	4b17      	ldr	r3, [pc, #92]	; (100043b4 <stdio_uart_in_chars+0x78>)
10004358:	681a      	ldr	r2, [r3, #0]
1000435a:	6993      	ldr	r3, [r2, #24]
1000435c:	2410      	movs	r4, #16
1000435e:	0021      	movs	r1, r4
10004360:	4019      	ands	r1, r3
10004362:	421c      	tst	r4, r3
10004364:	d10d      	bne.n	10004382 <stdio_uart_in_chars+0x46>
10004366:	1c6c      	adds	r4, r5, #1
10004368:	1975      	adds	r5, r6, r5
1000436a:	466b      	mov	r3, sp
1000436c:	1dd8      	adds	r0, r3, #7
1000436e:	2900      	cmp	r1, #0
10004370:	d1ea      	bne.n	10004348 <stdio_uart_in_chars+0xc>
10004372:	6993      	ldr	r3, [r2, #24]
10004374:	06db      	lsls	r3, r3, #27
10004376:	d4fc      	bmi.n	10004372 <stdio_uart_in_chars+0x36>
10004378:	6813      	ldr	r3, [r2, #0]
1000437a:	7003      	strb	r3, [r0, #0]
1000437c:	3101      	adds	r1, #1
1000437e:	3001      	adds	r0, #1
10004380:	e7f5      	b.n	1000436e <stdio_uart_in_chars+0x32>
10004382:	4b0d      	ldr	r3, [pc, #52]	; (100043b8 <stdio_uart_in_chars+0x7c>)
10004384:	681b      	ldr	r3, [r3, #0]
10004386:	2b00      	cmp	r3, #0
10004388:	d00c      	beq.n	100043a4 <stdio_uart_in_chars+0x68>
1000438a:	4b0a      	ldr	r3, [pc, #40]	; (100043b4 <stdio_uart_in_chars+0x78>)
1000438c:	681a      	ldr	r2, [r3, #0]
1000438e:	2350      	movs	r3, #80	; 0x50
10004390:	6393      	str	r3, [r2, #56]	; 0x38
10004392:	0011      	movs	r1, r2
10004394:	3134      	adds	r1, #52	; 0x34
10004396:	6b53      	ldr	r3, [r2, #52]	; 0x34
10004398:	2238      	movs	r2, #56	; 0x38
1000439a:	401a      	ands	r2, r3
1000439c:	2380      	movs	r3, #128	; 0x80
1000439e:	015b      	lsls	r3, r3, #5
100043a0:	430b      	orrs	r3, r1
100043a2:	601a      	str	r2, [r3, #0]
100043a4:	2d00      	cmp	r5, #0
100043a6:	d002      	beq.n	100043ae <stdio_uart_in_chars+0x72>
100043a8:	0028      	movs	r0, r5
100043aa:	b003      	add	sp, #12
100043ac:	bdf0      	pop	{r4, r5, r6, r7, pc}
100043ae:	3d03      	subs	r5, #3
100043b0:	e7fa      	b.n	100043a8 <stdio_uart_in_chars+0x6c>
100043b2:	46c0      	nop			; (mov r8, r8)
100043b4:	200010f0 	.word	0x200010f0
100043b8:	20000e44 	.word	0x20000e44

100043bc <on_uart_rx>:
100043bc:	b510      	push	{r4, lr}
100043be:	4b06      	ldr	r3, [pc, #24]	; (100043d8 <on_uart_rx+0x1c>)
100043c0:	681b      	ldr	r3, [r3, #0]
100043c2:	2b00      	cmp	r3, #0
100043c4:	d006      	beq.n	100043d4 <on_uart_rx+0x18>
100043c6:	4a05      	ldr	r2, [pc, #20]	; (100043dc <on_uart_rx+0x20>)
100043c8:	6812      	ldr	r2, [r2, #0]
100043ca:	2100      	movs	r1, #0
100043cc:	6391      	str	r1, [r2, #56]	; 0x38
100043ce:	4a04      	ldr	r2, [pc, #16]	; (100043e0 <on_uart_rx+0x24>)
100043d0:	6810      	ldr	r0, [r2, #0]
100043d2:	4798      	blx	r3
100043d4:	bd10      	pop	{r4, pc}
100043d6:	46c0      	nop			; (mov r8, r8)
100043d8:	20000e44 	.word	0x20000e44
100043dc:	200010f0 	.word	0x200010f0
100043e0:	20000e48 	.word	0x20000e48

100043e4 <stdio_uart_set_chars_available_callback>:
100043e4:	b570      	push	{r4, r5, r6, lr}
100043e6:	0004      	movs	r4, r0
100043e8:	000e      	movs	r6, r1
100043ea:	4b1c      	ldr	r3, [pc, #112]	; (1000445c <stdio_uart_set_chars_available_callback+0x78>)
100043ec:	681b      	ldr	r3, [r3, #0]
100043ee:	4a1c      	ldr	r2, [pc, #112]	; (10004460 <stdio_uart_set_chars_available_callback+0x7c>)
100043f0:	1898      	adds	r0, r3, r2
100043f2:	4242      	negs	r2, r0
100043f4:	4150      	adcs	r0, r2
100043f6:	3014      	adds	r0, #20
100043f8:	0005      	movs	r5, r0
100043fa:	2c00      	cmp	r4, #0
100043fc:	d003      	beq.n	10004406 <stdio_uart_set_chars_available_callback+0x22>
100043fe:	4a19      	ldr	r2, [pc, #100]	; (10004464 <stdio_uart_set_chars_available_callback+0x80>)
10004400:	6812      	ldr	r2, [r2, #0]
10004402:	2a00      	cmp	r2, #0
10004404:	d006      	beq.n	10004414 <stdio_uart_set_chars_available_callback+0x30>
10004406:	2c00      	cmp	r4, #0
10004408:	d019      	beq.n	1000443e <stdio_uart_set_chars_available_callback+0x5a>
1000440a:	4b16      	ldr	r3, [pc, #88]	; (10004464 <stdio_uart_set_chars_available_callback+0x80>)
1000440c:	601c      	str	r4, [r3, #0]
1000440e:	4b16      	ldr	r3, [pc, #88]	; (10004468 <stdio_uart_set_chars_available_callback+0x84>)
10004410:	601e      	str	r6, [r3, #0]
10004412:	bd70      	pop	{r4, r5, r6, pc}
10004414:	4915      	ldr	r1, [pc, #84]	; (1000446c <stdio_uart_set_chars_available_callback+0x88>)
10004416:	f7fc f8eb 	bl	100005f0 <irq_set_exclusive_handler>
1000441a:	2101      	movs	r1, #1
1000441c:	0028      	movs	r0, r5
1000441e:	f7fc f8d7 	bl	100005d0 <irq_set_enabled>
10004422:	4b0e      	ldr	r3, [pc, #56]	; (1000445c <stdio_uart_set_chars_available_callback+0x78>)
10004424:	681a      	ldr	r2, [r3, #0]
10004426:	2350      	movs	r3, #80	; 0x50
10004428:	6393      	str	r3, [r2, #56]	; 0x38
1000442a:	0011      	movs	r1, r2
1000442c:	3134      	adds	r1, #52	; 0x34
1000442e:	6b53      	ldr	r3, [r2, #52]	; 0x34
10004430:	2238      	movs	r2, #56	; 0x38
10004432:	401a      	ands	r2, r3
10004434:	2380      	movs	r3, #128	; 0x80
10004436:	015b      	lsls	r3, r3, #5
10004438:	430b      	orrs	r3, r1
1000443a:	601a      	str	r2, [r3, #0]
1000443c:	e7e5      	b.n	1000440a <stdio_uart_set_chars_available_callback+0x26>
1000443e:	4a09      	ldr	r2, [pc, #36]	; (10004464 <stdio_uart_set_chars_available_callback+0x80>)
10004440:	6812      	ldr	r2, [r2, #0]
10004442:	2a00      	cmp	r2, #0
10004444:	d0e1      	beq.n	1000440a <stdio_uart_set_chars_available_callback+0x26>
10004446:	2200      	movs	r2, #0
10004448:	639a      	str	r2, [r3, #56]	; 0x38
1000444a:	2100      	movs	r1, #0
1000444c:	0028      	movs	r0, r5
1000444e:	f7fc f8bf 	bl	100005d0 <irq_set_enabled>
10004452:	4906      	ldr	r1, [pc, #24]	; (1000446c <stdio_uart_set_chars_available_callback+0x88>)
10004454:	0028      	movs	r0, r5
10004456:	f7fc f8f5 	bl	10000644 <irq_remove_handler>
1000445a:	e7d6      	b.n	1000440a <stdio_uart_set_chars_available_callback+0x26>
1000445c:	200010f0 	.word	0x200010f0
10004460:	bffc8000 	.word	0xbffc8000
10004464:	20000e44 	.word	0x20000e44
10004468:	20000e48 	.word	0x20000e48
1000446c:	100043bd 	.word	0x100043bd

10004470 <stdio_uart_init_full>:
10004470:	b570      	push	{r4, r5, r6, lr}
10004472:	000d      	movs	r5, r1
10004474:	001c      	movs	r4, r3
10004476:	4b0d      	ldr	r3, [pc, #52]	; (100044ac <stdio_uart_init_full+0x3c>)
10004478:	6018      	str	r0, [r3, #0]
1000447a:	2a00      	cmp	r2, #0
1000447c:	da0b      	bge.n	10004496 <stdio_uart_init_full+0x26>
1000447e:	2c00      	cmp	r4, #0
10004480:	da0e      	bge.n	100044a0 <stdio_uart_init_full+0x30>
10004482:	4b0a      	ldr	r3, [pc, #40]	; (100044ac <stdio_uart_init_full+0x3c>)
10004484:	6818      	ldr	r0, [r3, #0]
10004486:	0029      	movs	r1, r5
10004488:	f7fd faf2 	bl	10001a70 <uart_init>
1000448c:	2101      	movs	r1, #1
1000448e:	4808      	ldr	r0, [pc, #32]	; (100044b0 <stdio_uart_init_full+0x40>)
10004490:	f7ff feb2 	bl	100041f8 <stdio_set_driver_enabled>
10004494:	bd70      	pop	{r4, r5, r6, pc}
10004496:	2102      	movs	r1, #2
10004498:	0010      	movs	r0, r2
1000449a:	f7fb ffa9 	bl	100003f0 <gpio_set_function>
1000449e:	e7ee      	b.n	1000447e <stdio_uart_init_full+0xe>
100044a0:	2102      	movs	r1, #2
100044a2:	0020      	movs	r0, r4
100044a4:	f7fb ffa4 	bl	100003f0 <gpio_set_function>
100044a8:	e7eb      	b.n	10004482 <stdio_uart_init_full+0x12>
100044aa:	46c0      	nop			; (mov r8, r8)
100044ac:	200010f0 	.word	0x200010f0
100044b0:	200002d0 	.word	0x200002d0

100044b4 <stdio_uart_init>:
100044b4:	b510      	push	{r4, lr}
100044b6:	4b06      	ldr	r3, [pc, #24]	; (100044d0 <stdio_uart_init+0x1c>)
100044b8:	781b      	ldrb	r3, [r3, #0]
100044ba:	4b06      	ldr	r3, [pc, #24]	; (100044d4 <stdio_uart_init+0x20>)
100044bc:	781b      	ldrb	r3, [r3, #0]
100044be:	21e1      	movs	r1, #225	; 0xe1
100044c0:	2301      	movs	r3, #1
100044c2:	2200      	movs	r2, #0
100044c4:	0249      	lsls	r1, r1, #9
100044c6:	4804      	ldr	r0, [pc, #16]	; (100044d8 <stdio_uart_init+0x24>)
100044c8:	f7ff ffd2 	bl	10004470 <stdio_uart_init_full>
100044cc:	bd10      	pop	{r4, pc}
100044ce:	46c0      	nop			; (mov r8, r8)
100044d0:	10007f48 	.word	0x10007f48
100044d4:	10007f4c 	.word	0x10007f4c
100044d8:	40034000 	.word	0x40034000

100044dc <prvIsQueueFull>:
100044dc:	b510      	push	{r4, lr}
100044de:	0004      	movs	r4, r0
100044e0:	f002 f85e 	bl	100065a0 <vPortEnterCritical>
100044e4:	6ba2      	ldr	r2, [r4, #56]	; 0x38
100044e6:	6be3      	ldr	r3, [r4, #60]	; 0x3c
100044e8:	429a      	cmp	r2, r3
100044ea:	d004      	beq.n	100044f6 <prvIsQueueFull+0x1a>
100044ec:	2400      	movs	r4, #0
100044ee:	f002 f863 	bl	100065b8 <vPortExitCritical>
100044f2:	0020      	movs	r0, r4
100044f4:	bd10      	pop	{r4, pc}
100044f6:	2401      	movs	r4, #1
100044f8:	e7f9      	b.n	100044ee <prvIsQueueFull+0x12>

100044fa <prvIsQueueEmpty>:
100044fa:	b510      	push	{r4, lr}
100044fc:	0004      	movs	r4, r0
100044fe:	f002 f84f 	bl	100065a0 <vPortEnterCritical>
10004502:	6ba3      	ldr	r3, [r4, #56]	; 0x38
10004504:	2b00      	cmp	r3, #0
10004506:	d104      	bne.n	10004512 <prvIsQueueEmpty+0x18>
10004508:	2401      	movs	r4, #1
1000450a:	f002 f855 	bl	100065b8 <vPortExitCritical>
1000450e:	0020      	movs	r0, r4
10004510:	bd10      	pop	{r4, pc}
10004512:	2400      	movs	r4, #0
10004514:	e7f9      	b.n	1000450a <prvIsQueueEmpty+0x10>

10004516 <prvCopyDataToQueue>:
10004516:	b570      	push	{r4, r5, r6, lr}
10004518:	0004      	movs	r4, r0
1000451a:	0016      	movs	r6, r2
1000451c:	6b85      	ldr	r5, [r0, #56]	; 0x38
1000451e:	6c02      	ldr	r2, [r0, #64]	; 0x40
10004520:	2a00      	cmp	r2, #0
10004522:	d020      	beq.n	10004566 <prvCopyDataToQueue+0x50>
10004524:	2e00      	cmp	r6, #0
10004526:	d10d      	bne.n	10004544 <prvCopyDataToQueue+0x2e>
10004528:	6840      	ldr	r0, [r0, #4]
1000452a:	f7ff fd63 	bl	10003ff4 <__wrap___aeabi_memcpy>
1000452e:	6863      	ldr	r3, [r4, #4]
10004530:	6c22      	ldr	r2, [r4, #64]	; 0x40
10004532:	4694      	mov	ip, r2
10004534:	4463      	add	r3, ip
10004536:	6063      	str	r3, [r4, #4]
10004538:	68a2      	ldr	r2, [r4, #8]
1000453a:	4293      	cmp	r3, r2
1000453c:	d313      	bcc.n	10004566 <prvCopyDataToQueue+0x50>
1000453e:	6823      	ldr	r3, [r4, #0]
10004540:	6063      	str	r3, [r4, #4]
10004542:	e010      	b.n	10004566 <prvCopyDataToQueue+0x50>
10004544:	68c0      	ldr	r0, [r0, #12]
10004546:	f7ff fd55 	bl	10003ff4 <__wrap___aeabi_memcpy>
1000454a:	6c23      	ldr	r3, [r4, #64]	; 0x40
1000454c:	425a      	negs	r2, r3
1000454e:	68e1      	ldr	r1, [r4, #12]
10004550:	1acb      	subs	r3, r1, r3
10004552:	60e3      	str	r3, [r4, #12]
10004554:	6821      	ldr	r1, [r4, #0]
10004556:	428b      	cmp	r3, r1
10004558:	d203      	bcs.n	10004562 <prvCopyDataToQueue+0x4c>
1000455a:	68a3      	ldr	r3, [r4, #8]
1000455c:	469c      	mov	ip, r3
1000455e:	4462      	add	r2, ip
10004560:	60e2      	str	r2, [r4, #12]
10004562:	2e02      	cmp	r6, #2
10004564:	d003      	beq.n	1000456e <prvCopyDataToQueue+0x58>
10004566:	3501      	adds	r5, #1
10004568:	63a5      	str	r5, [r4, #56]	; 0x38
1000456a:	2000      	movs	r0, #0
1000456c:	bd70      	pop	{r4, r5, r6, pc}
1000456e:	2d00      	cmp	r5, #0
10004570:	d0f9      	beq.n	10004566 <prvCopyDataToQueue+0x50>
10004572:	3d01      	subs	r5, #1
10004574:	e7f7      	b.n	10004566 <prvCopyDataToQueue+0x50>

10004576 <prvCopyDataFromQueue>:
10004576:	b510      	push	{r4, lr}
10004578:	0003      	movs	r3, r0
1000457a:	0008      	movs	r0, r1
1000457c:	6c1a      	ldr	r2, [r3, #64]	; 0x40
1000457e:	2a00      	cmp	r2, #0
10004580:	d00a      	beq.n	10004598 <prvCopyDataFromQueue+0x22>
10004582:	68d9      	ldr	r1, [r3, #12]
10004584:	1889      	adds	r1, r1, r2
10004586:	60d9      	str	r1, [r3, #12]
10004588:	689c      	ldr	r4, [r3, #8]
1000458a:	42a1      	cmp	r1, r4
1000458c:	d301      	bcc.n	10004592 <prvCopyDataFromQueue+0x1c>
1000458e:	6819      	ldr	r1, [r3, #0]
10004590:	60d9      	str	r1, [r3, #12]
10004592:	68d9      	ldr	r1, [r3, #12]
10004594:	f7ff fd2e 	bl	10003ff4 <__wrap___aeabi_memcpy>
10004598:	bd10      	pop	{r4, pc}

1000459a <prvUnlockQueue>:
1000459a:	b570      	push	{r4, r5, r6, lr}
1000459c:	0005      	movs	r5, r0
1000459e:	f001 ffff 	bl	100065a0 <vPortEnterCritical>
100045a2:	2345      	movs	r3, #69	; 0x45
100045a4:	5cec      	ldrb	r4, [r5, r3]
100045a6:	b264      	sxtb	r4, r4
100045a8:	e001      	b.n	100045ae <prvUnlockQueue+0x14>
100045aa:	3c01      	subs	r4, #1
100045ac:	b264      	sxtb	r4, r4
100045ae:	2c00      	cmp	r4, #0
100045b0:	dd0b      	ble.n	100045ca <prvUnlockQueue+0x30>
100045b2:	6a6b      	ldr	r3, [r5, #36]	; 0x24
100045b4:	2b00      	cmp	r3, #0
100045b6:	d008      	beq.n	100045ca <prvUnlockQueue+0x30>
100045b8:	0028      	movs	r0, r5
100045ba:	3024      	adds	r0, #36	; 0x24
100045bc:	f001 f9b4 	bl	10005928 <xTaskRemoveFromEventList>
100045c0:	2800      	cmp	r0, #0
100045c2:	d0f2      	beq.n	100045aa <prvUnlockQueue+0x10>
100045c4:	f001 fab4 	bl	10005b30 <vTaskMissedYield>
100045c8:	e7ef      	b.n	100045aa <prvUnlockQueue+0x10>
100045ca:	2345      	movs	r3, #69	; 0x45
100045cc:	22ff      	movs	r2, #255	; 0xff
100045ce:	54ea      	strb	r2, [r5, r3]
100045d0:	f001 fff2 	bl	100065b8 <vPortExitCritical>
100045d4:	f001 ffe4 	bl	100065a0 <vPortEnterCritical>
100045d8:	2344      	movs	r3, #68	; 0x44
100045da:	5cec      	ldrb	r4, [r5, r3]
100045dc:	b264      	sxtb	r4, r4
100045de:	e001      	b.n	100045e4 <prvUnlockQueue+0x4a>
100045e0:	3c01      	subs	r4, #1
100045e2:	b264      	sxtb	r4, r4
100045e4:	2c00      	cmp	r4, #0
100045e6:	dd0b      	ble.n	10004600 <prvUnlockQueue+0x66>
100045e8:	692b      	ldr	r3, [r5, #16]
100045ea:	2b00      	cmp	r3, #0
100045ec:	d008      	beq.n	10004600 <prvUnlockQueue+0x66>
100045ee:	0028      	movs	r0, r5
100045f0:	3010      	adds	r0, #16
100045f2:	f001 f999 	bl	10005928 <xTaskRemoveFromEventList>
100045f6:	2800      	cmp	r0, #0
100045f8:	d0f2      	beq.n	100045e0 <prvUnlockQueue+0x46>
100045fa:	f001 fa99 	bl	10005b30 <vTaskMissedYield>
100045fe:	e7ef      	b.n	100045e0 <prvUnlockQueue+0x46>
10004600:	2344      	movs	r3, #68	; 0x44
10004602:	22ff      	movs	r2, #255	; 0xff
10004604:	54ea      	strb	r2, [r5, r3]
10004606:	f001 ffd7 	bl	100065b8 <vPortExitCritical>
1000460a:	bd70      	pop	{r4, r5, r6, pc}

1000460c <xQueueGenericReset>:
1000460c:	b5f8      	push	{r3, r4, r5, r6, r7, lr}
1000460e:	0004      	movs	r4, r0
10004610:	000d      	movs	r5, r1
10004612:	2800      	cmp	r0, #0
10004614:	d052      	beq.n	100046bc <xQueueGenericReset+0xb0>
10004616:	6bc3      	ldr	r3, [r0, #60]	; 0x3c
10004618:	2b00      	cmp	r3, #0
1000461a:	d051      	beq.n	100046c0 <xQueueGenericReset+0xb4>
1000461c:	6c01      	ldr	r1, [r0, #64]	; 0x40
1000461e:	2600      	movs	r6, #0
10004620:	0c0f      	lsrs	r7, r1, #16
10004622:	0c1a      	lsrs	r2, r3, #16
10004624:	2f00      	cmp	r7, #0
10004626:	d113      	bne.n	10004650 <xQueueGenericReset+0x44>
10004628:	b290      	uxth	r0, r2
1000462a:	2800      	cmp	r0, #0
1000462c:	d103      	bne.n	10004636 <xQueueGenericReset+0x2a>
1000462e:	2e00      	cmp	r6, #0
10004630:	d014      	beq.n	1000465c <xQueueGenericReset+0x50>
10004632:	2000      	movs	r0, #0
10004634:	e045      	b.n	100046c2 <xQueueGenericReset+0xb6>
10004636:	1c08      	adds	r0, r1, #0
10004638:	b289      	uxth	r1, r1
1000463a:	b29b      	uxth	r3, r3
1000463c:	434b      	muls	r3, r1
1000463e:	b280      	uxth	r0, r0
10004640:	b292      	uxth	r2, r2
10004642:	4342      	muls	r2, r0
10004644:	0c1b      	lsrs	r3, r3, #16
10004646:	18d3      	adds	r3, r2, r3
10004648:	0c1b      	lsrs	r3, r3, #16
1000464a:	d0f0      	beq.n	1000462e <xQueueGenericReset+0x22>
1000464c:	2601      	movs	r6, #1
1000464e:	e7ee      	b.n	1000462e <xQueueGenericReset+0x22>
10004650:	b292      	uxth	r2, r2
10004652:	2a00      	cmp	r2, #0
10004654:	d1fa      	bne.n	1000464c <xQueueGenericReset+0x40>
10004656:	1c3a      	adds	r2, r7, #0
10004658:	1c18      	adds	r0, r3, #0
1000465a:	e7ed      	b.n	10004638 <xQueueGenericReset+0x2c>
1000465c:	f001 ffa0 	bl	100065a0 <vPortEnterCritical>
10004660:	6822      	ldr	r2, [r4, #0]
10004662:	6be3      	ldr	r3, [r4, #60]	; 0x3c
10004664:	6c20      	ldr	r0, [r4, #64]	; 0x40
10004666:	0001      	movs	r1, r0
10004668:	4359      	muls	r1, r3
1000466a:	1851      	adds	r1, r2, r1
1000466c:	60a1      	str	r1, [r4, #8]
1000466e:	2100      	movs	r1, #0
10004670:	63a1      	str	r1, [r4, #56]	; 0x38
10004672:	6062      	str	r2, [r4, #4]
10004674:	3b01      	subs	r3, #1
10004676:	4343      	muls	r3, r0
10004678:	18d3      	adds	r3, r2, r3
1000467a:	60e3      	str	r3, [r4, #12]
1000467c:	23ff      	movs	r3, #255	; 0xff
1000467e:	2244      	movs	r2, #68	; 0x44
10004680:	54a3      	strb	r3, [r4, r2]
10004682:	3201      	adds	r2, #1
10004684:	54a3      	strb	r3, [r4, r2]
10004686:	2d00      	cmp	r5, #0
10004688:	d10f      	bne.n	100046aa <xQueueGenericReset+0x9e>
1000468a:	6923      	ldr	r3, [r4, #16]
1000468c:	2b00      	cmp	r3, #0
1000468e:	d103      	bne.n	10004698 <xQueueGenericReset+0x8c>
10004690:	f001 ff92 	bl	100065b8 <vPortExitCritical>
10004694:	2001      	movs	r0, #1
10004696:	e014      	b.n	100046c2 <xQueueGenericReset+0xb6>
10004698:	0020      	movs	r0, r4
1000469a:	3010      	adds	r0, #16
1000469c:	f001 f944 	bl	10005928 <xTaskRemoveFromEventList>
100046a0:	2800      	cmp	r0, #0
100046a2:	d0f5      	beq.n	10004690 <xQueueGenericReset+0x84>
100046a4:	f001 ff70 	bl	10006588 <vPortYield>
100046a8:	e7f2      	b.n	10004690 <xQueueGenericReset+0x84>
100046aa:	0020      	movs	r0, r4
100046ac:	3010      	adds	r0, #16
100046ae:	f001 fffd 	bl	100066ac <vListInitialise>
100046b2:	0020      	movs	r0, r4
100046b4:	3024      	adds	r0, #36	; 0x24
100046b6:	f001 fff9 	bl	100066ac <vListInitialise>
100046ba:	e7e9      	b.n	10004690 <xQueueGenericReset+0x84>
100046bc:	2000      	movs	r0, #0
100046be:	e000      	b.n	100046c2 <xQueueGenericReset+0xb6>
100046c0:	2000      	movs	r0, #0
100046c2:	bdf8      	pop	{r3, r4, r5, r6, r7, pc}

100046c4 <prvInitialiseNewQueue>:
100046c4:	b510      	push	{r4, lr}
100046c6:	0003      	movs	r3, r0
100046c8:	9802      	ldr	r0, [sp, #8]
100046ca:	2900      	cmp	r1, #0
100046cc:	d106      	bne.n	100046dc <prvInitialiseNewQueue+0x18>
100046ce:	6000      	str	r0, [r0, #0]
100046d0:	63c3      	str	r3, [r0, #60]	; 0x3c
100046d2:	6401      	str	r1, [r0, #64]	; 0x40
100046d4:	2101      	movs	r1, #1
100046d6:	f7ff ff99 	bl	1000460c <xQueueGenericReset>
100046da:	bd10      	pop	{r4, pc}
100046dc:	6002      	str	r2, [r0, #0]
100046de:	e7f7      	b.n	100046d0 <prvInitialiseNewQueue+0xc>

100046e0 <xQueueGenericCreate>:
100046e0:	b5f0      	push	{r4, r5, r6, r7, lr}
100046e2:	b083      	sub	sp, #12
100046e4:	0004      	movs	r4, r0
100046e6:	000d      	movs	r5, r1
100046e8:	0016      	movs	r6, r2
100046ea:	2800      	cmp	r0, #0
100046ec:	d02f      	beq.n	1000474e <xQueueGenericCreate+0x6e>
100046ee:	2000      	movs	r0, #0
100046f0:	0c0a      	lsrs	r2, r1, #16
100046f2:	0c23      	lsrs	r3, r4, #16
100046f4:	2a00      	cmp	r2, #0
100046f6:	d125      	bne.n	10004744 <xQueueGenericCreate+0x64>
100046f8:	b29a      	uxth	r2, r3
100046fa:	2a00      	cmp	r2, #0
100046fc:	d114      	bne.n	10004728 <xQueueGenericCreate+0x48>
100046fe:	2800      	cmp	r0, #0
10004700:	d129      	bne.n	10004756 <xQueueGenericCreate+0x76>
10004702:	0028      	movs	r0, r5
10004704:	4360      	muls	r0, r4
10004706:	0003      	movs	r3, r0
10004708:	3349      	adds	r3, #73	; 0x49
1000470a:	d826      	bhi.n	1000475a <xQueueGenericCreate+0x7a>
1000470c:	3048      	adds	r0, #72	; 0x48
1000470e:	f001 feef 	bl	100064f0 <pvPortMalloc>
10004712:	1e07      	subs	r7, r0, #0
10004714:	d01c      	beq.n	10004750 <xQueueGenericCreate+0x70>
10004716:	0002      	movs	r2, r0
10004718:	3248      	adds	r2, #72	; 0x48
1000471a:	9000      	str	r0, [sp, #0]
1000471c:	0033      	movs	r3, r6
1000471e:	0029      	movs	r1, r5
10004720:	0020      	movs	r0, r4
10004722:	f7ff ffcf 	bl	100046c4 <prvInitialiseNewQueue>
10004726:	e013      	b.n	10004750 <xQueueGenericCreate+0x70>
10004728:	1c1a      	adds	r2, r3, #0
1000472a:	1c2f      	adds	r7, r5, #0
1000472c:	b2ab      	uxth	r3, r5
1000472e:	b2a1      	uxth	r1, r4
10004730:	4359      	muls	r1, r3
10004732:	b2bf      	uxth	r7, r7
10004734:	b293      	uxth	r3, r2
10004736:	437b      	muls	r3, r7
10004738:	0c09      	lsrs	r1, r1, #16
1000473a:	185b      	adds	r3, r3, r1
1000473c:	0c1b      	lsrs	r3, r3, #16
1000473e:	d0de      	beq.n	100046fe <xQueueGenericCreate+0x1e>
10004740:	2001      	movs	r0, #1
10004742:	e7dc      	b.n	100046fe <xQueueGenericCreate+0x1e>
10004744:	b29b      	uxth	r3, r3
10004746:	2b00      	cmp	r3, #0
10004748:	d1fa      	bne.n	10004740 <xQueueGenericCreate+0x60>
1000474a:	1c27      	adds	r7, r4, #0
1000474c:	e7ee      	b.n	1000472c <xQueueGenericCreate+0x4c>
1000474e:	2700      	movs	r7, #0
10004750:	0038      	movs	r0, r7
10004752:	b003      	add	sp, #12
10004754:	bdf0      	pop	{r4, r5, r6, r7, pc}
10004756:	2700      	movs	r7, #0
10004758:	e7fa      	b.n	10004750 <xQueueGenericCreate+0x70>
1000475a:	2700      	movs	r7, #0
1000475c:	e7f8      	b.n	10004750 <xQueueGenericCreate+0x70>

1000475e <xQueueGenericSend>:
1000475e:	b5f0      	push	{r4, r5, r6, r7, lr}
10004760:	b085      	sub	sp, #20
10004762:	0004      	movs	r4, r0
10004764:	000d      	movs	r5, r1
10004766:	9201      	str	r2, [sp, #4]
10004768:	001e      	movs	r6, r3
1000476a:	2700      	movs	r7, #0
1000476c:	e030      	b.n	100047d0 <xQueueGenericSend+0x72>
1000476e:	0032      	movs	r2, r6
10004770:	0029      	movs	r1, r5
10004772:	0020      	movs	r0, r4
10004774:	f7ff fecf 	bl	10004516 <prvCopyDataToQueue>
10004778:	6a63      	ldr	r3, [r4, #36]	; 0x24
1000477a:	2b00      	cmp	r3, #0
1000477c:	d106      	bne.n	1000478c <xQueueGenericSend+0x2e>
1000477e:	2800      	cmp	r0, #0
10004780:	d10d      	bne.n	1000479e <xQueueGenericSend+0x40>
10004782:	f001 ff19 	bl	100065b8 <vPortExitCritical>
10004786:	2001      	movs	r0, #1
10004788:	b005      	add	sp, #20
1000478a:	bdf0      	pop	{r4, r5, r6, r7, pc}
1000478c:	0020      	movs	r0, r4
1000478e:	3024      	adds	r0, #36	; 0x24
10004790:	f001 f8ca 	bl	10005928 <xTaskRemoveFromEventList>
10004794:	2800      	cmp	r0, #0
10004796:	d0f4      	beq.n	10004782 <xQueueGenericSend+0x24>
10004798:	f001 fef6 	bl	10006588 <vPortYield>
1000479c:	e7f1      	b.n	10004782 <xQueueGenericSend+0x24>
1000479e:	f001 fef3 	bl	10006588 <vPortYield>
100047a2:	e7ee      	b.n	10004782 <xQueueGenericSend+0x24>
100047a4:	f001 ff08 	bl	100065b8 <vPortExitCritical>
100047a8:	2000      	movs	r0, #0
100047aa:	e7ed      	b.n	10004788 <xQueueGenericSend+0x2a>
100047ac:	a802      	add	r0, sp, #8
100047ae:	f001 f98b 	bl	10005ac8 <vTaskInternalSetTimeOutState>
100047b2:	3701      	adds	r7, #1
100047b4:	e019      	b.n	100047ea <xQueueGenericSend+0x8c>
100047b6:	2344      	movs	r3, #68	; 0x44
100047b8:	2200      	movs	r2, #0
100047ba:	54e2      	strb	r2, [r4, r3]
100047bc:	e020      	b.n	10004800 <xQueueGenericSend+0xa2>
100047be:	2345      	movs	r3, #69	; 0x45
100047c0:	2200      	movs	r2, #0
100047c2:	54e2      	strb	r2, [r4, r3]
100047c4:	e021      	b.n	1000480a <xQueueGenericSend+0xac>
100047c6:	0020      	movs	r0, r4
100047c8:	f7ff fee7 	bl	1000459a <prvUnlockQueue>
100047cc:	f000 feee 	bl	100055ac <xTaskResumeAll>
100047d0:	f001 fee6 	bl	100065a0 <vPortEnterCritical>
100047d4:	6ba3      	ldr	r3, [r4, #56]	; 0x38
100047d6:	6be2      	ldr	r2, [r4, #60]	; 0x3c
100047d8:	4293      	cmp	r3, r2
100047da:	d3c8      	bcc.n	1000476e <xQueueGenericSend+0x10>
100047dc:	2e02      	cmp	r6, #2
100047de:	d0c6      	beq.n	1000476e <xQueueGenericSend+0x10>
100047e0:	9b01      	ldr	r3, [sp, #4]
100047e2:	2b00      	cmp	r3, #0
100047e4:	d0de      	beq.n	100047a4 <xQueueGenericSend+0x46>
100047e6:	2f00      	cmp	r7, #0
100047e8:	d0e0      	beq.n	100047ac <xQueueGenericSend+0x4e>
100047ea:	f001 fee5 	bl	100065b8 <vPortExitCritical>
100047ee:	f000 fe23 	bl	10005438 <vTaskSuspendAll>
100047f2:	f001 fed5 	bl	100065a0 <vPortEnterCritical>
100047f6:	2344      	movs	r3, #68	; 0x44
100047f8:	5ce1      	ldrb	r1, [r4, r3]
100047fa:	b249      	sxtb	r1, r1
100047fc:	1c4b      	adds	r3, r1, #1
100047fe:	d0da      	beq.n	100047b6 <xQueueGenericSend+0x58>
10004800:	2345      	movs	r3, #69	; 0x45
10004802:	5ce0      	ldrb	r0, [r4, r3]
10004804:	b240      	sxtb	r0, r0
10004806:	1c43      	adds	r3, r0, #1
10004808:	d0d9      	beq.n	100047be <xQueueGenericSend+0x60>
1000480a:	f001 fed5 	bl	100065b8 <vPortExitCritical>
1000480e:	a901      	add	r1, sp, #4
10004810:	a802      	add	r0, sp, #8
10004812:	f001 f961 	bl	10005ad8 <xTaskCheckForTimeOut>
10004816:	2800      	cmp	r0, #0
10004818:	d113      	bne.n	10004842 <xQueueGenericSend+0xe4>
1000481a:	0020      	movs	r0, r4
1000481c:	f7ff fe5e 	bl	100044dc <prvIsQueueFull>
10004820:	2800      	cmp	r0, #0
10004822:	d0d0      	beq.n	100047c6 <xQueueGenericSend+0x68>
10004824:	0020      	movs	r0, r4
10004826:	3010      	adds	r0, #16
10004828:	9901      	ldr	r1, [sp, #4]
1000482a:	f001 f82f 	bl	1000588c <vTaskPlaceOnEventList>
1000482e:	0020      	movs	r0, r4
10004830:	f7ff feb3 	bl	1000459a <prvUnlockQueue>
10004834:	f000 feba 	bl	100055ac <xTaskResumeAll>
10004838:	2800      	cmp	r0, #0
1000483a:	d1c9      	bne.n	100047d0 <xQueueGenericSend+0x72>
1000483c:	f001 fea4 	bl	10006588 <vPortYield>
10004840:	e7c6      	b.n	100047d0 <xQueueGenericSend+0x72>
10004842:	0020      	movs	r0, r4
10004844:	f7ff fea9 	bl	1000459a <prvUnlockQueue>
10004848:	f000 feb0 	bl	100055ac <xTaskResumeAll>
1000484c:	2000      	movs	r0, #0
1000484e:	e79b      	b.n	10004788 <xQueueGenericSend+0x2a>

10004850 <xQueueGenericSendFromISR>:
10004850:	b5f0      	push	{r4, r5, r6, r7, lr}
10004852:	b083      	sub	sp, #12
10004854:	0004      	movs	r4, r0
10004856:	9100      	str	r1, [sp, #0]
10004858:	9201      	str	r2, [sp, #4]
1000485a:	001d      	movs	r5, r3
1000485c:	f001 feb6 	bl	100065cc <ulSetInterruptMaskFromISR>
10004860:	0007      	movs	r7, r0
10004862:	6ba3      	ldr	r3, [r4, #56]	; 0x38
10004864:	6be2      	ldr	r2, [r4, #60]	; 0x3c
10004866:	4293      	cmp	r3, r2
10004868:	d308      	bcc.n	1000487c <xQueueGenericSendFromISR+0x2c>
1000486a:	2d02      	cmp	r5, #2
1000486c:	d006      	beq.n	1000487c <xQueueGenericSendFromISR+0x2c>
1000486e:	2400      	movs	r4, #0
10004870:	0038      	movs	r0, r7
10004872:	f001 feaf 	bl	100065d4 <vClearInterruptMaskFromISR>
10004876:	0020      	movs	r0, r4
10004878:	b003      	add	sp, #12
1000487a:	bdf0      	pop	{r4, r5, r6, r7, pc}
1000487c:	2345      	movs	r3, #69	; 0x45
1000487e:	5ce6      	ldrb	r6, [r4, r3]
10004880:	b276      	sxtb	r6, r6
10004882:	6ba3      	ldr	r3, [r4, #56]	; 0x38
10004884:	002a      	movs	r2, r5
10004886:	9900      	ldr	r1, [sp, #0]
10004888:	0020      	movs	r0, r4
1000488a:	f7ff fe44 	bl	10004516 <prvCopyDataToQueue>
1000488e:	1c73      	adds	r3, r6, #1
10004890:	d111      	bne.n	100048b6 <xQueueGenericSendFromISR+0x66>
10004892:	6a63      	ldr	r3, [r4, #36]	; 0x24
10004894:	2b00      	cmp	r3, #0
10004896:	d101      	bne.n	1000489c <xQueueGenericSendFromISR+0x4c>
10004898:	2401      	movs	r4, #1
1000489a:	e7e9      	b.n	10004870 <xQueueGenericSendFromISR+0x20>
1000489c:	0020      	movs	r0, r4
1000489e:	3024      	adds	r0, #36	; 0x24
100048a0:	f001 f842 	bl	10005928 <xTaskRemoveFromEventList>
100048a4:	2800      	cmp	r0, #0
100048a6:	d010      	beq.n	100048ca <xQueueGenericSendFromISR+0x7a>
100048a8:	9a01      	ldr	r2, [sp, #4]
100048aa:	2a00      	cmp	r2, #0
100048ac:	d00f      	beq.n	100048ce <xQueueGenericSendFromISR+0x7e>
100048ae:	2301      	movs	r3, #1
100048b0:	6013      	str	r3, [r2, #0]
100048b2:	2401      	movs	r4, #1
100048b4:	e7dc      	b.n	10004870 <xQueueGenericSendFromISR+0x20>
100048b6:	f000 fdd3 	bl	10005460 <uxTaskGetNumberOfTasks>
100048ba:	4286      	cmp	r6, r0
100048bc:	d209      	bcs.n	100048d2 <xQueueGenericSendFromISR+0x82>
100048be:	1c73      	adds	r3, r6, #1
100048c0:	b25b      	sxtb	r3, r3
100048c2:	2245      	movs	r2, #69	; 0x45
100048c4:	54a3      	strb	r3, [r4, r2]
100048c6:	2401      	movs	r4, #1
100048c8:	e7d2      	b.n	10004870 <xQueueGenericSendFromISR+0x20>
100048ca:	2401      	movs	r4, #1
100048cc:	e7d0      	b.n	10004870 <xQueueGenericSendFromISR+0x20>
100048ce:	2401      	movs	r4, #1
100048d0:	e7ce      	b.n	10004870 <xQueueGenericSendFromISR+0x20>
100048d2:	2401      	movs	r4, #1
100048d4:	e7cc      	b.n	10004870 <xQueueGenericSendFromISR+0x20>

100048d6 <xQueueGiveFromISR>:
100048d6:	b5f8      	push	{r3, r4, r5, r6, r7, lr}
100048d8:	0004      	movs	r4, r0
100048da:	000e      	movs	r6, r1
100048dc:	f001 fe76 	bl	100065cc <ulSetInterruptMaskFromISR>
100048e0:	0005      	movs	r5, r0
100048e2:	6ba3      	ldr	r3, [r4, #56]	; 0x38
100048e4:	6be2      	ldr	r2, [r4, #60]	; 0x3c
100048e6:	429a      	cmp	r2, r3
100048e8:	d921      	bls.n	1000492e <xQueueGiveFromISR+0x58>
100048ea:	2245      	movs	r2, #69	; 0x45
100048ec:	5ca7      	ldrb	r7, [r4, r2]
100048ee:	b27f      	sxtb	r7, r7
100048f0:	3301      	adds	r3, #1
100048f2:	63a3      	str	r3, [r4, #56]	; 0x38
100048f4:	1c7b      	adds	r3, r7, #1
100048f6:	d110      	bne.n	1000491a <xQueueGiveFromISR+0x44>
100048f8:	6a63      	ldr	r3, [r4, #36]	; 0x24
100048fa:	2b00      	cmp	r3, #0
100048fc:	d101      	bne.n	10004902 <xQueueGiveFromISR+0x2c>
100048fe:	2401      	movs	r4, #1
10004900:	e016      	b.n	10004930 <xQueueGiveFromISR+0x5a>
10004902:	0020      	movs	r0, r4
10004904:	3024      	adds	r0, #36	; 0x24
10004906:	f001 f80f 	bl	10005928 <xTaskRemoveFromEventList>
1000490a:	2800      	cmp	r0, #0
1000490c:	d015      	beq.n	1000493a <xQueueGiveFromISR+0x64>
1000490e:	2e00      	cmp	r6, #0
10004910:	d015      	beq.n	1000493e <xQueueGiveFromISR+0x68>
10004912:	2301      	movs	r3, #1
10004914:	6033      	str	r3, [r6, #0]
10004916:	2401      	movs	r4, #1
10004918:	e00a      	b.n	10004930 <xQueueGiveFromISR+0x5a>
1000491a:	f000 fda1 	bl	10005460 <uxTaskGetNumberOfTasks>
1000491e:	4287      	cmp	r7, r0
10004920:	d20f      	bcs.n	10004942 <xQueueGiveFromISR+0x6c>
10004922:	3701      	adds	r7, #1
10004924:	b27f      	sxtb	r7, r7
10004926:	2345      	movs	r3, #69	; 0x45
10004928:	54e7      	strb	r7, [r4, r3]
1000492a:	2401      	movs	r4, #1
1000492c:	e000      	b.n	10004930 <xQueueGiveFromISR+0x5a>
1000492e:	2400      	movs	r4, #0
10004930:	0028      	movs	r0, r5
10004932:	f001 fe4f 	bl	100065d4 <vClearInterruptMaskFromISR>
10004936:	0020      	movs	r0, r4
10004938:	bdf8      	pop	{r3, r4, r5, r6, r7, pc}
1000493a:	2401      	movs	r4, #1
1000493c:	e7f8      	b.n	10004930 <xQueueGiveFromISR+0x5a>
1000493e:	2401      	movs	r4, #1
10004940:	e7f6      	b.n	10004930 <xQueueGiveFromISR+0x5a>
10004942:	2401      	movs	r4, #1
10004944:	e7f4      	b.n	10004930 <xQueueGiveFromISR+0x5a>

10004946 <xQueueReceive>:
10004946:	b5f0      	push	{r4, r5, r6, r7, lr}
10004948:	b085      	sub	sp, #20
1000494a:	0004      	movs	r4, r0
1000494c:	000d      	movs	r5, r1
1000494e:	9201      	str	r2, [sp, #4]
10004950:	2700      	movs	r7, #0
10004952:	e037      	b.n	100049c4 <xQueueReceive+0x7e>
10004954:	0029      	movs	r1, r5
10004956:	0020      	movs	r0, r4
10004958:	f7ff fe0d 	bl	10004576 <prvCopyDataFromQueue>
1000495c:	3e01      	subs	r6, #1
1000495e:	63a6      	str	r6, [r4, #56]	; 0x38
10004960:	6923      	ldr	r3, [r4, #16]
10004962:	2b00      	cmp	r3, #0
10004964:	d104      	bne.n	10004970 <xQueueReceive+0x2a>
10004966:	f001 fe27 	bl	100065b8 <vPortExitCritical>
1000496a:	2001      	movs	r0, #1
1000496c:	b005      	add	sp, #20
1000496e:	bdf0      	pop	{r4, r5, r6, r7, pc}
10004970:	0020      	movs	r0, r4
10004972:	3010      	adds	r0, #16
10004974:	f000 ffd8 	bl	10005928 <xTaskRemoveFromEventList>
10004978:	2800      	cmp	r0, #0
1000497a:	d0f4      	beq.n	10004966 <xQueueReceive+0x20>
1000497c:	f001 fe04 	bl	10006588 <vPortYield>
10004980:	e7f1      	b.n	10004966 <xQueueReceive+0x20>
10004982:	f001 fe19 	bl	100065b8 <vPortExitCritical>
10004986:	2000      	movs	r0, #0
10004988:	e7f0      	b.n	1000496c <xQueueReceive+0x26>
1000498a:	a802      	add	r0, sp, #8
1000498c:	f001 f89c 	bl	10005ac8 <vTaskInternalSetTimeOutState>
10004990:	3701      	adds	r7, #1
10004992:	e021      	b.n	100049d8 <xQueueReceive+0x92>
10004994:	2344      	movs	r3, #68	; 0x44
10004996:	2200      	movs	r2, #0
10004998:	54e2      	strb	r2, [r4, r3]
1000499a:	e028      	b.n	100049ee <xQueueReceive+0xa8>
1000499c:	2345      	movs	r3, #69	; 0x45
1000499e:	2200      	movs	r2, #0
100049a0:	54e2      	strb	r2, [r4, r3]
100049a2:	e029      	b.n	100049f8 <xQueueReceive+0xb2>
100049a4:	0020      	movs	r0, r4
100049a6:	f7ff fdf8 	bl	1000459a <prvUnlockQueue>
100049aa:	f000 fdff 	bl	100055ac <xTaskResumeAll>
100049ae:	e009      	b.n	100049c4 <xQueueReceive+0x7e>
100049b0:	0020      	movs	r0, r4
100049b2:	f7ff fdf2 	bl	1000459a <prvUnlockQueue>
100049b6:	f000 fdf9 	bl	100055ac <xTaskResumeAll>
100049ba:	0020      	movs	r0, r4
100049bc:	f7ff fd9d 	bl	100044fa <prvIsQueueEmpty>
100049c0:	2800      	cmp	r0, #0
100049c2:	d135      	bne.n	10004a30 <xQueueReceive+0xea>
100049c4:	f001 fdec 	bl	100065a0 <vPortEnterCritical>
100049c8:	6ba6      	ldr	r6, [r4, #56]	; 0x38
100049ca:	2e00      	cmp	r6, #0
100049cc:	d1c2      	bne.n	10004954 <xQueueReceive+0xe>
100049ce:	9b01      	ldr	r3, [sp, #4]
100049d0:	2b00      	cmp	r3, #0
100049d2:	d0d6      	beq.n	10004982 <xQueueReceive+0x3c>
100049d4:	2f00      	cmp	r7, #0
100049d6:	d0d8      	beq.n	1000498a <xQueueReceive+0x44>
100049d8:	f001 fdee 	bl	100065b8 <vPortExitCritical>
100049dc:	f000 fd2c 	bl	10005438 <vTaskSuspendAll>
100049e0:	f001 fdde 	bl	100065a0 <vPortEnterCritical>
100049e4:	2344      	movs	r3, #68	; 0x44
100049e6:	5ce3      	ldrb	r3, [r4, r3]
100049e8:	b25b      	sxtb	r3, r3
100049ea:	3301      	adds	r3, #1
100049ec:	d0d2      	beq.n	10004994 <xQueueReceive+0x4e>
100049ee:	2345      	movs	r3, #69	; 0x45
100049f0:	5ce3      	ldrb	r3, [r4, r3]
100049f2:	b25b      	sxtb	r3, r3
100049f4:	3301      	adds	r3, #1
100049f6:	d0d1      	beq.n	1000499c <xQueueReceive+0x56>
100049f8:	f001 fdde 	bl	100065b8 <vPortExitCritical>
100049fc:	a901      	add	r1, sp, #4
100049fe:	a802      	add	r0, sp, #8
10004a00:	f001 f86a 	bl	10005ad8 <xTaskCheckForTimeOut>
10004a04:	2800      	cmp	r0, #0
10004a06:	d1d3      	bne.n	100049b0 <xQueueReceive+0x6a>
10004a08:	0020      	movs	r0, r4
10004a0a:	f7ff fd76 	bl	100044fa <prvIsQueueEmpty>
10004a0e:	2800      	cmp	r0, #0
10004a10:	d0c8      	beq.n	100049a4 <xQueueReceive+0x5e>
10004a12:	0020      	movs	r0, r4
10004a14:	3024      	adds	r0, #36	; 0x24
10004a16:	9901      	ldr	r1, [sp, #4]
10004a18:	f000 ff38 	bl	1000588c <vTaskPlaceOnEventList>
10004a1c:	0020      	movs	r0, r4
10004a1e:	f7ff fdbc 	bl	1000459a <prvUnlockQueue>
10004a22:	f000 fdc3 	bl	100055ac <xTaskResumeAll>
10004a26:	2800      	cmp	r0, #0
10004a28:	d1cc      	bne.n	100049c4 <xQueueReceive+0x7e>
10004a2a:	f001 fdad 	bl	10006588 <vPortYield>
10004a2e:	e7c9      	b.n	100049c4 <xQueueReceive+0x7e>
10004a30:	2000      	movs	r0, #0
10004a32:	e79b      	b.n	1000496c <xQueueReceive+0x26>

10004a34 <xQueueSemaphoreTake>:
10004a34:	b530      	push	{r4, r5, lr}
10004a36:	b085      	sub	sp, #20
10004a38:	0004      	movs	r4, r0
10004a3a:	9101      	str	r1, [sp, #4]
10004a3c:	2500      	movs	r5, #0
10004a3e:	e033      	b.n	10004aa8 <xQueueSemaphoreTake+0x74>
10004a40:	3b01      	subs	r3, #1
10004a42:	63a3      	str	r3, [r4, #56]	; 0x38
10004a44:	6923      	ldr	r3, [r4, #16]
10004a46:	2b00      	cmp	r3, #0
10004a48:	d104      	bne.n	10004a54 <xQueueSemaphoreTake+0x20>
10004a4a:	f001 fdb5 	bl	100065b8 <vPortExitCritical>
10004a4e:	2001      	movs	r0, #1
10004a50:	b005      	add	sp, #20
10004a52:	bd30      	pop	{r4, r5, pc}
10004a54:	0020      	movs	r0, r4
10004a56:	3010      	adds	r0, #16
10004a58:	f000 ff66 	bl	10005928 <xTaskRemoveFromEventList>
10004a5c:	2800      	cmp	r0, #0
10004a5e:	d0f4      	beq.n	10004a4a <xQueueSemaphoreTake+0x16>
10004a60:	f001 fd92 	bl	10006588 <vPortYield>
10004a64:	e7f1      	b.n	10004a4a <xQueueSemaphoreTake+0x16>
10004a66:	f001 fda7 	bl	100065b8 <vPortExitCritical>
10004a6a:	2000      	movs	r0, #0
10004a6c:	e7f0      	b.n	10004a50 <xQueueSemaphoreTake+0x1c>
10004a6e:	a802      	add	r0, sp, #8
10004a70:	f001 f82a 	bl	10005ac8 <vTaskInternalSetTimeOutState>
10004a74:	3501      	adds	r5, #1
10004a76:	e021      	b.n	10004abc <xQueueSemaphoreTake+0x88>
10004a78:	2344      	movs	r3, #68	; 0x44
10004a7a:	2200      	movs	r2, #0
10004a7c:	54e2      	strb	r2, [r4, r3]
10004a7e:	e028      	b.n	10004ad2 <xQueueSemaphoreTake+0x9e>
10004a80:	2345      	movs	r3, #69	; 0x45
10004a82:	2200      	movs	r2, #0
10004a84:	54e2      	strb	r2, [r4, r3]
10004a86:	e029      	b.n	10004adc <xQueueSemaphoreTake+0xa8>
10004a88:	0020      	movs	r0, r4
10004a8a:	f7ff fd86 	bl	1000459a <prvUnlockQueue>
10004a8e:	f000 fd8d 	bl	100055ac <xTaskResumeAll>
10004a92:	e009      	b.n	10004aa8 <xQueueSemaphoreTake+0x74>
10004a94:	0020      	movs	r0, r4
10004a96:	f7ff fd80 	bl	1000459a <prvUnlockQueue>
10004a9a:	f000 fd87 	bl	100055ac <xTaskResumeAll>
10004a9e:	0020      	movs	r0, r4
10004aa0:	f7ff fd2b 	bl	100044fa <prvIsQueueEmpty>
10004aa4:	2800      	cmp	r0, #0
10004aa6:	d135      	bne.n	10004b14 <xQueueSemaphoreTake+0xe0>
10004aa8:	f001 fd7a 	bl	100065a0 <vPortEnterCritical>
10004aac:	6ba3      	ldr	r3, [r4, #56]	; 0x38
10004aae:	2b00      	cmp	r3, #0
10004ab0:	d1c6      	bne.n	10004a40 <xQueueSemaphoreTake+0xc>
10004ab2:	9b01      	ldr	r3, [sp, #4]
10004ab4:	2b00      	cmp	r3, #0
10004ab6:	d0d6      	beq.n	10004a66 <xQueueSemaphoreTake+0x32>
10004ab8:	2d00      	cmp	r5, #0
10004aba:	d0d8      	beq.n	10004a6e <xQueueSemaphoreTake+0x3a>
10004abc:	f001 fd7c 	bl	100065b8 <vPortExitCritical>
10004ac0:	f000 fcba 	bl	10005438 <vTaskSuspendAll>
10004ac4:	f001 fd6c 	bl	100065a0 <vPortEnterCritical>
10004ac8:	2344      	movs	r3, #68	; 0x44
10004aca:	5ce3      	ldrb	r3, [r4, r3]
10004acc:	b25b      	sxtb	r3, r3
10004ace:	3301      	adds	r3, #1
10004ad0:	d0d2      	beq.n	10004a78 <xQueueSemaphoreTake+0x44>
10004ad2:	2345      	movs	r3, #69	; 0x45
10004ad4:	5ce3      	ldrb	r3, [r4, r3]
10004ad6:	b25b      	sxtb	r3, r3
10004ad8:	3301      	adds	r3, #1
10004ada:	d0d1      	beq.n	10004a80 <xQueueSemaphoreTake+0x4c>
10004adc:	f001 fd6c 	bl	100065b8 <vPortExitCritical>
10004ae0:	a901      	add	r1, sp, #4
10004ae2:	a802      	add	r0, sp, #8
10004ae4:	f000 fff8 	bl	10005ad8 <xTaskCheckForTimeOut>
10004ae8:	2800      	cmp	r0, #0
10004aea:	d1d3      	bne.n	10004a94 <xQueueSemaphoreTake+0x60>
10004aec:	0020      	movs	r0, r4
10004aee:	f7ff fd04 	bl	100044fa <prvIsQueueEmpty>
10004af2:	2800      	cmp	r0, #0
10004af4:	d0c8      	beq.n	10004a88 <xQueueSemaphoreTake+0x54>
10004af6:	0020      	movs	r0, r4
10004af8:	3024      	adds	r0, #36	; 0x24
10004afa:	9901      	ldr	r1, [sp, #4]
10004afc:	f000 fec6 	bl	1000588c <vTaskPlaceOnEventList>
10004b00:	0020      	movs	r0, r4
10004b02:	f7ff fd4a 	bl	1000459a <prvUnlockQueue>
10004b06:	f000 fd51 	bl	100055ac <xTaskResumeAll>
10004b0a:	2800      	cmp	r0, #0
10004b0c:	d1cc      	bne.n	10004aa8 <xQueueSemaphoreTake+0x74>
10004b0e:	f001 fd3b 	bl	10006588 <vPortYield>
10004b12:	e7c9      	b.n	10004aa8 <xQueueSemaphoreTake+0x74>
10004b14:	2000      	movs	r0, #0
10004b16:	e79b      	b.n	10004a50 <xQueueSemaphoreTake+0x1c>

10004b18 <xQueuePeek>:
10004b18:	b570      	push	{r4, r5, r6, lr}
10004b1a:	b084      	sub	sp, #16
10004b1c:	0004      	movs	r4, r0
10004b1e:	000d      	movs	r5, r1
10004b20:	9201      	str	r2, [sp, #4]
10004b22:	2600      	movs	r6, #0
10004b24:	e037      	b.n	10004b96 <xQueuePeek+0x7e>
10004b26:	68e6      	ldr	r6, [r4, #12]
10004b28:	0029      	movs	r1, r5
10004b2a:	0020      	movs	r0, r4
10004b2c:	f7ff fd23 	bl	10004576 <prvCopyDataFromQueue>
10004b30:	60e6      	str	r6, [r4, #12]
10004b32:	6a63      	ldr	r3, [r4, #36]	; 0x24
10004b34:	2b00      	cmp	r3, #0
10004b36:	d104      	bne.n	10004b42 <xQueuePeek+0x2a>
10004b38:	f001 fd3e 	bl	100065b8 <vPortExitCritical>
10004b3c:	2001      	movs	r0, #1
10004b3e:	b004      	add	sp, #16
10004b40:	bd70      	pop	{r4, r5, r6, pc}
10004b42:	0020      	movs	r0, r4
10004b44:	3024      	adds	r0, #36	; 0x24
10004b46:	f000 feef 	bl	10005928 <xTaskRemoveFromEventList>
10004b4a:	2800      	cmp	r0, #0
10004b4c:	d0f4      	beq.n	10004b38 <xQueuePeek+0x20>
10004b4e:	f001 fd1b 	bl	10006588 <vPortYield>
10004b52:	e7f1      	b.n	10004b38 <xQueuePeek+0x20>
10004b54:	f001 fd30 	bl	100065b8 <vPortExitCritical>
10004b58:	2000      	movs	r0, #0
10004b5a:	e7f0      	b.n	10004b3e <xQueuePeek+0x26>
10004b5c:	a802      	add	r0, sp, #8
10004b5e:	f000 ffb3 	bl	10005ac8 <vTaskInternalSetTimeOutState>
10004b62:	3601      	adds	r6, #1
10004b64:	e021      	b.n	10004baa <xQueuePeek+0x92>
10004b66:	2344      	movs	r3, #68	; 0x44
10004b68:	2200      	movs	r2, #0
10004b6a:	54e2      	strb	r2, [r4, r3]
10004b6c:	e028      	b.n	10004bc0 <xQueuePeek+0xa8>
10004b6e:	2345      	movs	r3, #69	; 0x45
10004b70:	2200      	movs	r2, #0
10004b72:	54e2      	strb	r2, [r4, r3]
10004b74:	e029      	b.n	10004bca <xQueuePeek+0xb2>
10004b76:	0020      	movs	r0, r4
10004b78:	f7ff fd0f 	bl	1000459a <prvUnlockQueue>
10004b7c:	f000 fd16 	bl	100055ac <xTaskResumeAll>
10004b80:	e009      	b.n	10004b96 <xQueuePeek+0x7e>
10004b82:	0020      	movs	r0, r4
10004b84:	f7ff fd09 	bl	1000459a <prvUnlockQueue>
10004b88:	f000 fd10 	bl	100055ac <xTaskResumeAll>
10004b8c:	0020      	movs	r0, r4
10004b8e:	f7ff fcb4 	bl	100044fa <prvIsQueueEmpty>
10004b92:	2800      	cmp	r0, #0
10004b94:	d135      	bne.n	10004c02 <xQueuePeek+0xea>
10004b96:	f001 fd03 	bl	100065a0 <vPortEnterCritical>
10004b9a:	6ba3      	ldr	r3, [r4, #56]	; 0x38
10004b9c:	2b00      	cmp	r3, #0
10004b9e:	d1c2      	bne.n	10004b26 <xQueuePeek+0xe>
10004ba0:	9b01      	ldr	r3, [sp, #4]
10004ba2:	2b00      	cmp	r3, #0
10004ba4:	d0d6      	beq.n	10004b54 <xQueuePeek+0x3c>
10004ba6:	2e00      	cmp	r6, #0
10004ba8:	d0d8      	beq.n	10004b5c <xQueuePeek+0x44>
10004baa:	f001 fd05 	bl	100065b8 <vPortExitCritical>
10004bae:	f000 fc43 	bl	10005438 <vTaskSuspendAll>
10004bb2:	f001 fcf5 	bl	100065a0 <vPortEnterCritical>
10004bb6:	2344      	movs	r3, #68	; 0x44
10004bb8:	5ce3      	ldrb	r3, [r4, r3]
10004bba:	b25b      	sxtb	r3, r3
10004bbc:	3301      	adds	r3, #1
10004bbe:	d0d2      	beq.n	10004b66 <xQueuePeek+0x4e>
10004bc0:	2345      	movs	r3, #69	; 0x45
10004bc2:	5ce3      	ldrb	r3, [r4, r3]
10004bc4:	b25b      	sxtb	r3, r3
10004bc6:	3301      	adds	r3, #1
10004bc8:	d0d1      	beq.n	10004b6e <xQueuePeek+0x56>
10004bca:	f001 fcf5 	bl	100065b8 <vPortExitCritical>
10004bce:	a901      	add	r1, sp, #4
10004bd0:	a802      	add	r0, sp, #8
10004bd2:	f000 ff81 	bl	10005ad8 <xTaskCheckForTimeOut>
10004bd6:	2800      	cmp	r0, #0
10004bd8:	d1d3      	bne.n	10004b82 <xQueuePeek+0x6a>
10004bda:	0020      	movs	r0, r4
10004bdc:	f7ff fc8d 	bl	100044fa <prvIsQueueEmpty>
10004be0:	2800      	cmp	r0, #0
10004be2:	d0c8      	beq.n	10004b76 <xQueuePeek+0x5e>
10004be4:	0020      	movs	r0, r4
10004be6:	3024      	adds	r0, #36	; 0x24
10004be8:	9901      	ldr	r1, [sp, #4]
10004bea:	f000 fe4f 	bl	1000588c <vTaskPlaceOnEventList>
10004bee:	0020      	movs	r0, r4
10004bf0:	f7ff fcd3 	bl	1000459a <prvUnlockQueue>
10004bf4:	f000 fcda 	bl	100055ac <xTaskResumeAll>
10004bf8:	2800      	cmp	r0, #0
10004bfa:	d1cc      	bne.n	10004b96 <xQueuePeek+0x7e>
10004bfc:	f001 fcc4 	bl	10006588 <vPortYield>
10004c00:	e7c9      	b.n	10004b96 <xQueuePeek+0x7e>
10004c02:	2000      	movs	r0, #0
10004c04:	e79b      	b.n	10004b3e <xQueuePeek+0x26>

10004c06 <xQueueReceiveFromISR>:
10004c06:	b5f0      	push	{r4, r5, r6, r7, lr}
10004c08:	b083      	sub	sp, #12
10004c0a:	0004      	movs	r4, r0
10004c0c:	9100      	str	r1, [sp, #0]
10004c0e:	9201      	str	r2, [sp, #4]
10004c10:	f001 fcdc 	bl	100065cc <ulSetInterruptMaskFromISR>
10004c14:	0005      	movs	r5, r0
10004c16:	6ba6      	ldr	r6, [r4, #56]	; 0x38
10004c18:	2e00      	cmp	r6, #0
10004c1a:	d106      	bne.n	10004c2a <xQueueReceiveFromISR+0x24>
10004c1c:	2400      	movs	r4, #0
10004c1e:	0028      	movs	r0, r5
10004c20:	f001 fcd8 	bl	100065d4 <vClearInterruptMaskFromISR>
10004c24:	0020      	movs	r0, r4
10004c26:	b003      	add	sp, #12
10004c28:	bdf0      	pop	{r4, r5, r6, r7, pc}
10004c2a:	2344      	movs	r3, #68	; 0x44
10004c2c:	5ce7      	ldrb	r7, [r4, r3]
10004c2e:	b27f      	sxtb	r7, r7
10004c30:	9900      	ldr	r1, [sp, #0]
10004c32:	0020      	movs	r0, r4
10004c34:	f7ff fc9f 	bl	10004576 <prvCopyDataFromQueue>
10004c38:	1e73      	subs	r3, r6, #1
10004c3a:	63a3      	str	r3, [r4, #56]	; 0x38
10004c3c:	1c7b      	adds	r3, r7, #1
10004c3e:	d111      	bne.n	10004c64 <xQueueReceiveFromISR+0x5e>
10004c40:	6923      	ldr	r3, [r4, #16]
10004c42:	2b00      	cmp	r3, #0
10004c44:	d101      	bne.n	10004c4a <xQueueReceiveFromISR+0x44>
10004c46:	2401      	movs	r4, #1
10004c48:	e7e9      	b.n	10004c1e <xQueueReceiveFromISR+0x18>
10004c4a:	0020      	movs	r0, r4
10004c4c:	3010      	adds	r0, #16
10004c4e:	f000 fe6b 	bl	10005928 <xTaskRemoveFromEventList>
10004c52:	2800      	cmp	r0, #0
10004c54:	d010      	beq.n	10004c78 <xQueueReceiveFromISR+0x72>
10004c56:	9a01      	ldr	r2, [sp, #4]
10004c58:	2a00      	cmp	r2, #0
10004c5a:	d00f      	beq.n	10004c7c <xQueueReceiveFromISR+0x76>
10004c5c:	2301      	movs	r3, #1
10004c5e:	6013      	str	r3, [r2, #0]
10004c60:	2401      	movs	r4, #1
10004c62:	e7dc      	b.n	10004c1e <xQueueReceiveFromISR+0x18>
10004c64:	f000 fbfc 	bl	10005460 <uxTaskGetNumberOfTasks>
10004c68:	4287      	cmp	r7, r0
10004c6a:	d209      	bcs.n	10004c80 <xQueueReceiveFromISR+0x7a>
10004c6c:	1c7b      	adds	r3, r7, #1
10004c6e:	b25b      	sxtb	r3, r3
10004c70:	2244      	movs	r2, #68	; 0x44
10004c72:	54a3      	strb	r3, [r4, r2]
10004c74:	2401      	movs	r4, #1
10004c76:	e7d2      	b.n	10004c1e <xQueueReceiveFromISR+0x18>
10004c78:	2401      	movs	r4, #1
10004c7a:	e7d0      	b.n	10004c1e <xQueueReceiveFromISR+0x18>
10004c7c:	2401      	movs	r4, #1
10004c7e:	e7ce      	b.n	10004c1e <xQueueReceiveFromISR+0x18>
10004c80:	2401      	movs	r4, #1
10004c82:	e7cc      	b.n	10004c1e <xQueueReceiveFromISR+0x18>

10004c84 <xQueuePeekFromISR>:
10004c84:	b5f8      	push	{r3, r4, r5, r6, r7, lr}
10004c86:	0004      	movs	r4, r0
10004c88:	000e      	movs	r6, r1
10004c8a:	f001 fc9f 	bl	100065cc <ulSetInterruptMaskFromISR>
10004c8e:	0005      	movs	r5, r0
10004c90:	6ba3      	ldr	r3, [r4, #56]	; 0x38
10004c92:	2b00      	cmp	r3, #0
10004c94:	d105      	bne.n	10004ca2 <xQueuePeekFromISR+0x1e>
10004c96:	2400      	movs	r4, #0
10004c98:	0028      	movs	r0, r5
10004c9a:	f001 fc9b 	bl	100065d4 <vClearInterruptMaskFromISR>
10004c9e:	0020      	movs	r0, r4
10004ca0:	bdf8      	pop	{r3, r4, r5, r6, r7, pc}
10004ca2:	68e7      	ldr	r7, [r4, #12]
10004ca4:	0031      	movs	r1, r6
10004ca6:	0020      	movs	r0, r4
10004ca8:	f7ff fc65 	bl	10004576 <prvCopyDataFromQueue>
10004cac:	60e7      	str	r7, [r4, #12]
10004cae:	2401      	movs	r4, #1
10004cb0:	e7f2      	b.n	10004c98 <xQueuePeekFromISR+0x14>

10004cb2 <uxQueueMessagesWaiting>:
10004cb2:	b510      	push	{r4, lr}
10004cb4:	0004      	movs	r4, r0
10004cb6:	f001 fc73 	bl	100065a0 <vPortEnterCritical>
10004cba:	6ba4      	ldr	r4, [r4, #56]	; 0x38
10004cbc:	f001 fc7c 	bl	100065b8 <vPortExitCritical>
10004cc0:	0020      	movs	r0, r4
10004cc2:	bd10      	pop	{r4, pc}

10004cc4 <uxQueueSpacesAvailable>:
10004cc4:	b510      	push	{r4, lr}
10004cc6:	0004      	movs	r4, r0
10004cc8:	f001 fc6a 	bl	100065a0 <vPortEnterCritical>
10004ccc:	6be3      	ldr	r3, [r4, #60]	; 0x3c
10004cce:	6ba4      	ldr	r4, [r4, #56]	; 0x38
10004cd0:	1b1c      	subs	r4, r3, r4
10004cd2:	f001 fc71 	bl	100065b8 <vPortExitCritical>
10004cd6:	0020      	movs	r0, r4
10004cd8:	bd10      	pop	{r4, pc}

10004cda <uxQueueMessagesWaitingFromISR>:
10004cda:	6b80      	ldr	r0, [r0, #56]	; 0x38
10004cdc:	4770      	bx	lr

10004cde <xQueueIsQueueEmptyFromISR>:
10004cde:	6b83      	ldr	r3, [r0, #56]	; 0x38
10004ce0:	2b00      	cmp	r3, #0
10004ce2:	d101      	bne.n	10004ce8 <xQueueIsQueueEmptyFromISR+0xa>
10004ce4:	2001      	movs	r0, #1
10004ce6:	4770      	bx	lr
10004ce8:	2000      	movs	r0, #0
10004cea:	e7fc      	b.n	10004ce6 <xQueueIsQueueEmptyFromISR+0x8>

10004cec <xQueueIsQueueFullFromISR>:
10004cec:	6b82      	ldr	r2, [r0, #56]	; 0x38
10004cee:	6bc3      	ldr	r3, [r0, #60]	; 0x3c
10004cf0:	429a      	cmp	r2, r3
10004cf2:	d001      	beq.n	10004cf8 <xQueueIsQueueFullFromISR+0xc>
10004cf4:	2000      	movs	r0, #0
10004cf6:	4770      	bx	lr
10004cf8:	2001      	movs	r0, #1
10004cfa:	e7fc      	b.n	10004cf6 <xQueueIsQueueFullFromISR+0xa>

10004cfc <vQueueAddToRegistry>:
10004cfc:	b530      	push	{r4, r5, lr}
10004cfe:	2900      	cmp	r1, #0
10004d00:	d008      	beq.n	10004d14 <vQueueAddToRegistry+0x18>
10004d02:	2500      	movs	r5, #0
10004d04:	2300      	movs	r3, #0
10004d06:	e007      	b.n	10004d18 <vQueueAddToRegistry+0x1c>
10004d08:	4d0c      	ldr	r5, [pc, #48]	; (10004d3c <vQueueAddToRegistry+0x40>)
10004d0a:	192d      	adds	r5, r5, r4
10004d0c:	2d00      	cmp	r5, #0
10004d0e:	d001      	beq.n	10004d14 <vQueueAddToRegistry+0x18>
10004d10:	6029      	str	r1, [r5, #0]
10004d12:	6068      	str	r0, [r5, #4]
10004d14:	bd30      	pop	{r4, r5, pc}
10004d16:	3301      	adds	r3, #1
10004d18:	2b09      	cmp	r3, #9
10004d1a:	d8f7      	bhi.n	10004d0c <vQueueAddToRegistry+0x10>
10004d1c:	00dc      	lsls	r4, r3, #3
10004d1e:	4a07      	ldr	r2, [pc, #28]	; (10004d3c <vQueueAddToRegistry+0x40>)
10004d20:	1912      	adds	r2, r2, r4
10004d22:	6852      	ldr	r2, [r2, #4]
10004d24:	4282      	cmp	r2, r0
10004d26:	d0ef      	beq.n	10004d08 <vQueueAddToRegistry+0xc>
10004d28:	2d00      	cmp	r5, #0
10004d2a:	d1f4      	bne.n	10004d16 <vQueueAddToRegistry+0x1a>
10004d2c:	00da      	lsls	r2, r3, #3
10004d2e:	4c03      	ldr	r4, [pc, #12]	; (10004d3c <vQueueAddToRegistry+0x40>)
10004d30:	5912      	ldr	r2, [r2, r4]
10004d32:	2a00      	cmp	r2, #0
10004d34:	d1ef      	bne.n	10004d16 <vQueueAddToRegistry+0x1a>
10004d36:	00da      	lsls	r2, r3, #3
10004d38:	18a5      	adds	r5, r4, r2
10004d3a:	e7ec      	b.n	10004d16 <vQueueAddToRegistry+0x1a>
10004d3c:	20000c6c 	.word	0x20000c6c

10004d40 <pcQueueGetName>:
10004d40:	2300      	movs	r3, #0
10004d42:	2b09      	cmp	r3, #9
10004d44:	d80a      	bhi.n	10004d5c <pcQueueGetName+0x1c>
10004d46:	00d9      	lsls	r1, r3, #3
10004d48:	4a05      	ldr	r2, [pc, #20]	; (10004d60 <pcQueueGetName+0x20>)
10004d4a:	1852      	adds	r2, r2, r1
10004d4c:	6852      	ldr	r2, [r2, #4]
10004d4e:	4282      	cmp	r2, r0
10004d50:	d001      	beq.n	10004d56 <pcQueueGetName+0x16>
10004d52:	3301      	adds	r3, #1
10004d54:	e7f5      	b.n	10004d42 <pcQueueGetName+0x2>
10004d56:	4a02      	ldr	r2, [pc, #8]	; (10004d60 <pcQueueGetName+0x20>)
10004d58:	5888      	ldr	r0, [r1, r2]
10004d5a:	e000      	b.n	10004d5e <pcQueueGetName+0x1e>
10004d5c:	2000      	movs	r0, #0
10004d5e:	4770      	bx	lr
10004d60:	20000c6c 	.word	0x20000c6c

10004d64 <vQueueUnregisterQueue>:
10004d64:	2300      	movs	r3, #0
10004d66:	2b09      	cmp	r3, #9
10004d68:	d80d      	bhi.n	10004d86 <vQueueUnregisterQueue+0x22>
10004d6a:	00d9      	lsls	r1, r3, #3
10004d6c:	4a06      	ldr	r2, [pc, #24]	; (10004d88 <vQueueUnregisterQueue+0x24>)
10004d6e:	1852      	adds	r2, r2, r1
10004d70:	6852      	ldr	r2, [r2, #4]
10004d72:	4282      	cmp	r2, r0
10004d74:	d001      	beq.n	10004d7a <vQueueUnregisterQueue+0x16>
10004d76:	3301      	adds	r3, #1
10004d78:	e7f5      	b.n	10004d66 <vQueueUnregisterQueue+0x2>
10004d7a:	4a03      	ldr	r2, [pc, #12]	; (10004d88 <vQueueUnregisterQueue+0x24>)
10004d7c:	000b      	movs	r3, r1
10004d7e:	2100      	movs	r1, #0
10004d80:	5099      	str	r1, [r3, r2]
10004d82:	18d3      	adds	r3, r2, r3
10004d84:	6059      	str	r1, [r3, #4]
10004d86:	4770      	bx	lr
10004d88:	20000c6c 	.word	0x20000c6c

10004d8c <vQueueDelete>:
10004d8c:	b510      	push	{r4, lr}
10004d8e:	0004      	movs	r4, r0
10004d90:	f7ff ffe8 	bl	10004d64 <vQueueUnregisterQueue>
10004d94:	0020      	movs	r0, r4
10004d96:	f001 fbb7 	bl	10006508 <vPortFree>
10004d9a:	bd10      	pop	{r4, pc}

10004d9c <vQueueWaitForMessageRestricted>:
10004d9c:	b570      	push	{r4, r5, r6, lr}
10004d9e:	0004      	movs	r4, r0
10004da0:	000d      	movs	r5, r1
10004da2:	0016      	movs	r6, r2
10004da4:	f001 fbfc 	bl	100065a0 <vPortEnterCritical>
10004da8:	2344      	movs	r3, #68	; 0x44
10004daa:	5ce3      	ldrb	r3, [r4, r3]
10004dac:	b25b      	sxtb	r3, r3
10004dae:	3301      	adds	r3, #1
10004db0:	d00d      	beq.n	10004dce <vQueueWaitForMessageRestricted+0x32>
10004db2:	2345      	movs	r3, #69	; 0x45
10004db4:	5ce3      	ldrb	r3, [r4, r3]
10004db6:	b25b      	sxtb	r3, r3
10004db8:	3301      	adds	r3, #1
10004dba:	d00c      	beq.n	10004dd6 <vQueueWaitForMessageRestricted+0x3a>
10004dbc:	f001 fbfc 	bl	100065b8 <vPortExitCritical>
10004dc0:	6ba3      	ldr	r3, [r4, #56]	; 0x38
10004dc2:	2b00      	cmp	r3, #0
10004dc4:	d00b      	beq.n	10004dde <vQueueWaitForMessageRestricted+0x42>
10004dc6:	0020      	movs	r0, r4
10004dc8:	f7ff fbe7 	bl	1000459a <prvUnlockQueue>
10004dcc:	bd70      	pop	{r4, r5, r6, pc}
10004dce:	2344      	movs	r3, #68	; 0x44
10004dd0:	2200      	movs	r2, #0
10004dd2:	54e2      	strb	r2, [r4, r3]
10004dd4:	e7ed      	b.n	10004db2 <vQueueWaitForMessageRestricted+0x16>
10004dd6:	2345      	movs	r3, #69	; 0x45
10004dd8:	2200      	movs	r2, #0
10004dda:	54e2      	strb	r2, [r4, r3]
10004ddc:	e7ee      	b.n	10004dbc <vQueueWaitForMessageRestricted+0x20>
10004dde:	0020      	movs	r0, r4
10004de0:	3024      	adds	r0, #36	; 0x24
10004de2:	0032      	movs	r2, r6
10004de4:	0029      	movs	r1, r5
10004de6:	f000 fd7f 	bl	100058e8 <vTaskPlaceOnEventListRestricted>
10004dea:	e7ec      	b.n	10004dc6 <vQueueWaitForMessageRestricted+0x2a>

10004dec <prvTaskIsTaskSuspended>:
10004dec:	4b08      	ldr	r3, [pc, #32]	; (10004e10 <prvTaskIsTaskSuspended+0x24>)
10004dee:	6942      	ldr	r2, [r0, #20]
10004df0:	429a      	cmp	r2, r3
10004df2:	d001      	beq.n	10004df8 <prvTaskIsTaskSuspended+0xc>
10004df4:	2000      	movs	r0, #0
10004df6:	4770      	bx	lr
10004df8:	6a82      	ldr	r2, [r0, #40]	; 0x28
10004dfa:	3314      	adds	r3, #20
10004dfc:	429a      	cmp	r2, r3
10004dfe:	d003      	beq.n	10004e08 <prvTaskIsTaskSuspended+0x1c>
10004e00:	2a00      	cmp	r2, #0
10004e02:	d003      	beq.n	10004e0c <prvTaskIsTaskSuspended+0x20>
10004e04:	2000      	movs	r0, #0
10004e06:	e7f6      	b.n	10004df6 <prvTaskIsTaskSuspended+0xa>
10004e08:	2000      	movs	r0, #0
10004e0a:	e7f4      	b.n	10004df6 <prvTaskIsTaskSuspended+0xa>
10004e0c:	2001      	movs	r0, #1
10004e0e:	e7f2      	b.n	10004df6 <prvTaskIsTaskSuspended+0xa>
10004e10:	20000cbc 	.word	0x20000cbc

10004e14 <prvResetNextTaskUnblockTime>:
10004e14:	4b07      	ldr	r3, [pc, #28]	; (10004e34 <prvResetNextTaskUnblockTime+0x20>)
10004e16:	6a9b      	ldr	r3, [r3, #40]	; 0x28
10004e18:	681b      	ldr	r3, [r3, #0]
10004e1a:	2b00      	cmp	r3, #0
10004e1c:	d104      	bne.n	10004e28 <prvResetNextTaskUnblockTime+0x14>
10004e1e:	4b05      	ldr	r3, [pc, #20]	; (10004e34 <prvResetNextTaskUnblockTime+0x20>)
10004e20:	2201      	movs	r2, #1
10004e22:	4252      	negs	r2, r2
10004e24:	62da      	str	r2, [r3, #44]	; 0x2c
10004e26:	4770      	bx	lr
10004e28:	4b02      	ldr	r3, [pc, #8]	; (10004e34 <prvResetNextTaskUnblockTime+0x20>)
10004e2a:	6a9a      	ldr	r2, [r3, #40]	; 0x28
10004e2c:	68d2      	ldr	r2, [r2, #12]
10004e2e:	6812      	ldr	r2, [r2, #0]
10004e30:	62da      	str	r2, [r3, #44]	; 0x2c
10004e32:	e7f8      	b.n	10004e26 <prvResetNextTaskUnblockTime+0x12>
10004e34:	20000cbc 	.word	0x20000cbc

10004e38 <prvDeleteTCB>:
10004e38:	b510      	push	{r4, lr}
10004e3a:	0004      	movs	r4, r0
10004e3c:	6b00      	ldr	r0, [r0, #48]	; 0x30
10004e3e:	f001 fb63 	bl	10006508 <vPortFree>
10004e42:	0020      	movs	r0, r4
10004e44:	f001 fb60 	bl	10006508 <vPortFree>
10004e48:	bd10      	pop	{r4, pc}

10004e4a <prvInitialiseNewTask>:
10004e4a:	b5f0      	push	{r4, r5, r6, r7, lr}
10004e4c:	46de      	mov	lr, fp
10004e4e:	4657      	mov	r7, sl
10004e50:	464e      	mov	r6, r9
10004e52:	b5c0      	push	{r6, r7, lr}
10004e54:	4682      	mov	sl, r0
10004e56:	469b      	mov	fp, r3
10004e58:	9e08      	ldr	r6, [sp, #32]
10004e5a:	9f0a      	ldr	r7, [sp, #40]	; 0x28
10004e5c:	4b1c      	ldr	r3, [pc, #112]	; (10004ed0 <prvInitialiseNewTask+0x86>)
10004e5e:	469c      	mov	ip, r3
10004e60:	4462      	add	r2, ip
10004e62:	0092      	lsls	r2, r2, #2
10004e64:	6b3b      	ldr	r3, [r7, #48]	; 0x30
10004e66:	469c      	mov	ip, r3
10004e68:	4462      	add	r2, ip
10004e6a:	2307      	movs	r3, #7
10004e6c:	439a      	bics	r2, r3
10004e6e:	4691      	mov	r9, r2
10004e70:	2900      	cmp	r1, #0
10004e72:	d00e      	beq.n	10004e92 <prvInitialiseNewTask+0x48>
10004e74:	2400      	movs	r4, #0
10004e76:	2c0f      	cmp	r4, #15
10004e78:	d808      	bhi.n	10004e8c <prvInitialiseNewTask+0x42>
10004e7a:	5d0b      	ldrb	r3, [r1, r4]
10004e7c:	193d      	adds	r5, r7, r4
10004e7e:	3534      	adds	r5, #52	; 0x34
10004e80:	702b      	strb	r3, [r5, #0]
10004e82:	5d0b      	ldrb	r3, [r1, r4]
10004e84:	2b00      	cmp	r3, #0
10004e86:	d001      	beq.n	10004e8c <prvInitialiseNewTask+0x42>
10004e88:	3401      	adds	r4, #1
10004e8a:	e7f4      	b.n	10004e76 <prvInitialiseNewTask+0x2c>
10004e8c:	2343      	movs	r3, #67	; 0x43
10004e8e:	2200      	movs	r2, #0
10004e90:	54fa      	strb	r2, [r7, r3]
10004e92:	2e04      	cmp	r6, #4
10004e94:	d900      	bls.n	10004e98 <prvInitialiseNewTask+0x4e>
10004e96:	2604      	movs	r6, #4
10004e98:	62fe      	str	r6, [r7, #44]	; 0x2c
10004e9a:	1d38      	adds	r0, r7, #4
10004e9c:	f001 fc11 	bl	100066c2 <vListInitialiseItem>
10004ea0:	0038      	movs	r0, r7
10004ea2:	3018      	adds	r0, #24
10004ea4:	f001 fc0d 	bl	100066c2 <vListInitialiseItem>
10004ea8:	613f      	str	r7, [r7, #16]
10004eaa:	2305      	movs	r3, #5
10004eac:	1b9e      	subs	r6, r3, r6
10004eae:	61be      	str	r6, [r7, #24]
10004eb0:	627f      	str	r7, [r7, #36]	; 0x24
10004eb2:	465a      	mov	r2, fp
10004eb4:	4651      	mov	r1, sl
10004eb6:	4648      	mov	r0, r9
10004eb8:	f001 fb54 	bl	10006564 <pxPortInitialiseStack>
10004ebc:	6038      	str	r0, [r7, #0]
10004ebe:	9b09      	ldr	r3, [sp, #36]	; 0x24
10004ec0:	2b00      	cmp	r3, #0
10004ec2:	d000      	beq.n	10004ec6 <prvInitialiseNewTask+0x7c>
10004ec4:	601f      	str	r7, [r3, #0]
10004ec6:	bce0      	pop	{r5, r6, r7}
10004ec8:	46bb      	mov	fp, r7
10004eca:	46b2      	mov	sl, r6
10004ecc:	46a9      	mov	r9, r5
10004ece:	bdf0      	pop	{r4, r5, r6, r7, pc}
10004ed0:	3fffffff 	.word	0x3fffffff

10004ed4 <prvInitialiseTaskLists>:
10004ed4:	b5f8      	push	{r3, r4, r5, r6, r7, lr}
10004ed6:	2400      	movs	r4, #0
10004ed8:	e008      	b.n	10004eec <prvInitialiseTaskLists+0x18>
10004eda:	4812      	ldr	r0, [pc, #72]	; (10004f24 <prvInitialiseTaskLists+0x50>)
10004edc:	00a3      	lsls	r3, r4, #2
10004ede:	191b      	adds	r3, r3, r4
10004ee0:	009a      	lsls	r2, r3, #2
10004ee2:	3030      	adds	r0, #48	; 0x30
10004ee4:	1880      	adds	r0, r0, r2
10004ee6:	f001 fbe1 	bl	100066ac <vListInitialise>
10004eea:	3401      	adds	r4, #1
10004eec:	2c04      	cmp	r4, #4
10004eee:	d9f4      	bls.n	10004eda <prvInitialiseTaskLists+0x6>
10004ef0:	4c0d      	ldr	r4, [pc, #52]	; (10004f28 <prvInitialiseTaskLists+0x54>)
10004ef2:	0027      	movs	r7, r4
10004ef4:	3714      	adds	r7, #20
10004ef6:	0038      	movs	r0, r7
10004ef8:	f001 fbd8 	bl	100066ac <vListInitialise>
10004efc:	0026      	movs	r6, r4
10004efe:	3628      	adds	r6, #40	; 0x28
10004f00:	0030      	movs	r0, r6
10004f02:	f001 fbd3 	bl	100066ac <vListInitialise>
10004f06:	4d07      	ldr	r5, [pc, #28]	; (10004f24 <prvInitialiseTaskLists+0x50>)
10004f08:	0028      	movs	r0, r5
10004f0a:	3014      	adds	r0, #20
10004f0c:	f001 fbce 	bl	100066ac <vListInitialise>
10004f10:	0020      	movs	r0, r4
10004f12:	303c      	adds	r0, #60	; 0x3c
10004f14:	f001 fbca 	bl	100066ac <vListInitialise>
10004f18:	0028      	movs	r0, r5
10004f1a:	f001 fbc7 	bl	100066ac <vListInitialise>
10004f1e:	62af      	str	r7, [r5, #40]	; 0x28
10004f20:	6526      	str	r6, [r4, #80]	; 0x50
10004f22:	bdf8      	pop	{r3, r4, r5, r6, r7, pc}
10004f24:	20000cbc 	.word	0x20000cbc
10004f28:	20000d3c 	.word	0x20000d3c

10004f2c <prvAddNewTaskToReadyList>:
10004f2c:	b570      	push	{r4, r5, r6, lr}
10004f2e:	0004      	movs	r4, r0
10004f30:	f001 fb36 	bl	100065a0 <vPortEnterCritical>
10004f34:	4b27      	ldr	r3, [pc, #156]	; (10004fd4 <prvAddNewTaskToReadyList+0xa8>)
10004f36:	6d5a      	ldr	r2, [r3, #84]	; 0x54
10004f38:	3201      	adds	r2, #1
10004f3a:	655a      	str	r2, [r3, #84]	; 0x54
10004f3c:	6d9b      	ldr	r3, [r3, #88]	; 0x58
10004f3e:	2b00      	cmp	r3, #0
10004f40:	d00c      	beq.n	10004f5c <prvAddNewTaskToReadyList+0x30>
10004f42:	4b24      	ldr	r3, [pc, #144]	; (10004fd4 <prvAddNewTaskToReadyList+0xa8>)
10004f44:	6ddb      	ldr	r3, [r3, #92]	; 0x5c
10004f46:	2b00      	cmp	r3, #0
10004f48:	d10d      	bne.n	10004f66 <prvAddNewTaskToReadyList+0x3a>
10004f4a:	4b22      	ldr	r3, [pc, #136]	; (10004fd4 <prvAddNewTaskToReadyList+0xa8>)
10004f4c:	6d9b      	ldr	r3, [r3, #88]	; 0x58
10004f4e:	6adb      	ldr	r3, [r3, #44]	; 0x2c
10004f50:	6ae2      	ldr	r2, [r4, #44]	; 0x2c
10004f52:	4293      	cmp	r3, r2
10004f54:	d807      	bhi.n	10004f66 <prvAddNewTaskToReadyList+0x3a>
10004f56:	4b1f      	ldr	r3, [pc, #124]	; (10004fd4 <prvAddNewTaskToReadyList+0xa8>)
10004f58:	659c      	str	r4, [r3, #88]	; 0x58
10004f5a:	e004      	b.n	10004f66 <prvAddNewTaskToReadyList+0x3a>
10004f5c:	4b1d      	ldr	r3, [pc, #116]	; (10004fd4 <prvAddNewTaskToReadyList+0xa8>)
10004f5e:	659c      	str	r4, [r3, #88]	; 0x58
10004f60:	6d5b      	ldr	r3, [r3, #84]	; 0x54
10004f62:	2b01      	cmp	r3, #1
10004f64:	d02f      	beq.n	10004fc6 <prvAddNewTaskToReadyList+0x9a>
10004f66:	4a1b      	ldr	r2, [pc, #108]	; (10004fd4 <prvAddNewTaskToReadyList+0xa8>)
10004f68:	6e13      	ldr	r3, [r2, #96]	; 0x60
10004f6a:	3301      	adds	r3, #1
10004f6c:	6613      	str	r3, [r2, #96]	; 0x60
10004f6e:	6ae3      	ldr	r3, [r4, #44]	; 0x2c
10004f70:	6e52      	ldr	r2, [r2, #100]	; 0x64
10004f72:	4293      	cmp	r3, r2
10004f74:	d901      	bls.n	10004f7a <prvAddNewTaskToReadyList+0x4e>
10004f76:	4a17      	ldr	r2, [pc, #92]	; (10004fd4 <prvAddNewTaskToReadyList+0xa8>)
10004f78:	6653      	str	r3, [r2, #100]	; 0x64
10004f7a:	4917      	ldr	r1, [pc, #92]	; (10004fd8 <prvAddNewTaskToReadyList+0xac>)
10004f7c:	009a      	lsls	r2, r3, #2
10004f7e:	18d2      	adds	r2, r2, r3
10004f80:	0092      	lsls	r2, r2, #2
10004f82:	188a      	adds	r2, r1, r2
10004f84:	6b53      	ldr	r3, [r2, #52]	; 0x34
10004f86:	60a3      	str	r3, [r4, #8]
10004f88:	6898      	ldr	r0, [r3, #8]
10004f8a:	60e0      	str	r0, [r4, #12]
10004f8c:	1d22      	adds	r2, r4, #4
10004f8e:	6042      	str	r2, [r0, #4]
10004f90:	609a      	str	r2, [r3, #8]
10004f92:	6ae0      	ldr	r0, [r4, #44]	; 0x2c
10004f94:	000a      	movs	r2, r1
10004f96:	3230      	adds	r2, #48	; 0x30
10004f98:	0083      	lsls	r3, r0, #2
10004f9a:	181d      	adds	r5, r3, r0
10004f9c:	00ad      	lsls	r5, r5, #2
10004f9e:	1952      	adds	r2, r2, r5
10004fa0:	6162      	str	r2, [r4, #20]
10004fa2:	194a      	adds	r2, r1, r5
10004fa4:	6b12      	ldr	r2, [r2, #48]	; 0x30
10004fa6:	3201      	adds	r2, #1
10004fa8:	194b      	adds	r3, r1, r5
10004faa:	631a      	str	r2, [r3, #48]	; 0x30
10004fac:	f001 fb04 	bl	100065b8 <vPortExitCritical>
10004fb0:	4b08      	ldr	r3, [pc, #32]	; (10004fd4 <prvAddNewTaskToReadyList+0xa8>)
10004fb2:	6ddb      	ldr	r3, [r3, #92]	; 0x5c
10004fb4:	2b00      	cmp	r3, #0
10004fb6:	d005      	beq.n	10004fc4 <prvAddNewTaskToReadyList+0x98>
10004fb8:	4b06      	ldr	r3, [pc, #24]	; (10004fd4 <prvAddNewTaskToReadyList+0xa8>)
10004fba:	6d9b      	ldr	r3, [r3, #88]	; 0x58
10004fbc:	6ada      	ldr	r2, [r3, #44]	; 0x2c
10004fbe:	6ae3      	ldr	r3, [r4, #44]	; 0x2c
10004fc0:	429a      	cmp	r2, r3
10004fc2:	d303      	bcc.n	10004fcc <prvAddNewTaskToReadyList+0xa0>
10004fc4:	bd70      	pop	{r4, r5, r6, pc}
10004fc6:	f7ff ff85 	bl	10004ed4 <prvInitialiseTaskLists>
10004fca:	e7cc      	b.n	10004f66 <prvAddNewTaskToReadyList+0x3a>
10004fcc:	f001 fadc 	bl	10006588 <vPortYield>
10004fd0:	e7f8      	b.n	10004fc4 <prvAddNewTaskToReadyList+0x98>
10004fd2:	46c0      	nop			; (mov r8, r8)
10004fd4:	20000d3c 	.word	0x20000d3c
10004fd8:	20000cbc 	.word	0x20000cbc

10004fdc <prvCheckTasksWaitingTermination>:
10004fdc:	b570      	push	{r4, r5, r6, lr}
10004fde:	e012      	b.n	10005006 <prvCheckTasksWaitingTermination+0x2a>
10004fe0:	f001 fade 	bl	100065a0 <vPortEnterCritical>
10004fe4:	4c0a      	ldr	r4, [pc, #40]	; (10005010 <prvCheckTasksWaitingTermination+0x34>)
10004fe6:	6ca3      	ldr	r3, [r4, #72]	; 0x48
10004fe8:	68dd      	ldr	r5, [r3, #12]
10004fea:	1d28      	adds	r0, r5, #4
10004fec:	f001 fb8e 	bl	1000670c <uxListRemove>
10004ff0:	6d63      	ldr	r3, [r4, #84]	; 0x54
10004ff2:	3b01      	subs	r3, #1
10004ff4:	6563      	str	r3, [r4, #84]	; 0x54
10004ff6:	6ea3      	ldr	r3, [r4, #104]	; 0x68
10004ff8:	3b01      	subs	r3, #1
10004ffa:	66a3      	str	r3, [r4, #104]	; 0x68
10004ffc:	f001 fadc 	bl	100065b8 <vPortExitCritical>
10005000:	0028      	movs	r0, r5
10005002:	f7ff ff19 	bl	10004e38 <prvDeleteTCB>
10005006:	4b02      	ldr	r3, [pc, #8]	; (10005010 <prvCheckTasksWaitingTermination+0x34>)
10005008:	6e9b      	ldr	r3, [r3, #104]	; 0x68
1000500a:	2b00      	cmp	r3, #0
1000500c:	d1e8      	bne.n	10004fe0 <prvCheckTasksWaitingTermination+0x4>
1000500e:	bd70      	pop	{r4, r5, r6, pc}
10005010:	20000d3c 	.word	0x20000d3c

10005014 <prvIdleTask>:
10005014:	b510      	push	{r4, lr}
10005016:	f7ff ffe1 	bl	10004fdc <prvCheckTasksWaitingTermination>
1000501a:	4b03      	ldr	r3, [pc, #12]	; (10005028 <prvIdleTask+0x14>)
1000501c:	6b1b      	ldr	r3, [r3, #48]	; 0x30
1000501e:	2b01      	cmp	r3, #1
10005020:	d9f9      	bls.n	10005016 <prvIdleTask+0x2>
10005022:	f001 fab1 	bl	10006588 <vPortYield>
10005026:	e7f6      	b.n	10005016 <prvIdleTask+0x2>
10005028:	20000cbc 	.word	0x20000cbc

1000502c <prvAddCurrentTaskToDelayedList>:
1000502c:	b570      	push	{r4, r5, r6, lr}
1000502e:	0004      	movs	r4, r0
10005030:	000d      	movs	r5, r1
10005032:	4b1c      	ldr	r3, [pc, #112]	; (100050a4 <prvAddCurrentTaskToDelayedList+0x78>)
10005034:	6ede      	ldr	r6, [r3, #108]	; 0x6c
10005036:	6d98      	ldr	r0, [r3, #88]	; 0x58
10005038:	3004      	adds	r0, #4
1000503a:	f001 fb67 	bl	1000670c <uxListRemove>
1000503e:	1c63      	adds	r3, r4, #1
10005040:	d00c      	beq.n	1000505c <prvAddCurrentTaskToDelayedList+0x30>
10005042:	1934      	adds	r4, r6, r4
10005044:	4b17      	ldr	r3, [pc, #92]	; (100050a4 <prvAddCurrentTaskToDelayedList+0x78>)
10005046:	6d9b      	ldr	r3, [r3, #88]	; 0x58
10005048:	605c      	str	r4, [r3, #4]
1000504a:	42a6      	cmp	r6, r4
1000504c:	d91c      	bls.n	10005088 <prvAddCurrentTaskToDelayedList+0x5c>
1000504e:	4b15      	ldr	r3, [pc, #84]	; (100050a4 <prvAddCurrentTaskToDelayedList+0x78>)
10005050:	6d18      	ldr	r0, [r3, #80]	; 0x50
10005052:	6d99      	ldr	r1, [r3, #88]	; 0x58
10005054:	3104      	adds	r1, #4
10005056:	f001 fb42 	bl	100066de <vListInsert>
1000505a:	bd70      	pop	{r4, r5, r6, pc}
1000505c:	2d00      	cmp	r5, #0
1000505e:	d0f0      	beq.n	10005042 <prvAddCurrentTaskToDelayedList+0x16>
10005060:	4a11      	ldr	r2, [pc, #68]	; (100050a8 <prvAddCurrentTaskToDelayedList+0x7c>)
10005062:	6851      	ldr	r1, [r2, #4]
10005064:	4b0f      	ldr	r3, [pc, #60]	; (100050a4 <prvAddCurrentTaskToDelayedList+0x78>)
10005066:	6d98      	ldr	r0, [r3, #88]	; 0x58
10005068:	6081      	str	r1, [r0, #8]
1000506a:	6d98      	ldr	r0, [r3, #88]	; 0x58
1000506c:	688c      	ldr	r4, [r1, #8]
1000506e:	60c4      	str	r4, [r0, #12]
10005070:	6d98      	ldr	r0, [r3, #88]	; 0x58
10005072:	3004      	adds	r0, #4
10005074:	6060      	str	r0, [r4, #4]
10005076:	6d98      	ldr	r0, [r3, #88]	; 0x58
10005078:	3004      	adds	r0, #4
1000507a:	6088      	str	r0, [r1, #8]
1000507c:	6d9b      	ldr	r3, [r3, #88]	; 0x58
1000507e:	615a      	str	r2, [r3, #20]
10005080:	6813      	ldr	r3, [r2, #0]
10005082:	3301      	adds	r3, #1
10005084:	6013      	str	r3, [r2, #0]
10005086:	e7e8      	b.n	1000505a <prvAddCurrentTaskToDelayedList+0x2e>
10005088:	4d07      	ldr	r5, [pc, #28]	; (100050a8 <prvAddCurrentTaskToDelayedList+0x7c>)
1000508a:	6aa8      	ldr	r0, [r5, #40]	; 0x28
1000508c:	4b05      	ldr	r3, [pc, #20]	; (100050a4 <prvAddCurrentTaskToDelayedList+0x78>)
1000508e:	6d99      	ldr	r1, [r3, #88]	; 0x58
10005090:	3104      	adds	r1, #4
10005092:	f001 fb24 	bl	100066de <vListInsert>
10005096:	6aeb      	ldr	r3, [r5, #44]	; 0x2c
10005098:	42a3      	cmp	r3, r4
1000509a:	d9de      	bls.n	1000505a <prvAddCurrentTaskToDelayedList+0x2e>
1000509c:	4b02      	ldr	r3, [pc, #8]	; (100050a8 <prvAddCurrentTaskToDelayedList+0x7c>)
1000509e:	62dc      	str	r4, [r3, #44]	; 0x2c
100050a0:	e7db      	b.n	1000505a <prvAddCurrentTaskToDelayedList+0x2e>
100050a2:	46c0      	nop			; (mov r8, r8)
100050a4:	20000d3c 	.word	0x20000d3c
100050a8:	20000cbc 	.word	0x20000cbc

100050ac <xTaskCreate>:
100050ac:	b5f0      	push	{r4, r5, r6, r7, lr}
100050ae:	b087      	sub	sp, #28
100050b0:	9004      	str	r0, [sp, #16]
100050b2:	9105      	str	r1, [sp, #20]
100050b4:	0016      	movs	r6, r2
100050b6:	001f      	movs	r7, r3
100050b8:	0090      	lsls	r0, r2, #2
100050ba:	f001 fa19 	bl	100064f0 <pvPortMalloc>
100050be:	1e04      	subs	r4, r0, #0
100050c0:	d021      	beq.n	10005106 <xTaskCreate+0x5a>
100050c2:	2068      	movs	r0, #104	; 0x68
100050c4:	f001 fa14 	bl	100064f0 <pvPortMalloc>
100050c8:	1e05      	subs	r5, r0, #0
100050ca:	d018      	beq.n	100050fe <xTaskCreate+0x52>
100050cc:	2268      	movs	r2, #104	; 0x68
100050ce:	2100      	movs	r1, #0
100050d0:	f7fe ff8a 	bl	10003fe8 <__wrap_memset>
100050d4:	632c      	str	r4, [r5, #48]	; 0x30
100050d6:	2d00      	cmp	r5, #0
100050d8:	d019      	beq.n	1000510e <xTaskCreate+0x62>
100050da:	2300      	movs	r3, #0
100050dc:	9303      	str	r3, [sp, #12]
100050de:	9502      	str	r5, [sp, #8]
100050e0:	9b0d      	ldr	r3, [sp, #52]	; 0x34
100050e2:	9301      	str	r3, [sp, #4]
100050e4:	9b0c      	ldr	r3, [sp, #48]	; 0x30
100050e6:	9300      	str	r3, [sp, #0]
100050e8:	003b      	movs	r3, r7
100050ea:	0032      	movs	r2, r6
100050ec:	9905      	ldr	r1, [sp, #20]
100050ee:	9804      	ldr	r0, [sp, #16]
100050f0:	f7ff feab 	bl	10004e4a <prvInitialiseNewTask>
100050f4:	0028      	movs	r0, r5
100050f6:	f7ff ff19 	bl	10004f2c <prvAddNewTaskToReadyList>
100050fa:	2001      	movs	r0, #1
100050fc:	e005      	b.n	1000510a <xTaskCreate+0x5e>
100050fe:	0020      	movs	r0, r4
10005100:	f001 fa02 	bl	10006508 <vPortFree>
10005104:	e7e7      	b.n	100050d6 <xTaskCreate+0x2a>
10005106:	2001      	movs	r0, #1
10005108:	4240      	negs	r0, r0
1000510a:	b007      	add	sp, #28
1000510c:	bdf0      	pop	{r4, r5, r6, r7, pc}
1000510e:	2001      	movs	r0, #1
10005110:	4240      	negs	r0, r0
10005112:	e7fa      	b.n	1000510a <xTaskCreate+0x5e>

10005114 <vTaskDelete>:
10005114:	b570      	push	{r4, r5, r6, lr}
10005116:	0004      	movs	r4, r0
10005118:	f001 fa42 	bl	100065a0 <vPortEnterCritical>
1000511c:	2c00      	cmp	r4, #0
1000511e:	d029      	beq.n	10005174 <vTaskDelete+0x60>
10005120:	1d25      	adds	r5, r4, #4
10005122:	0028      	movs	r0, r5
10005124:	f001 faf2 	bl	1000670c <uxListRemove>
10005128:	6aa3      	ldr	r3, [r4, #40]	; 0x28
1000512a:	2b00      	cmp	r3, #0
1000512c:	d003      	beq.n	10005136 <vTaskDelete+0x22>
1000512e:	0020      	movs	r0, r4
10005130:	3018      	adds	r0, #24
10005132:	f001 faeb 	bl	1000670c <uxListRemove>
10005136:	4b17      	ldr	r3, [pc, #92]	; (10005194 <vTaskDelete+0x80>)
10005138:	6e1a      	ldr	r2, [r3, #96]	; 0x60
1000513a:	3201      	adds	r2, #1
1000513c:	661a      	str	r2, [r3, #96]	; 0x60
1000513e:	6d9b      	ldr	r3, [r3, #88]	; 0x58
10005140:	42a3      	cmp	r3, r4
10005142:	d01a      	beq.n	1000517a <vTaskDelete+0x66>
10005144:	4a13      	ldr	r2, [pc, #76]	; (10005194 <vTaskDelete+0x80>)
10005146:	6d53      	ldr	r3, [r2, #84]	; 0x54
10005148:	3b01      	subs	r3, #1
1000514a:	6553      	str	r3, [r2, #84]	; 0x54
1000514c:	f7ff fe62 	bl	10004e14 <prvResetNextTaskUnblockTime>
10005150:	f001 fa32 	bl	100065b8 <vPortExitCritical>
10005154:	4b0f      	ldr	r3, [pc, #60]	; (10005194 <vTaskDelete+0x80>)
10005156:	6d9b      	ldr	r3, [r3, #88]	; 0x58
10005158:	42a3      	cmp	r3, r4
1000515a:	d002      	beq.n	10005162 <vTaskDelete+0x4e>
1000515c:	0020      	movs	r0, r4
1000515e:	f7ff fe6b 	bl	10004e38 <prvDeleteTCB>
10005162:	4b0c      	ldr	r3, [pc, #48]	; (10005194 <vTaskDelete+0x80>)
10005164:	6ddb      	ldr	r3, [r3, #92]	; 0x5c
10005166:	2b00      	cmp	r3, #0
10005168:	d003      	beq.n	10005172 <vTaskDelete+0x5e>
1000516a:	4b0a      	ldr	r3, [pc, #40]	; (10005194 <vTaskDelete+0x80>)
1000516c:	6d9b      	ldr	r3, [r3, #88]	; 0x58
1000516e:	42a3      	cmp	r3, r4
10005170:	d00d      	beq.n	1000518e <vTaskDelete+0x7a>
10005172:	bd70      	pop	{r4, r5, r6, pc}
10005174:	4b07      	ldr	r3, [pc, #28]	; (10005194 <vTaskDelete+0x80>)
10005176:	6d9c      	ldr	r4, [r3, #88]	; 0x58
10005178:	e7d2      	b.n	10005120 <vTaskDelete+0xc>
1000517a:	4e06      	ldr	r6, [pc, #24]	; (10005194 <vTaskDelete+0x80>)
1000517c:	0030      	movs	r0, r6
1000517e:	303c      	adds	r0, #60	; 0x3c
10005180:	0029      	movs	r1, r5
10005182:	f001 faa1 	bl	100066c8 <vListInsertEnd>
10005186:	6eb3      	ldr	r3, [r6, #104]	; 0x68
10005188:	3301      	adds	r3, #1
1000518a:	66b3      	str	r3, [r6, #104]	; 0x68
1000518c:	e7e0      	b.n	10005150 <vTaskDelete+0x3c>
1000518e:	f001 f9fb 	bl	10006588 <vPortYield>
10005192:	e7ee      	b.n	10005172 <vTaskDelete+0x5e>
10005194:	20000d3c 	.word	0x20000d3c

10005198 <uxTaskPriorityGet>:
10005198:	b510      	push	{r4, lr}
1000519a:	0004      	movs	r4, r0
1000519c:	f001 fa00 	bl	100065a0 <vPortEnterCritical>
100051a0:	2c00      	cmp	r4, #0
100051a2:	d004      	beq.n	100051ae <uxTaskPriorityGet+0x16>
100051a4:	6ae4      	ldr	r4, [r4, #44]	; 0x2c
100051a6:	f001 fa07 	bl	100065b8 <vPortExitCritical>
100051aa:	0020      	movs	r0, r4
100051ac:	bd10      	pop	{r4, pc}
100051ae:	4b01      	ldr	r3, [pc, #4]	; (100051b4 <uxTaskPriorityGet+0x1c>)
100051b0:	6d9c      	ldr	r4, [r3, #88]	; 0x58
100051b2:	e7f7      	b.n	100051a4 <uxTaskPriorityGet+0xc>
100051b4:	20000d3c 	.word	0x20000d3c

100051b8 <uxTaskPriorityGetFromISR>:
100051b8:	b510      	push	{r4, lr}
100051ba:	0004      	movs	r4, r0
100051bc:	f001 fa06 	bl	100065cc <ulSetInterruptMaskFromISR>
100051c0:	2c00      	cmp	r4, #0
100051c2:	d004      	beq.n	100051ce <uxTaskPriorityGetFromISR+0x16>
100051c4:	6ae4      	ldr	r4, [r4, #44]	; 0x2c
100051c6:	f001 fa05 	bl	100065d4 <vClearInterruptMaskFromISR>
100051ca:	0020      	movs	r0, r4
100051cc:	bd10      	pop	{r4, pc}
100051ce:	4b01      	ldr	r3, [pc, #4]	; (100051d4 <uxTaskPriorityGetFromISR+0x1c>)
100051d0:	6d9c      	ldr	r4, [r3, #88]	; 0x58
100051d2:	e7f7      	b.n	100051c4 <uxTaskPriorityGetFromISR+0xc>
100051d4:	20000d3c 	.word	0x20000d3c

100051d8 <vTaskPrioritySet>:
100051d8:	b570      	push	{r4, r5, r6, lr}
100051da:	0004      	movs	r4, r0
100051dc:	000d      	movs	r5, r1
100051de:	2904      	cmp	r1, #4
100051e0:	d900      	bls.n	100051e4 <vTaskPrioritySet+0xc>
100051e2:	2504      	movs	r5, #4
100051e4:	f001 f9dc 	bl	100065a0 <vPortEnterCritical>
100051e8:	2c00      	cmp	r4, #0
100051ea:	d00e      	beq.n	1000520a <vTaskPrioritySet+0x32>
100051ec:	6ae3      	ldr	r3, [r4, #44]	; 0x2c
100051ee:	429d      	cmp	r5, r3
100051f0:	d026      	beq.n	10005240 <vTaskPrioritySet+0x68>
100051f2:	d90d      	bls.n	10005210 <vTaskPrioritySet+0x38>
100051f4:	4a2a      	ldr	r2, [pc, #168]	; (100052a0 <vTaskPrioritySet+0xc8>)
100051f6:	6d92      	ldr	r2, [r2, #88]	; 0x58
100051f8:	42a2      	cmp	r2, r4
100051fa:	d024      	beq.n	10005246 <vTaskPrioritySet+0x6e>
100051fc:	4a28      	ldr	r2, [pc, #160]	; (100052a0 <vTaskPrioritySet+0xc8>)
100051fe:	6d92      	ldr	r2, [r2, #88]	; 0x58
10005200:	6ad2      	ldr	r2, [r2, #44]	; 0x2c
10005202:	42aa      	cmp	r2, r5
10005204:	d921      	bls.n	1000524a <vTaskPrioritySet+0x72>
10005206:	2600      	movs	r6, #0
10005208:	e007      	b.n	1000521a <vTaskPrioritySet+0x42>
1000520a:	4b25      	ldr	r3, [pc, #148]	; (100052a0 <vTaskPrioritySet+0xc8>)
1000520c:	6d9c      	ldr	r4, [r3, #88]	; 0x58
1000520e:	e7ed      	b.n	100051ec <vTaskPrioritySet+0x14>
10005210:	4a23      	ldr	r2, [pc, #140]	; (100052a0 <vTaskPrioritySet+0xc8>)
10005212:	6d92      	ldr	r2, [r2, #88]	; 0x58
10005214:	42a2      	cmp	r2, r4
10005216:	d01a      	beq.n	1000524e <vTaskPrioritySet+0x76>
10005218:	2600      	movs	r6, #0
1000521a:	62e5      	str	r5, [r4, #44]	; 0x2c
1000521c:	69a2      	ldr	r2, [r4, #24]
1000521e:	2a00      	cmp	r2, #0
10005220:	db02      	blt.n	10005228 <vTaskPrioritySet+0x50>
10005222:	2105      	movs	r1, #5
10005224:	1b4d      	subs	r5, r1, r5
10005226:	61a5      	str	r5, [r4, #24]
10005228:	4a1e      	ldr	r2, [pc, #120]	; (100052a4 <vTaskPrioritySet+0xcc>)
1000522a:	0099      	lsls	r1, r3, #2
1000522c:	18c9      	adds	r1, r1, r3
1000522e:	0089      	lsls	r1, r1, #2
10005230:	0013      	movs	r3, r2
10005232:	3330      	adds	r3, #48	; 0x30
10005234:	185b      	adds	r3, r3, r1
10005236:	6962      	ldr	r2, [r4, #20]
10005238:	429a      	cmp	r2, r3
1000523a:	d00a      	beq.n	10005252 <vTaskPrioritySet+0x7a>
1000523c:	2e00      	cmp	r6, #0
1000523e:	d12c      	bne.n	1000529a <vTaskPrioritySet+0xc2>
10005240:	f001 f9ba 	bl	100065b8 <vPortExitCritical>
10005244:	bd70      	pop	{r4, r5, r6, pc}
10005246:	2600      	movs	r6, #0
10005248:	e7e7      	b.n	1000521a <vTaskPrioritySet+0x42>
1000524a:	2601      	movs	r6, #1
1000524c:	e7e5      	b.n	1000521a <vTaskPrioritySet+0x42>
1000524e:	2601      	movs	r6, #1
10005250:	e7e3      	b.n	1000521a <vTaskPrioritySet+0x42>
10005252:	1d25      	adds	r5, r4, #4
10005254:	0028      	movs	r0, r5
10005256:	f001 fa59 	bl	1000670c <uxListRemove>
1000525a:	6ae3      	ldr	r3, [r4, #44]	; 0x2c
1000525c:	4a10      	ldr	r2, [pc, #64]	; (100052a0 <vTaskPrioritySet+0xc8>)
1000525e:	6e52      	ldr	r2, [r2, #100]	; 0x64
10005260:	4293      	cmp	r3, r2
10005262:	d901      	bls.n	10005268 <vTaskPrioritySet+0x90>
10005264:	4a0e      	ldr	r2, [pc, #56]	; (100052a0 <vTaskPrioritySet+0xc8>)
10005266:	6653      	str	r3, [r2, #100]	; 0x64
10005268:	490e      	ldr	r1, [pc, #56]	; (100052a4 <vTaskPrioritySet+0xcc>)
1000526a:	009a      	lsls	r2, r3, #2
1000526c:	18d2      	adds	r2, r2, r3
1000526e:	0092      	lsls	r2, r2, #2
10005270:	188a      	adds	r2, r1, r2
10005272:	6b53      	ldr	r3, [r2, #52]	; 0x34
10005274:	60a3      	str	r3, [r4, #8]
10005276:	689a      	ldr	r2, [r3, #8]
10005278:	60e2      	str	r2, [r4, #12]
1000527a:	6055      	str	r5, [r2, #4]
1000527c:	609d      	str	r5, [r3, #8]
1000527e:	6ae0      	ldr	r0, [r4, #44]	; 0x2c
10005280:	000a      	movs	r2, r1
10005282:	3230      	adds	r2, #48	; 0x30
10005284:	0083      	lsls	r3, r0, #2
10005286:	181d      	adds	r5, r3, r0
10005288:	00ad      	lsls	r5, r5, #2
1000528a:	1952      	adds	r2, r2, r5
1000528c:	6162      	str	r2, [r4, #20]
1000528e:	194a      	adds	r2, r1, r5
10005290:	6b12      	ldr	r2, [r2, #48]	; 0x30
10005292:	3201      	adds	r2, #1
10005294:	194b      	adds	r3, r1, r5
10005296:	631a      	str	r2, [r3, #48]	; 0x30
10005298:	e7d0      	b.n	1000523c <vTaskPrioritySet+0x64>
1000529a:	f001 f975 	bl	10006588 <vPortYield>
1000529e:	e7cf      	b.n	10005240 <vTaskPrioritySet+0x68>
100052a0:	20000d3c 	.word	0x20000d3c
100052a4:	20000cbc 	.word	0x20000cbc

100052a8 <vTaskResume>:
100052a8:	b570      	push	{r4, r5, r6, lr}
100052aa:	0004      	movs	r4, r0
100052ac:	4b1d      	ldr	r3, [pc, #116]	; (10005324 <vTaskResume+0x7c>)
100052ae:	6d9b      	ldr	r3, [r3, #88]	; 0x58
100052b0:	4283      	cmp	r3, r0
100052b2:	d00a      	beq.n	100052ca <vTaskResume+0x22>
100052b4:	2800      	cmp	r0, #0
100052b6:	d008      	beq.n	100052ca <vTaskResume+0x22>
100052b8:	f001 f972 	bl	100065a0 <vPortEnterCritical>
100052bc:	0020      	movs	r0, r4
100052be:	f7ff fd95 	bl	10004dec <prvTaskIsTaskSuspended>
100052c2:	2800      	cmp	r0, #0
100052c4:	d102      	bne.n	100052cc <vTaskResume+0x24>
100052c6:	f001 f977 	bl	100065b8 <vPortExitCritical>
100052ca:	bd70      	pop	{r4, r5, r6, pc}
100052cc:	1d25      	adds	r5, r4, #4
100052ce:	0028      	movs	r0, r5
100052d0:	f001 fa1c 	bl	1000670c <uxListRemove>
100052d4:	6ae3      	ldr	r3, [r4, #44]	; 0x2c
100052d6:	4a13      	ldr	r2, [pc, #76]	; (10005324 <vTaskResume+0x7c>)
100052d8:	6e52      	ldr	r2, [r2, #100]	; 0x64
100052da:	4293      	cmp	r3, r2
100052dc:	d901      	bls.n	100052e2 <vTaskResume+0x3a>
100052de:	4a11      	ldr	r2, [pc, #68]	; (10005324 <vTaskResume+0x7c>)
100052e0:	6653      	str	r3, [r2, #100]	; 0x64
100052e2:	4911      	ldr	r1, [pc, #68]	; (10005328 <vTaskResume+0x80>)
100052e4:	009a      	lsls	r2, r3, #2
100052e6:	18d2      	adds	r2, r2, r3
100052e8:	0092      	lsls	r2, r2, #2
100052ea:	188a      	adds	r2, r1, r2
100052ec:	6b53      	ldr	r3, [r2, #52]	; 0x34
100052ee:	60a3      	str	r3, [r4, #8]
100052f0:	689a      	ldr	r2, [r3, #8]
100052f2:	60e2      	str	r2, [r4, #12]
100052f4:	6055      	str	r5, [r2, #4]
100052f6:	609d      	str	r5, [r3, #8]
100052f8:	6ae0      	ldr	r0, [r4, #44]	; 0x2c
100052fa:	000a      	movs	r2, r1
100052fc:	3230      	adds	r2, #48	; 0x30
100052fe:	0083      	lsls	r3, r0, #2
10005300:	181d      	adds	r5, r3, r0
10005302:	00ad      	lsls	r5, r5, #2
10005304:	1952      	adds	r2, r2, r5
10005306:	6162      	str	r2, [r4, #20]
10005308:	194a      	adds	r2, r1, r5
1000530a:	6b12      	ldr	r2, [r2, #48]	; 0x30
1000530c:	3201      	adds	r2, #1
1000530e:	194b      	adds	r3, r1, r5
10005310:	631a      	str	r2, [r3, #48]	; 0x30
10005312:	6ae2      	ldr	r2, [r4, #44]	; 0x2c
10005314:	4b03      	ldr	r3, [pc, #12]	; (10005324 <vTaskResume+0x7c>)
10005316:	6d9b      	ldr	r3, [r3, #88]	; 0x58
10005318:	6adb      	ldr	r3, [r3, #44]	; 0x2c
1000531a:	429a      	cmp	r2, r3
1000531c:	d3d3      	bcc.n	100052c6 <vTaskResume+0x1e>
1000531e:	f001 f933 	bl	10006588 <vPortYield>
10005322:	e7d0      	b.n	100052c6 <vTaskResume+0x1e>
10005324:	20000d3c 	.word	0x20000d3c
10005328:	20000cbc 	.word	0x20000cbc

1000532c <xTaskResumeFromISR>:
1000532c:	b5f8      	push	{r3, r4, r5, r6, r7, lr}
1000532e:	0004      	movs	r4, r0
10005330:	f001 f94c 	bl	100065cc <ulSetInterruptMaskFromISR>
10005334:	0006      	movs	r6, r0
10005336:	0020      	movs	r0, r4
10005338:	f7ff fd58 	bl	10004dec <prvTaskIsTaskSuspended>
1000533c:	1e05      	subs	r5, r0, #0
1000533e:	d030      	beq.n	100053a2 <xTaskResumeFromISR+0x76>
10005340:	4b1f      	ldr	r3, [pc, #124]	; (100053c0 <xTaskResumeFromISR+0x94>)
10005342:	6f1b      	ldr	r3, [r3, #112]	; 0x70
10005344:	2b00      	cmp	r3, #0
10005346:	d133      	bne.n	100053b0 <xTaskResumeFromISR+0x84>
10005348:	4b1d      	ldr	r3, [pc, #116]	; (100053c0 <xTaskResumeFromISR+0x94>)
1000534a:	6d9b      	ldr	r3, [r3, #88]	; 0x58
1000534c:	6adb      	ldr	r3, [r3, #44]	; 0x2c
1000534e:	6ae2      	ldr	r2, [r4, #44]	; 0x2c
10005350:	429a      	cmp	r2, r3
10005352:	d32b      	bcc.n	100053ac <xTaskResumeFromISR+0x80>
10005354:	4b1a      	ldr	r3, [pc, #104]	; (100053c0 <xTaskResumeFromISR+0x94>)
10005356:	2201      	movs	r2, #1
10005358:	675a      	str	r2, [r3, #116]	; 0x74
1000535a:	2501      	movs	r5, #1
1000535c:	1d27      	adds	r7, r4, #4
1000535e:	0038      	movs	r0, r7
10005360:	f001 f9d4 	bl	1000670c <uxListRemove>
10005364:	6ae3      	ldr	r3, [r4, #44]	; 0x2c
10005366:	4a16      	ldr	r2, [pc, #88]	; (100053c0 <xTaskResumeFromISR+0x94>)
10005368:	6e52      	ldr	r2, [r2, #100]	; 0x64
1000536a:	4293      	cmp	r3, r2
1000536c:	d901      	bls.n	10005372 <xTaskResumeFromISR+0x46>
1000536e:	4a14      	ldr	r2, [pc, #80]	; (100053c0 <xTaskResumeFromISR+0x94>)
10005370:	6653      	str	r3, [r2, #100]	; 0x64
10005372:	4914      	ldr	r1, [pc, #80]	; (100053c4 <xTaskResumeFromISR+0x98>)
10005374:	009a      	lsls	r2, r3, #2
10005376:	18d2      	adds	r2, r2, r3
10005378:	0092      	lsls	r2, r2, #2
1000537a:	188a      	adds	r2, r1, r2
1000537c:	6b53      	ldr	r3, [r2, #52]	; 0x34
1000537e:	60a3      	str	r3, [r4, #8]
10005380:	689a      	ldr	r2, [r3, #8]
10005382:	60e2      	str	r2, [r4, #12]
10005384:	6057      	str	r7, [r2, #4]
10005386:	609f      	str	r7, [r3, #8]
10005388:	6ae0      	ldr	r0, [r4, #44]	; 0x2c
1000538a:	000a      	movs	r2, r1
1000538c:	3230      	adds	r2, #48	; 0x30
1000538e:	0083      	lsls	r3, r0, #2
10005390:	181f      	adds	r7, r3, r0
10005392:	00bf      	lsls	r7, r7, #2
10005394:	19d2      	adds	r2, r2, r7
10005396:	6162      	str	r2, [r4, #20]
10005398:	19ca      	adds	r2, r1, r7
1000539a:	6b12      	ldr	r2, [r2, #48]	; 0x30
1000539c:	3201      	adds	r2, #1
1000539e:	19cb      	adds	r3, r1, r7
100053a0:	631a      	str	r2, [r3, #48]	; 0x30
100053a2:	0030      	movs	r0, r6
100053a4:	f001 f916 	bl	100065d4 <vClearInterruptMaskFromISR>
100053a8:	0028      	movs	r0, r5
100053aa:	bdf8      	pop	{r3, r4, r5, r6, r7, pc}
100053ac:	2500      	movs	r5, #0
100053ae:	e7d5      	b.n	1000535c <xTaskResumeFromISR+0x30>
100053b0:	0021      	movs	r1, r4
100053b2:	3118      	adds	r1, #24
100053b4:	4803      	ldr	r0, [pc, #12]	; (100053c4 <xTaskResumeFromISR+0x98>)
100053b6:	3014      	adds	r0, #20
100053b8:	f001 f986 	bl	100066c8 <vListInsertEnd>
100053bc:	2500      	movs	r5, #0
100053be:	e7f0      	b.n	100053a2 <xTaskResumeFromISR+0x76>
100053c0:	20000d3c 	.word	0x20000d3c
100053c4:	20000cbc 	.word	0x20000cbc

100053c8 <vTaskStartScheduler>:
100053c8:	b500      	push	{lr}
100053ca:	b083      	sub	sp, #12
100053cc:	4b10      	ldr	r3, [pc, #64]	; (10005410 <vTaskStartScheduler+0x48>)
100053ce:	3378      	adds	r3, #120	; 0x78
100053d0:	9301      	str	r3, [sp, #4]
100053d2:	2300      	movs	r3, #0
100053d4:	9300      	str	r3, [sp, #0]
100053d6:	2280      	movs	r2, #128	; 0x80
100053d8:	490e      	ldr	r1, [pc, #56]	; (10005414 <vTaskStartScheduler+0x4c>)
100053da:	480f      	ldr	r0, [pc, #60]	; (10005418 <vTaskStartScheduler+0x50>)
100053dc:	f7ff fe66 	bl	100050ac <xTaskCreate>
100053e0:	2801      	cmp	r0, #1
100053e2:	d005      	beq.n	100053f0 <vTaskStartScheduler+0x28>
100053e4:	2801      	cmp	r0, #1
100053e6:	d006      	beq.n	100053f6 <vTaskStartScheduler+0x2e>
100053e8:	4b0c      	ldr	r3, [pc, #48]	; (1000541c <vTaskStartScheduler+0x54>)
100053ea:	681b      	ldr	r3, [r3, #0]
100053ec:	b003      	add	sp, #12
100053ee:	bd00      	pop	{pc}
100053f0:	f000 ffc5 	bl	1000637e <xTimerCreateTimerTask>
100053f4:	e7f6      	b.n	100053e4 <vTaskStartScheduler+0x1c>
100053f6:	b672      	cpsid	i
100053f8:	4b09      	ldr	r3, [pc, #36]	; (10005420 <vTaskStartScheduler+0x58>)
100053fa:	2201      	movs	r2, #1
100053fc:	4252      	negs	r2, r2
100053fe:	62da      	str	r2, [r3, #44]	; 0x2c
10005400:	4b03      	ldr	r3, [pc, #12]	; (10005410 <vTaskStartScheduler+0x48>)
10005402:	3202      	adds	r2, #2
10005404:	65da      	str	r2, [r3, #92]	; 0x5c
10005406:	2200      	movs	r2, #0
10005408:	66da      	str	r2, [r3, #108]	; 0x6c
1000540a:	f001 f931 	bl	10006670 <xPortStartScheduler>
1000540e:	e7eb      	b.n	100053e8 <vTaskStartScheduler+0x20>
10005410:	20000d3c 	.word	0x20000d3c
10005414:	10007eec 	.word	0x10007eec
10005418:	10005015 	.word	0x10005015
1000541c:	200002e8 	.word	0x200002e8
10005420:	20000cbc 	.word	0x20000cbc

10005424 <vTaskEndScheduler>:
10005424:	b510      	push	{r4, lr}
10005426:	b672      	cpsid	i
10005428:	4b02      	ldr	r3, [pc, #8]	; (10005434 <vTaskEndScheduler+0x10>)
1000542a:	2200      	movs	r2, #0
1000542c:	65da      	str	r2, [r3, #92]	; 0x5c
1000542e:	f001 f8aa 	bl	10006586 <vPortEndScheduler>
10005432:	bd10      	pop	{r4, pc}
10005434:	20000d3c 	.word	0x20000d3c

10005438 <vTaskSuspendAll>:
10005438:	4a02      	ldr	r2, [pc, #8]	; (10005444 <vTaskSuspendAll+0xc>)
1000543a:	6f13      	ldr	r3, [r2, #112]	; 0x70
1000543c:	3301      	adds	r3, #1
1000543e:	6713      	str	r3, [r2, #112]	; 0x70
10005440:	4770      	bx	lr
10005442:	46c0      	nop			; (mov r8, r8)
10005444:	20000d3c 	.word	0x20000d3c

10005448 <xTaskGetTickCount>:
10005448:	4b01      	ldr	r3, [pc, #4]	; (10005450 <xTaskGetTickCount+0x8>)
1000544a:	6ed8      	ldr	r0, [r3, #108]	; 0x6c
1000544c:	4770      	bx	lr
1000544e:	46c0      	nop			; (mov r8, r8)
10005450:	20000d3c 	.word	0x20000d3c

10005454 <xTaskGetTickCountFromISR>:
10005454:	4b01      	ldr	r3, [pc, #4]	; (1000545c <xTaskGetTickCountFromISR+0x8>)
10005456:	6ed8      	ldr	r0, [r3, #108]	; 0x6c
10005458:	4770      	bx	lr
1000545a:	46c0      	nop			; (mov r8, r8)
1000545c:	20000d3c 	.word	0x20000d3c

10005460 <uxTaskGetNumberOfTasks>:
10005460:	4b01      	ldr	r3, [pc, #4]	; (10005468 <uxTaskGetNumberOfTasks+0x8>)
10005462:	6d58      	ldr	r0, [r3, #84]	; 0x54
10005464:	4770      	bx	lr
10005466:	46c0      	nop			; (mov r8, r8)
10005468:	20000d3c 	.word	0x20000d3c

1000546c <pcTaskGetName>:
1000546c:	2800      	cmp	r0, #0
1000546e:	d001      	beq.n	10005474 <pcTaskGetName+0x8>
10005470:	3034      	adds	r0, #52	; 0x34
10005472:	4770      	bx	lr
10005474:	4b01      	ldr	r3, [pc, #4]	; (1000547c <pcTaskGetName+0x10>)
10005476:	6d98      	ldr	r0, [r3, #88]	; 0x58
10005478:	e7fa      	b.n	10005470 <pcTaskGetName+0x4>
1000547a:	46c0      	nop			; (mov r8, r8)
1000547c:	20000d3c 	.word	0x20000d3c

10005480 <xTaskIncrementTick>:
10005480:	b5f8      	push	{r3, r4, r5, r6, r7, lr}
10005482:	4b47      	ldr	r3, [pc, #284]	; (100055a0 <xTaskIncrementTick+0x120>)
10005484:	6f1b      	ldr	r3, [r3, #112]	; 0x70
10005486:	2b00      	cmp	r3, #0
10005488:	d000      	beq.n	1000548c <xTaskIncrementTick+0xc>
1000548a:	e082      	b.n	10005592 <xTaskIncrementTick+0x112>
1000548c:	4b44      	ldr	r3, [pc, #272]	; (100055a0 <xTaskIncrementTick+0x120>)
1000548e:	6ede      	ldr	r6, [r3, #108]	; 0x6c
10005490:	3601      	adds	r6, #1
10005492:	66de      	str	r6, [r3, #108]	; 0x6c
10005494:	2e00      	cmp	r6, #0
10005496:	d00a      	beq.n	100054ae <xTaskIncrementTick+0x2e>
10005498:	4b42      	ldr	r3, [pc, #264]	; (100055a4 <xTaskIncrementTick+0x124>)
1000549a:	6adb      	ldr	r3, [r3, #44]	; 0x2c
1000549c:	42b3      	cmp	r3, r6
1000549e:	d911      	bls.n	100054c4 <xTaskIncrementTick+0x44>
100054a0:	2000      	movs	r0, #0
100054a2:	4b3f      	ldr	r3, [pc, #252]	; (100055a0 <xTaskIncrementTick+0x120>)
100054a4:	6f5b      	ldr	r3, [r3, #116]	; 0x74
100054a6:	2b00      	cmp	r3, #0
100054a8:	d078      	beq.n	1000559c <xTaskIncrementTick+0x11c>
100054aa:	2001      	movs	r0, #1
100054ac:	e076      	b.n	1000559c <xTaskIncrementTick+0x11c>
100054ae:	4a3d      	ldr	r2, [pc, #244]	; (100055a4 <xTaskIncrementTick+0x124>)
100054b0:	6a91      	ldr	r1, [r2, #40]	; 0x28
100054b2:	6d18      	ldr	r0, [r3, #80]	; 0x50
100054b4:	6290      	str	r0, [r2, #40]	; 0x28
100054b6:	6519      	str	r1, [r3, #80]	; 0x50
100054b8:	6fda      	ldr	r2, [r3, #124]	; 0x7c
100054ba:	3201      	adds	r2, #1
100054bc:	67da      	str	r2, [r3, #124]	; 0x7c
100054be:	f7ff fca9 	bl	10004e14 <prvResetNextTaskUnblockTime>
100054c2:	e7e9      	b.n	10005498 <xTaskIncrementTick+0x18>
100054c4:	2000      	movs	r0, #0
100054c6:	e039      	b.n	1000553c <xTaskIncrementTick+0xbc>
100054c8:	4b36      	ldr	r3, [pc, #216]	; (100055a4 <xTaskIncrementTick+0x124>)
100054ca:	2201      	movs	r2, #1
100054cc:	4252      	negs	r2, r2
100054ce:	62da      	str	r2, [r3, #44]	; 0x2c
100054d0:	e7e7      	b.n	100054a2 <xTaskIncrementTick+0x22>
100054d2:	4b34      	ldr	r3, [pc, #208]	; (100055a4 <xTaskIncrementTick+0x124>)
100054d4:	62da      	str	r2, [r3, #44]	; 0x2c
100054d6:	e7e4      	b.n	100054a2 <xTaskIncrementTick+0x22>
100054d8:	68d9      	ldr	r1, [r3, #12]
100054da:	6051      	str	r1, [r2, #4]
100054dc:	e044      	b.n	10005568 <xTaskIncrementTick+0xe8>
100054de:	2100      	movs	r1, #0
100054e0:	6299      	str	r1, [r3, #40]	; 0x28
100054e2:	6811      	ldr	r1, [r2, #0]
100054e4:	3901      	subs	r1, #1
100054e6:	6011      	str	r1, [r2, #0]
100054e8:	6ad9      	ldr	r1, [r3, #44]	; 0x2c
100054ea:	4a2d      	ldr	r2, [pc, #180]	; (100055a0 <xTaskIncrementTick+0x120>)
100054ec:	6e52      	ldr	r2, [r2, #100]	; 0x64
100054ee:	4291      	cmp	r1, r2
100054f0:	d901      	bls.n	100054f6 <xTaskIncrementTick+0x76>
100054f2:	4a2b      	ldr	r2, [pc, #172]	; (100055a0 <xTaskIncrementTick+0x120>)
100054f4:	6651      	str	r1, [r2, #100]	; 0x64
100054f6:	4a2b      	ldr	r2, [pc, #172]	; (100055a4 <xTaskIncrementTick+0x124>)
100054f8:	008c      	lsls	r4, r1, #2
100054fa:	1864      	adds	r4, r4, r1
100054fc:	00a1      	lsls	r1, r4, #2
100054fe:	1851      	adds	r1, r2, r1
10005500:	6b49      	ldr	r1, [r1, #52]	; 0x34
10005502:	6099      	str	r1, [r3, #8]
10005504:	688c      	ldr	r4, [r1, #8]
10005506:	60dc      	str	r4, [r3, #12]
10005508:	6065      	str	r5, [r4, #4]
1000550a:	608d      	str	r5, [r1, #8]
1000550c:	6adc      	ldr	r4, [r3, #44]	; 0x2c
1000550e:	0015      	movs	r5, r2
10005510:	3530      	adds	r5, #48	; 0x30
10005512:	00a1      	lsls	r1, r4, #2
10005514:	190f      	adds	r7, r1, r4
10005516:	46bc      	mov	ip, r7
10005518:	00bf      	lsls	r7, r7, #2
1000551a:	19ed      	adds	r5, r5, r7
1000551c:	615d      	str	r5, [r3, #20]
1000551e:	4667      	mov	r7, ip
10005520:	00bd      	lsls	r5, r7, #2
10005522:	1955      	adds	r5, r2, r5
10005524:	6b2d      	ldr	r5, [r5, #48]	; 0x30
10005526:	3501      	adds	r5, #1
10005528:	00bc      	lsls	r4, r7, #2
1000552a:	1912      	adds	r2, r2, r4
1000552c:	6315      	str	r5, [r2, #48]	; 0x30
1000552e:	6ada      	ldr	r2, [r3, #44]	; 0x2c
10005530:	4b1b      	ldr	r3, [pc, #108]	; (100055a0 <xTaskIncrementTick+0x120>)
10005532:	6d9b      	ldr	r3, [r3, #88]	; 0x58
10005534:	6adb      	ldr	r3, [r3, #44]	; 0x2c
10005536:	429a      	cmp	r2, r3
10005538:	d300      	bcc.n	1000553c <xTaskIncrementTick+0xbc>
1000553a:	2001      	movs	r0, #1
1000553c:	4b19      	ldr	r3, [pc, #100]	; (100055a4 <xTaskIncrementTick+0x124>)
1000553e:	6a9b      	ldr	r3, [r3, #40]	; 0x28
10005540:	681b      	ldr	r3, [r3, #0]
10005542:	2b00      	cmp	r3, #0
10005544:	d0c0      	beq.n	100054c8 <xTaskIncrementTick+0x48>
10005546:	4b17      	ldr	r3, [pc, #92]	; (100055a4 <xTaskIncrementTick+0x124>)
10005548:	6a9b      	ldr	r3, [r3, #40]	; 0x28
1000554a:	68db      	ldr	r3, [r3, #12]
1000554c:	68db      	ldr	r3, [r3, #12]
1000554e:	685a      	ldr	r2, [r3, #4]
10005550:	4296      	cmp	r6, r2
10005552:	d3be      	bcc.n	100054d2 <xTaskIncrementTick+0x52>
10005554:	695a      	ldr	r2, [r3, #20]
10005556:	689c      	ldr	r4, [r3, #8]
10005558:	68d9      	ldr	r1, [r3, #12]
1000555a:	60a1      	str	r1, [r4, #8]
1000555c:	689c      	ldr	r4, [r3, #8]
1000555e:	604c      	str	r4, [r1, #4]
10005560:	1d1d      	adds	r5, r3, #4
10005562:	6851      	ldr	r1, [r2, #4]
10005564:	42a9      	cmp	r1, r5
10005566:	d0b7      	beq.n	100054d8 <xTaskIncrementTick+0x58>
10005568:	2100      	movs	r1, #0
1000556a:	6159      	str	r1, [r3, #20]
1000556c:	6811      	ldr	r1, [r2, #0]
1000556e:	3901      	subs	r1, #1
10005570:	6011      	str	r1, [r2, #0]
10005572:	6a9a      	ldr	r2, [r3, #40]	; 0x28
10005574:	2a00      	cmp	r2, #0
10005576:	d0b7      	beq.n	100054e8 <xTaskIncrementTick+0x68>
10005578:	69dc      	ldr	r4, [r3, #28]
1000557a:	6a19      	ldr	r1, [r3, #32]
1000557c:	60a1      	str	r1, [r4, #8]
1000557e:	69dc      	ldr	r4, [r3, #28]
10005580:	604c      	str	r4, [r1, #4]
10005582:	0019      	movs	r1, r3
10005584:	3118      	adds	r1, #24
10005586:	6854      	ldr	r4, [r2, #4]
10005588:	428c      	cmp	r4, r1
1000558a:	d1a8      	bne.n	100054de <xTaskIncrementTick+0x5e>
1000558c:	6a19      	ldr	r1, [r3, #32]
1000558e:	6051      	str	r1, [r2, #4]
10005590:	e7a5      	b.n	100054de <xTaskIncrementTick+0x5e>
10005592:	4a05      	ldr	r2, [pc, #20]	; (100055a8 <xTaskIncrementTick+0x128>)
10005594:	6813      	ldr	r3, [r2, #0]
10005596:	3301      	adds	r3, #1
10005598:	6013      	str	r3, [r2, #0]
1000559a:	2000      	movs	r0, #0
1000559c:	bdf8      	pop	{r3, r4, r5, r6, r7, pc}
1000559e:	46c0      	nop			; (mov r8, r8)
100055a0:	20000d3c 	.word	0x20000d3c
100055a4:	20000cbc 	.word	0x20000cbc
100055a8:	20000dbc 	.word	0x20000dbc

100055ac <xTaskResumeAll>:
100055ac:	b570      	push	{r4, r5, r6, lr}
100055ae:	f000 fff7 	bl	100065a0 <vPortEnterCritical>
100055b2:	4b43      	ldr	r3, [pc, #268]	; (100056c0 <xTaskResumeAll+0x114>)
100055b4:	6f1a      	ldr	r2, [r3, #112]	; 0x70
100055b6:	3a01      	subs	r2, #1
100055b8:	671a      	str	r2, [r3, #112]	; 0x70
100055ba:	6f1b      	ldr	r3, [r3, #112]	; 0x70
100055bc:	2b00      	cmp	r3, #0
100055be:	d17a      	bne.n	100056b6 <xTaskResumeAll+0x10a>
100055c0:	4b3f      	ldr	r3, [pc, #252]	; (100056c0 <xTaskResumeAll+0x114>)
100055c2:	6d5b      	ldr	r3, [r3, #84]	; 0x54
100055c4:	2b00      	cmp	r3, #0
100055c6:	d107      	bne.n	100055d8 <xTaskResumeAll+0x2c>
100055c8:	2400      	movs	r4, #0
100055ca:	e075      	b.n	100056b8 <xTaskResumeAll+0x10c>
100055cc:	6a19      	ldr	r1, [r3, #32]
100055ce:	6051      	str	r1, [r2, #4]
100055d0:	e015      	b.n	100055fe <xTaskResumeAll+0x52>
100055d2:	68d9      	ldr	r1, [r3, #12]
100055d4:	6051      	str	r1, [r2, #4]
100055d6:	e021      	b.n	1000561c <xTaskResumeAll+0x70>
100055d8:	2300      	movs	r3, #0
100055da:	4a3a      	ldr	r2, [pc, #232]	; (100056c4 <xTaskResumeAll+0x118>)
100055dc:	6952      	ldr	r2, [r2, #20]
100055de:	2a00      	cmp	r2, #0
100055e0:	d04a      	beq.n	10005678 <xTaskResumeAll+0xcc>
100055e2:	4b38      	ldr	r3, [pc, #224]	; (100056c4 <xTaskResumeAll+0x118>)
100055e4:	6a1b      	ldr	r3, [r3, #32]
100055e6:	68db      	ldr	r3, [r3, #12]
100055e8:	6a9a      	ldr	r2, [r3, #40]	; 0x28
100055ea:	69d8      	ldr	r0, [r3, #28]
100055ec:	6a19      	ldr	r1, [r3, #32]
100055ee:	6081      	str	r1, [r0, #8]
100055f0:	69d8      	ldr	r0, [r3, #28]
100055f2:	6048      	str	r0, [r1, #4]
100055f4:	0019      	movs	r1, r3
100055f6:	3118      	adds	r1, #24
100055f8:	6850      	ldr	r0, [r2, #4]
100055fa:	4288      	cmp	r0, r1
100055fc:	d0e6      	beq.n	100055cc <xTaskResumeAll+0x20>
100055fe:	2100      	movs	r1, #0
10005600:	6299      	str	r1, [r3, #40]	; 0x28
10005602:	6811      	ldr	r1, [r2, #0]
10005604:	3901      	subs	r1, #1
10005606:	6011      	str	r1, [r2, #0]
10005608:	695a      	ldr	r2, [r3, #20]
1000560a:	6898      	ldr	r0, [r3, #8]
1000560c:	68d9      	ldr	r1, [r3, #12]
1000560e:	6081      	str	r1, [r0, #8]
10005610:	6898      	ldr	r0, [r3, #8]
10005612:	6048      	str	r0, [r1, #4]
10005614:	1d1c      	adds	r4, r3, #4
10005616:	6851      	ldr	r1, [r2, #4]
10005618:	42a1      	cmp	r1, r4
1000561a:	d0da      	beq.n	100055d2 <xTaskResumeAll+0x26>
1000561c:	2100      	movs	r1, #0
1000561e:	6159      	str	r1, [r3, #20]
10005620:	6811      	ldr	r1, [r2, #0]
10005622:	3901      	subs	r1, #1
10005624:	6011      	str	r1, [r2, #0]
10005626:	6ada      	ldr	r2, [r3, #44]	; 0x2c
10005628:	4925      	ldr	r1, [pc, #148]	; (100056c0 <xTaskResumeAll+0x114>)
1000562a:	6e49      	ldr	r1, [r1, #100]	; 0x64
1000562c:	428a      	cmp	r2, r1
1000562e:	d901      	bls.n	10005634 <xTaskResumeAll+0x88>
10005630:	4923      	ldr	r1, [pc, #140]	; (100056c0 <xTaskResumeAll+0x114>)
10005632:	664a      	str	r2, [r1, #100]	; 0x64
10005634:	4823      	ldr	r0, [pc, #140]	; (100056c4 <xTaskResumeAll+0x118>)
10005636:	0091      	lsls	r1, r2, #2
10005638:	1889      	adds	r1, r1, r2
1000563a:	0089      	lsls	r1, r1, #2
1000563c:	1841      	adds	r1, r0, r1
1000563e:	6b4a      	ldr	r2, [r1, #52]	; 0x34
10005640:	609a      	str	r2, [r3, #8]
10005642:	6891      	ldr	r1, [r2, #8]
10005644:	60d9      	str	r1, [r3, #12]
10005646:	604c      	str	r4, [r1, #4]
10005648:	6094      	str	r4, [r2, #8]
1000564a:	6adc      	ldr	r4, [r3, #44]	; 0x2c
1000564c:	0001      	movs	r1, r0
1000564e:	3130      	adds	r1, #48	; 0x30
10005650:	00a2      	lsls	r2, r4, #2
10005652:	1915      	adds	r5, r2, r4
10005654:	00ad      	lsls	r5, r5, #2
10005656:	1949      	adds	r1, r1, r5
10005658:	6159      	str	r1, [r3, #20]
1000565a:	1941      	adds	r1, r0, r5
1000565c:	6b09      	ldr	r1, [r1, #48]	; 0x30
1000565e:	3101      	adds	r1, #1
10005660:	1942      	adds	r2, r0, r5
10005662:	6311      	str	r1, [r2, #48]	; 0x30
10005664:	4a16      	ldr	r2, [pc, #88]	; (100056c0 <xTaskResumeAll+0x114>)
10005666:	6d92      	ldr	r2, [r2, #88]	; 0x58
10005668:	6ad2      	ldr	r2, [r2, #44]	; 0x2c
1000566a:	6ad9      	ldr	r1, [r3, #44]	; 0x2c
1000566c:	4291      	cmp	r1, r2
1000566e:	d3b4      	bcc.n	100055da <xTaskResumeAll+0x2e>
10005670:	4a13      	ldr	r2, [pc, #76]	; (100056c0 <xTaskResumeAll+0x114>)
10005672:	2101      	movs	r1, #1
10005674:	6751      	str	r1, [r2, #116]	; 0x74
10005676:	e7b0      	b.n	100055da <xTaskResumeAll+0x2e>
10005678:	2b00      	cmp	r3, #0
1000567a:	d001      	beq.n	10005680 <xTaskResumeAll+0xd4>
1000567c:	f7ff fbca 	bl	10004e14 <prvResetNextTaskUnblockTime>
10005680:	4b11      	ldr	r3, [pc, #68]	; (100056c8 <xTaskResumeAll+0x11c>)
10005682:	681c      	ldr	r4, [r3, #0]
10005684:	2c00      	cmp	r4, #0
10005686:	d10a      	bne.n	1000569e <xTaskResumeAll+0xf2>
10005688:	4b0d      	ldr	r3, [pc, #52]	; (100056c0 <xTaskResumeAll+0x114>)
1000568a:	6f5c      	ldr	r4, [r3, #116]	; 0x74
1000568c:	2c00      	cmp	r4, #0
1000568e:	d013      	beq.n	100056b8 <xTaskResumeAll+0x10c>
10005690:	f000 ff7a 	bl	10006588 <vPortYield>
10005694:	2401      	movs	r4, #1
10005696:	e00f      	b.n	100056b8 <xTaskResumeAll+0x10c>
10005698:	3c01      	subs	r4, #1
1000569a:	2c00      	cmp	r4, #0
1000569c:	d007      	beq.n	100056ae <xTaskResumeAll+0x102>
1000569e:	f7ff feef 	bl	10005480 <xTaskIncrementTick>
100056a2:	2800      	cmp	r0, #0
100056a4:	d0f8      	beq.n	10005698 <xTaskResumeAll+0xec>
100056a6:	4b06      	ldr	r3, [pc, #24]	; (100056c0 <xTaskResumeAll+0x114>)
100056a8:	2201      	movs	r2, #1
100056aa:	675a      	str	r2, [r3, #116]	; 0x74
100056ac:	e7f4      	b.n	10005698 <xTaskResumeAll+0xec>
100056ae:	4b06      	ldr	r3, [pc, #24]	; (100056c8 <xTaskResumeAll+0x11c>)
100056b0:	2200      	movs	r2, #0
100056b2:	601a      	str	r2, [r3, #0]
100056b4:	e7e8      	b.n	10005688 <xTaskResumeAll+0xdc>
100056b6:	2400      	movs	r4, #0
100056b8:	f000 ff7e 	bl	100065b8 <vPortExitCritical>
100056bc:	0020      	movs	r0, r4
100056be:	bd70      	pop	{r4, r5, r6, pc}
100056c0:	20000d3c 	.word	0x20000d3c
100056c4:	20000cbc 	.word	0x20000cbc
100056c8:	20000dbc 	.word	0x20000dbc

100056cc <xTaskDelayUntil>:
100056cc:	b570      	push	{r4, r5, r6, lr}
100056ce:	0005      	movs	r5, r0
100056d0:	000c      	movs	r4, r1
100056d2:	f7ff feb1 	bl	10005438 <vTaskSuspendAll>
100056d6:	4b14      	ldr	r3, [pc, #80]	; (10005728 <xTaskDelayUntil+0x5c>)
100056d8:	6ed8      	ldr	r0, [r3, #108]	; 0x6c
100056da:	682b      	ldr	r3, [r5, #0]
100056dc:	191c      	adds	r4, r3, r4
100056de:	4283      	cmp	r3, r0
100056e0:	d90b      	bls.n	100056fa <xTaskDelayUntil+0x2e>
100056e2:	42a3      	cmp	r3, r4
100056e4:	d802      	bhi.n	100056ec <xTaskDelayUntil+0x20>
100056e6:	602c      	str	r4, [r5, #0]
100056e8:	2400      	movs	r4, #0
100056ea:	e010      	b.n	1000570e <xTaskDelayUntil+0x42>
100056ec:	42a0      	cmp	r0, r4
100056ee:	d302      	bcc.n	100056f6 <xTaskDelayUntil+0x2a>
100056f0:	602c      	str	r4, [r5, #0]
100056f2:	2400      	movs	r4, #0
100056f4:	e00b      	b.n	1000570e <xTaskDelayUntil+0x42>
100056f6:	602c      	str	r4, [r5, #0]
100056f8:	e004      	b.n	10005704 <xTaskDelayUntil+0x38>
100056fa:	42a3      	cmp	r3, r4
100056fc:	d801      	bhi.n	10005702 <xTaskDelayUntil+0x36>
100056fe:	42a0      	cmp	r0, r4
10005700:	d20b      	bcs.n	1000571a <xTaskDelayUntil+0x4e>
10005702:	602c      	str	r4, [r5, #0]
10005704:	1a20      	subs	r0, r4, r0
10005706:	2100      	movs	r1, #0
10005708:	f7ff fc90 	bl	1000502c <prvAddCurrentTaskToDelayedList>
1000570c:	2401      	movs	r4, #1
1000570e:	f7ff ff4d 	bl	100055ac <xTaskResumeAll>
10005712:	2800      	cmp	r0, #0
10005714:	d004      	beq.n	10005720 <xTaskDelayUntil+0x54>
10005716:	0020      	movs	r0, r4
10005718:	bd70      	pop	{r4, r5, r6, pc}
1000571a:	602c      	str	r4, [r5, #0]
1000571c:	2400      	movs	r4, #0
1000571e:	e7f6      	b.n	1000570e <xTaskDelayUntil+0x42>
10005720:	f000 ff32 	bl	10006588 <vPortYield>
10005724:	e7f7      	b.n	10005716 <xTaskDelayUntil+0x4a>
10005726:	46c0      	nop			; (mov r8, r8)
10005728:	20000d3c 	.word	0x20000d3c

1000572c <vTaskDelay>:
1000572c:	b510      	push	{r4, lr}
1000572e:	1e04      	subs	r4, r0, #0
10005730:	d009      	beq.n	10005746 <vTaskDelay+0x1a>
10005732:	f7ff fe81 	bl	10005438 <vTaskSuspendAll>
10005736:	2100      	movs	r1, #0
10005738:	0020      	movs	r0, r4
1000573a:	f7ff fc77 	bl	1000502c <prvAddCurrentTaskToDelayedList>
1000573e:	f7ff ff35 	bl	100055ac <xTaskResumeAll>
10005742:	2800      	cmp	r0, #0
10005744:	d101      	bne.n	1000574a <vTaskDelay+0x1e>
10005746:	f000 ff1f 	bl	10006588 <vPortYield>
1000574a:	bd10      	pop	{r4, pc}

1000574c <xTaskCatchUpTicks>:
1000574c:	b510      	push	{r4, lr}
1000574e:	0004      	movs	r4, r0
10005750:	f7ff fe72 	bl	10005438 <vTaskSuspendAll>
10005754:	f000 ff24 	bl	100065a0 <vPortEnterCritical>
10005758:	4b04      	ldr	r3, [pc, #16]	; (1000576c <xTaskCatchUpTicks+0x20>)
1000575a:	6818      	ldr	r0, [r3, #0]
1000575c:	1900      	adds	r0, r0, r4
1000575e:	6018      	str	r0, [r3, #0]
10005760:	f000 ff2a 	bl	100065b8 <vPortExitCritical>
10005764:	f7ff ff22 	bl	100055ac <xTaskResumeAll>
10005768:	bd10      	pop	{r4, pc}
1000576a:	46c0      	nop			; (mov r8, r8)
1000576c:	20000dbc 	.word	0x20000dbc

10005770 <vTaskSwitchContext>:
10005770:	b510      	push	{r4, lr}
10005772:	4b1b      	ldr	r3, [pc, #108]	; (100057e0 <vTaskSwitchContext+0x70>)
10005774:	6f1b      	ldr	r3, [r3, #112]	; 0x70
10005776:	2b00      	cmp	r3, #0
10005778:	d003      	beq.n	10005782 <vTaskSwitchContext+0x12>
1000577a:	4b19      	ldr	r3, [pc, #100]	; (100057e0 <vTaskSwitchContext+0x70>)
1000577c:	2201      	movs	r2, #1
1000577e:	675a      	str	r2, [r3, #116]	; 0x74
10005780:	bd10      	pop	{r4, pc}
10005782:	4b17      	ldr	r3, [pc, #92]	; (100057e0 <vTaskSwitchContext+0x70>)
10005784:	2200      	movs	r2, #0
10005786:	675a      	str	r2, [r3, #116]	; 0x74
10005788:	6e5b      	ldr	r3, [r3, #100]	; 0x64
1000578a:	e000      	b.n	1000578e <vTaskSwitchContext+0x1e>
1000578c:	3b01      	subs	r3, #1
1000578e:	009a      	lsls	r2, r3, #2
10005790:	18d2      	adds	r2, r2, r3
10005792:	0091      	lsls	r1, r2, #2
10005794:	4a13      	ldr	r2, [pc, #76]	; (100057e4 <vTaskSwitchContext+0x74>)
10005796:	1852      	adds	r2, r2, r1
10005798:	6b12      	ldr	r2, [r2, #48]	; 0x30
1000579a:	2a00      	cmp	r2, #0
1000579c:	d0f6      	beq.n	1000578c <vTaskSwitchContext+0x1c>
1000579e:	4a11      	ldr	r2, [pc, #68]	; (100057e4 <vTaskSwitchContext+0x74>)
100057a0:	0099      	lsls	r1, r3, #2
100057a2:	18cc      	adds	r4, r1, r3
100057a4:	00a0      	lsls	r0, r4, #2
100057a6:	1810      	adds	r0, r2, r0
100057a8:	6b44      	ldr	r4, [r0, #52]	; 0x34
100057aa:	6864      	ldr	r4, [r4, #4]
100057ac:	6344      	str	r4, [r0, #52]	; 0x34
100057ae:	3230      	adds	r2, #48	; 0x30
100057b0:	18c9      	adds	r1, r1, r3
100057b2:	0088      	lsls	r0, r1, #2
100057b4:	3008      	adds	r0, #8
100057b6:	1812      	adds	r2, r2, r0
100057b8:	4294      	cmp	r4, r2
100057ba:	d00a      	beq.n	100057d2 <vTaskSwitchContext+0x62>
100057bc:	009a      	lsls	r2, r3, #2
100057be:	18d2      	adds	r2, r2, r3
100057c0:	0091      	lsls	r1, r2, #2
100057c2:	4a08      	ldr	r2, [pc, #32]	; (100057e4 <vTaskSwitchContext+0x74>)
100057c4:	1852      	adds	r2, r2, r1
100057c6:	6b52      	ldr	r2, [r2, #52]	; 0x34
100057c8:	68d1      	ldr	r1, [r2, #12]
100057ca:	4a05      	ldr	r2, [pc, #20]	; (100057e0 <vTaskSwitchContext+0x70>)
100057cc:	6591      	str	r1, [r2, #88]	; 0x58
100057ce:	6653      	str	r3, [r2, #100]	; 0x64
100057d0:	e7d6      	b.n	10005780 <vTaskSwitchContext+0x10>
100057d2:	6860      	ldr	r0, [r4, #4]
100057d4:	0089      	lsls	r1, r1, #2
100057d6:	4a03      	ldr	r2, [pc, #12]	; (100057e4 <vTaskSwitchContext+0x74>)
100057d8:	1852      	adds	r2, r2, r1
100057da:	6350      	str	r0, [r2, #52]	; 0x34
100057dc:	e7ee      	b.n	100057bc <vTaskSwitchContext+0x4c>
100057de:	46c0      	nop			; (mov r8, r8)
100057e0:	20000d3c 	.word	0x20000d3c
100057e4:	20000cbc 	.word	0x20000cbc

100057e8 <vTaskSuspend>:
100057e8:	b570      	push	{r4, r5, r6, lr}
100057ea:	0004      	movs	r4, r0
100057ec:	f000 fed8 	bl	100065a0 <vPortEnterCritical>
100057f0:	2c00      	cmp	r4, #0
100057f2:	d010      	beq.n	10005816 <vTaskSuspend+0x2e>
100057f4:	1d25      	adds	r5, r4, #4
100057f6:	0028      	movs	r0, r5
100057f8:	f000 ff88 	bl	1000670c <uxListRemove>
100057fc:	6aa3      	ldr	r3, [r4, #40]	; 0x28
100057fe:	2b00      	cmp	r3, #0
10005800:	d003      	beq.n	1000580a <vTaskSuspend+0x22>
10005802:	0020      	movs	r0, r4
10005804:	3018      	adds	r0, #24
10005806:	f000 ff81 	bl	1000670c <uxListRemove>
1000580a:	0029      	movs	r1, r5
1000580c:	481d      	ldr	r0, [pc, #116]	; (10005884 <vTaskSuspend+0x9c>)
1000580e:	f000 ff5b 	bl	100066c8 <vListInsertEnd>
10005812:	2300      	movs	r3, #0
10005814:	e003      	b.n	1000581e <vTaskSuspend+0x36>
10005816:	4b1c      	ldr	r3, [pc, #112]	; (10005888 <vTaskSuspend+0xa0>)
10005818:	6d9c      	ldr	r4, [r3, #88]	; 0x58
1000581a:	e7eb      	b.n	100057f4 <vTaskSuspend+0xc>
1000581c:	3301      	adds	r3, #1
1000581e:	2b02      	cmp	r3, #2
10005820:	dc09      	bgt.n	10005836 <vTaskSuspend+0x4e>
10005822:	18e2      	adds	r2, r4, r3
10005824:	3264      	adds	r2, #100	; 0x64
10005826:	7812      	ldrb	r2, [r2, #0]
10005828:	2a01      	cmp	r2, #1
1000582a:	d1f7      	bne.n	1000581c <vTaskSuspend+0x34>
1000582c:	18e2      	adds	r2, r4, r3
1000582e:	3264      	adds	r2, #100	; 0x64
10005830:	2100      	movs	r1, #0
10005832:	7011      	strb	r1, [r2, #0]
10005834:	e7f2      	b.n	1000581c <vTaskSuspend+0x34>
10005836:	f000 febf 	bl	100065b8 <vPortExitCritical>
1000583a:	4b13      	ldr	r3, [pc, #76]	; (10005888 <vTaskSuspend+0xa0>)
1000583c:	6ddb      	ldr	r3, [r3, #92]	; 0x5c
1000583e:	2b00      	cmp	r3, #0
10005840:	d104      	bne.n	1000584c <vTaskSuspend+0x64>
10005842:	4b11      	ldr	r3, [pc, #68]	; (10005888 <vTaskSuspend+0xa0>)
10005844:	6d9b      	ldr	r3, [r3, #88]	; 0x58
10005846:	42a3      	cmp	r3, r4
10005848:	d007      	beq.n	1000585a <vTaskSuspend+0x72>
1000584a:	bd70      	pop	{r4, r5, r6, pc}
1000584c:	f000 fea8 	bl	100065a0 <vPortEnterCritical>
10005850:	f7ff fae0 	bl	10004e14 <prvResetNextTaskUnblockTime>
10005854:	f000 feb0 	bl	100065b8 <vPortExitCritical>
10005858:	e7f3      	b.n	10005842 <vTaskSuspend+0x5a>
1000585a:	4b0b      	ldr	r3, [pc, #44]	; (10005888 <vTaskSuspend+0xa0>)
1000585c:	6ddb      	ldr	r3, [r3, #92]	; 0x5c
1000585e:	2b00      	cmp	r3, #0
10005860:	d109      	bne.n	10005876 <vTaskSuspend+0x8e>
10005862:	4b08      	ldr	r3, [pc, #32]	; (10005884 <vTaskSuspend+0x9c>)
10005864:	681a      	ldr	r2, [r3, #0]
10005866:	4b08      	ldr	r3, [pc, #32]	; (10005888 <vTaskSuspend+0xa0>)
10005868:	6d5b      	ldr	r3, [r3, #84]	; 0x54
1000586a:	429a      	cmp	r2, r3
1000586c:	d106      	bne.n	1000587c <vTaskSuspend+0x94>
1000586e:	4b06      	ldr	r3, [pc, #24]	; (10005888 <vTaskSuspend+0xa0>)
10005870:	2200      	movs	r2, #0
10005872:	659a      	str	r2, [r3, #88]	; 0x58
10005874:	e7e9      	b.n	1000584a <vTaskSuspend+0x62>
10005876:	f000 fe87 	bl	10006588 <vPortYield>
1000587a:	e7e6      	b.n	1000584a <vTaskSuspend+0x62>
1000587c:	f7ff ff78 	bl	10005770 <vTaskSwitchContext>
10005880:	e7e3      	b.n	1000584a <vTaskSuspend+0x62>
10005882:	46c0      	nop			; (mov r8, r8)
10005884:	20000cbc 	.word	0x20000cbc
10005888:	20000d3c 	.word	0x20000d3c

1000588c <vTaskPlaceOnEventList>:
1000588c:	b510      	push	{r4, lr}
1000588e:	000c      	movs	r4, r1
10005890:	4b04      	ldr	r3, [pc, #16]	; (100058a4 <vTaskPlaceOnEventList+0x18>)
10005892:	6d99      	ldr	r1, [r3, #88]	; 0x58
10005894:	3118      	adds	r1, #24
10005896:	f000 ff22 	bl	100066de <vListInsert>
1000589a:	2101      	movs	r1, #1
1000589c:	0020      	movs	r0, r4
1000589e:	f7ff fbc5 	bl	1000502c <prvAddCurrentTaskToDelayedList>
100058a2:	bd10      	pop	{r4, pc}
100058a4:	20000d3c 	.word	0x20000d3c

100058a8 <vTaskPlaceOnUnorderedEventList>:
100058a8:	b570      	push	{r4, r5, r6, lr}
100058aa:	0003      	movs	r3, r0
100058ac:	0010      	movs	r0, r2
100058ae:	4c0d      	ldr	r4, [pc, #52]	; (100058e4 <vTaskPlaceOnUnorderedEventList+0x3c>)
100058b0:	6da5      	ldr	r5, [r4, #88]	; 0x58
100058b2:	2280      	movs	r2, #128	; 0x80
100058b4:	0612      	lsls	r2, r2, #24
100058b6:	430a      	orrs	r2, r1
100058b8:	61aa      	str	r2, [r5, #24]
100058ba:	685a      	ldr	r2, [r3, #4]
100058bc:	6da1      	ldr	r1, [r4, #88]	; 0x58
100058be:	61ca      	str	r2, [r1, #28]
100058c0:	6da1      	ldr	r1, [r4, #88]	; 0x58
100058c2:	6895      	ldr	r5, [r2, #8]
100058c4:	620d      	str	r5, [r1, #32]
100058c6:	6da1      	ldr	r1, [r4, #88]	; 0x58
100058c8:	3118      	adds	r1, #24
100058ca:	6069      	str	r1, [r5, #4]
100058cc:	6da1      	ldr	r1, [r4, #88]	; 0x58
100058ce:	3118      	adds	r1, #24
100058d0:	6091      	str	r1, [r2, #8]
100058d2:	6da2      	ldr	r2, [r4, #88]	; 0x58
100058d4:	6293      	str	r3, [r2, #40]	; 0x28
100058d6:	681a      	ldr	r2, [r3, #0]
100058d8:	3201      	adds	r2, #1
100058da:	601a      	str	r2, [r3, #0]
100058dc:	2101      	movs	r1, #1
100058de:	f7ff fba5 	bl	1000502c <prvAddCurrentTaskToDelayedList>
100058e2:	bd70      	pop	{r4, r5, r6, pc}
100058e4:	20000d3c 	.word	0x20000d3c

100058e8 <vTaskPlaceOnEventListRestricted>:
100058e8:	b570      	push	{r4, r5, r6, lr}
100058ea:	0003      	movs	r3, r0
100058ec:	0008      	movs	r0, r1
100058ee:	0011      	movs	r1, r2
100058f0:	685a      	ldr	r2, [r3, #4]
100058f2:	4c0c      	ldr	r4, [pc, #48]	; (10005924 <vTaskPlaceOnEventListRestricted+0x3c>)
100058f4:	6da5      	ldr	r5, [r4, #88]	; 0x58
100058f6:	61ea      	str	r2, [r5, #28]
100058f8:	6da5      	ldr	r5, [r4, #88]	; 0x58
100058fa:	6896      	ldr	r6, [r2, #8]
100058fc:	622e      	str	r6, [r5, #32]
100058fe:	6da5      	ldr	r5, [r4, #88]	; 0x58
10005900:	3518      	adds	r5, #24
10005902:	6075      	str	r5, [r6, #4]
10005904:	6da5      	ldr	r5, [r4, #88]	; 0x58
10005906:	3518      	adds	r5, #24
10005908:	6095      	str	r5, [r2, #8]
1000590a:	6da2      	ldr	r2, [r4, #88]	; 0x58
1000590c:	6293      	str	r3, [r2, #40]	; 0x28
1000590e:	681a      	ldr	r2, [r3, #0]
10005910:	3201      	adds	r2, #1
10005912:	601a      	str	r2, [r3, #0]
10005914:	2900      	cmp	r1, #0
10005916:	d001      	beq.n	1000591c <vTaskPlaceOnEventListRestricted+0x34>
10005918:	2001      	movs	r0, #1
1000591a:	4240      	negs	r0, r0
1000591c:	f7ff fb86 	bl	1000502c <prvAddCurrentTaskToDelayedList>
10005920:	bd70      	pop	{r4, r5, r6, pc}
10005922:	46c0      	nop			; (mov r8, r8)
10005924:	20000d3c 	.word	0x20000d3c

10005928 <xTaskRemoveFromEventList>:
10005928:	b530      	push	{r4, r5, lr}
1000592a:	68c3      	ldr	r3, [r0, #12]
1000592c:	68db      	ldr	r3, [r3, #12]
1000592e:	6a9a      	ldr	r2, [r3, #40]	; 0x28
10005930:	69d8      	ldr	r0, [r3, #28]
10005932:	6a19      	ldr	r1, [r3, #32]
10005934:	6081      	str	r1, [r0, #8]
10005936:	69d8      	ldr	r0, [r3, #28]
10005938:	6048      	str	r0, [r1, #4]
1000593a:	0018      	movs	r0, r3
1000593c:	3018      	adds	r0, #24
1000593e:	6851      	ldr	r1, [r2, #4]
10005940:	4281      	cmp	r1, r0
10005942:	d041      	beq.n	100059c8 <xTaskRemoveFromEventList+0xa0>
10005944:	2100      	movs	r1, #0
10005946:	6299      	str	r1, [r3, #40]	; 0x28
10005948:	6811      	ldr	r1, [r2, #0]
1000594a:	3901      	subs	r1, #1
1000594c:	6011      	str	r1, [r2, #0]
1000594e:	4a29      	ldr	r2, [pc, #164]	; (100059f4 <xTaskRemoveFromEventList+0xcc>)
10005950:	6f12      	ldr	r2, [r2, #112]	; 0x70
10005952:	2a00      	cmp	r2, #0
10005954:	d13e      	bne.n	100059d4 <xTaskRemoveFromEventList+0xac>
10005956:	695a      	ldr	r2, [r3, #20]
10005958:	6898      	ldr	r0, [r3, #8]
1000595a:	68d9      	ldr	r1, [r3, #12]
1000595c:	6081      	str	r1, [r0, #8]
1000595e:	6898      	ldr	r0, [r3, #8]
10005960:	6048      	str	r0, [r1, #4]
10005962:	1d1c      	adds	r4, r3, #4
10005964:	6851      	ldr	r1, [r2, #4]
10005966:	42a1      	cmp	r1, r4
10005968:	d031      	beq.n	100059ce <xTaskRemoveFromEventList+0xa6>
1000596a:	2100      	movs	r1, #0
1000596c:	6159      	str	r1, [r3, #20]
1000596e:	6811      	ldr	r1, [r2, #0]
10005970:	3901      	subs	r1, #1
10005972:	6011      	str	r1, [r2, #0]
10005974:	6ada      	ldr	r2, [r3, #44]	; 0x2c
10005976:	491f      	ldr	r1, [pc, #124]	; (100059f4 <xTaskRemoveFromEventList+0xcc>)
10005978:	6e49      	ldr	r1, [r1, #100]	; 0x64
1000597a:	428a      	cmp	r2, r1
1000597c:	d901      	bls.n	10005982 <xTaskRemoveFromEventList+0x5a>
1000597e:	491d      	ldr	r1, [pc, #116]	; (100059f4 <xTaskRemoveFromEventList+0xcc>)
10005980:	664a      	str	r2, [r1, #100]	; 0x64
10005982:	481d      	ldr	r0, [pc, #116]	; (100059f8 <xTaskRemoveFromEventList+0xd0>)
10005984:	0091      	lsls	r1, r2, #2
10005986:	1889      	adds	r1, r1, r2
10005988:	0089      	lsls	r1, r1, #2
1000598a:	1841      	adds	r1, r0, r1
1000598c:	6b4a      	ldr	r2, [r1, #52]	; 0x34
1000598e:	609a      	str	r2, [r3, #8]
10005990:	6891      	ldr	r1, [r2, #8]
10005992:	60d9      	str	r1, [r3, #12]
10005994:	604c      	str	r4, [r1, #4]
10005996:	6094      	str	r4, [r2, #8]
10005998:	6adc      	ldr	r4, [r3, #44]	; 0x2c
1000599a:	0001      	movs	r1, r0
1000599c:	3130      	adds	r1, #48	; 0x30
1000599e:	00a2      	lsls	r2, r4, #2
100059a0:	1915      	adds	r5, r2, r4
100059a2:	00ad      	lsls	r5, r5, #2
100059a4:	1949      	adds	r1, r1, r5
100059a6:	6159      	str	r1, [r3, #20]
100059a8:	1941      	adds	r1, r0, r5
100059aa:	6b09      	ldr	r1, [r1, #48]	; 0x30
100059ac:	3101      	adds	r1, #1
100059ae:	1942      	adds	r2, r0, r5
100059b0:	6311      	str	r1, [r2, #48]	; 0x30
100059b2:	6ada      	ldr	r2, [r3, #44]	; 0x2c
100059b4:	4b0f      	ldr	r3, [pc, #60]	; (100059f4 <xTaskRemoveFromEventList+0xcc>)
100059b6:	6d9b      	ldr	r3, [r3, #88]	; 0x58
100059b8:	6adb      	ldr	r3, [r3, #44]	; 0x2c
100059ba:	429a      	cmp	r2, r3
100059bc:	d918      	bls.n	100059f0 <xTaskRemoveFromEventList+0xc8>
100059be:	4b0d      	ldr	r3, [pc, #52]	; (100059f4 <xTaskRemoveFromEventList+0xcc>)
100059c0:	2201      	movs	r2, #1
100059c2:	675a      	str	r2, [r3, #116]	; 0x74
100059c4:	2001      	movs	r0, #1
100059c6:	bd30      	pop	{r4, r5, pc}
100059c8:	6a19      	ldr	r1, [r3, #32]
100059ca:	6051      	str	r1, [r2, #4]
100059cc:	e7ba      	b.n	10005944 <xTaskRemoveFromEventList+0x1c>
100059ce:	68d9      	ldr	r1, [r3, #12]
100059d0:	6051      	str	r1, [r2, #4]
100059d2:	e7ca      	b.n	1000596a <xTaskRemoveFromEventList+0x42>
100059d4:	4a08      	ldr	r2, [pc, #32]	; (100059f8 <xTaskRemoveFromEventList+0xd0>)
100059d6:	6991      	ldr	r1, [r2, #24]
100059d8:	61d9      	str	r1, [r3, #28]
100059da:	688c      	ldr	r4, [r1, #8]
100059dc:	621c      	str	r4, [r3, #32]
100059de:	6060      	str	r0, [r4, #4]
100059e0:	6088      	str	r0, [r1, #8]
100059e2:	0011      	movs	r1, r2
100059e4:	3114      	adds	r1, #20
100059e6:	6299      	str	r1, [r3, #40]	; 0x28
100059e8:	6951      	ldr	r1, [r2, #20]
100059ea:	3101      	adds	r1, #1
100059ec:	6151      	str	r1, [r2, #20]
100059ee:	e7e0      	b.n	100059b2 <xTaskRemoveFromEventList+0x8a>
100059f0:	2000      	movs	r0, #0
100059f2:	e7e8      	b.n	100059c6 <xTaskRemoveFromEventList+0x9e>
100059f4:	20000d3c 	.word	0x20000d3c
100059f8:	20000cbc 	.word	0x20000cbc

100059fc <vTaskRemoveFromUnorderedEventList>:
100059fc:	b530      	push	{r4, r5, lr}
100059fe:	2380      	movs	r3, #128	; 0x80
10005a00:	061b      	lsls	r3, r3, #24
10005a02:	430b      	orrs	r3, r1
10005a04:	6003      	str	r3, [r0, #0]
10005a06:	68c3      	ldr	r3, [r0, #12]
10005a08:	6902      	ldr	r2, [r0, #16]
10005a0a:	6841      	ldr	r1, [r0, #4]
10005a0c:	6884      	ldr	r4, [r0, #8]
10005a0e:	608c      	str	r4, [r1, #8]
10005a10:	6881      	ldr	r1, [r0, #8]
10005a12:	6844      	ldr	r4, [r0, #4]
10005a14:	604c      	str	r4, [r1, #4]
10005a16:	6851      	ldr	r1, [r2, #4]
10005a18:	4281      	cmp	r1, r0
10005a1a:	d03c      	beq.n	10005a96 <vTaskRemoveFromUnorderedEventList+0x9a>
10005a1c:	2100      	movs	r1, #0
10005a1e:	6101      	str	r1, [r0, #16]
10005a20:	6811      	ldr	r1, [r2, #0]
10005a22:	3901      	subs	r1, #1
10005a24:	6011      	str	r1, [r2, #0]
10005a26:	695a      	ldr	r2, [r3, #20]
10005a28:	6898      	ldr	r0, [r3, #8]
10005a2a:	68d9      	ldr	r1, [r3, #12]
10005a2c:	6081      	str	r1, [r0, #8]
10005a2e:	6898      	ldr	r0, [r3, #8]
10005a30:	6048      	str	r0, [r1, #4]
10005a32:	1d1c      	adds	r4, r3, #4
10005a34:	6851      	ldr	r1, [r2, #4]
10005a36:	42a1      	cmp	r1, r4
10005a38:	d030      	beq.n	10005a9c <vTaskRemoveFromUnorderedEventList+0xa0>
10005a3a:	2100      	movs	r1, #0
10005a3c:	6159      	str	r1, [r3, #20]
10005a3e:	6811      	ldr	r1, [r2, #0]
10005a40:	3901      	subs	r1, #1
10005a42:	6011      	str	r1, [r2, #0]
10005a44:	6ada      	ldr	r2, [r3, #44]	; 0x2c
10005a46:	4917      	ldr	r1, [pc, #92]	; (10005aa4 <vTaskRemoveFromUnorderedEventList+0xa8>)
10005a48:	6e49      	ldr	r1, [r1, #100]	; 0x64
10005a4a:	428a      	cmp	r2, r1
10005a4c:	d901      	bls.n	10005a52 <vTaskRemoveFromUnorderedEventList+0x56>
10005a4e:	4915      	ldr	r1, [pc, #84]	; (10005aa4 <vTaskRemoveFromUnorderedEventList+0xa8>)
10005a50:	664a      	str	r2, [r1, #100]	; 0x64
10005a52:	4815      	ldr	r0, [pc, #84]	; (10005aa8 <vTaskRemoveFromUnorderedEventList+0xac>)
10005a54:	0091      	lsls	r1, r2, #2
10005a56:	1889      	adds	r1, r1, r2
10005a58:	0089      	lsls	r1, r1, #2
10005a5a:	1841      	adds	r1, r0, r1
10005a5c:	6b4a      	ldr	r2, [r1, #52]	; 0x34
10005a5e:	609a      	str	r2, [r3, #8]
10005a60:	6891      	ldr	r1, [r2, #8]
10005a62:	60d9      	str	r1, [r3, #12]
10005a64:	604c      	str	r4, [r1, #4]
10005a66:	6094      	str	r4, [r2, #8]
10005a68:	6adc      	ldr	r4, [r3, #44]	; 0x2c
10005a6a:	0001      	movs	r1, r0
10005a6c:	3130      	adds	r1, #48	; 0x30
10005a6e:	00a2      	lsls	r2, r4, #2
10005a70:	1915      	adds	r5, r2, r4
10005a72:	00ad      	lsls	r5, r5, #2
10005a74:	1949      	adds	r1, r1, r5
10005a76:	6159      	str	r1, [r3, #20]
10005a78:	1941      	adds	r1, r0, r5
10005a7a:	6b09      	ldr	r1, [r1, #48]	; 0x30
10005a7c:	3101      	adds	r1, #1
10005a7e:	1942      	adds	r2, r0, r5
10005a80:	6311      	str	r1, [r2, #48]	; 0x30
10005a82:	6ada      	ldr	r2, [r3, #44]	; 0x2c
10005a84:	4b07      	ldr	r3, [pc, #28]	; (10005aa4 <vTaskRemoveFromUnorderedEventList+0xa8>)
10005a86:	6d9b      	ldr	r3, [r3, #88]	; 0x58
10005a88:	6adb      	ldr	r3, [r3, #44]	; 0x2c
10005a8a:	429a      	cmp	r2, r3
10005a8c:	d902      	bls.n	10005a94 <vTaskRemoveFromUnorderedEventList+0x98>
10005a8e:	4b05      	ldr	r3, [pc, #20]	; (10005aa4 <vTaskRemoveFromUnorderedEventList+0xa8>)
10005a90:	2201      	movs	r2, #1
10005a92:	675a      	str	r2, [r3, #116]	; 0x74
10005a94:	bd30      	pop	{r4, r5, pc}
10005a96:	6881      	ldr	r1, [r0, #8]
10005a98:	6051      	str	r1, [r2, #4]
10005a9a:	e7bf      	b.n	10005a1c <vTaskRemoveFromUnorderedEventList+0x20>
10005a9c:	68d9      	ldr	r1, [r3, #12]
10005a9e:	6051      	str	r1, [r2, #4]
10005aa0:	e7cb      	b.n	10005a3a <vTaskRemoveFromUnorderedEventList+0x3e>
10005aa2:	46c0      	nop			; (mov r8, r8)
10005aa4:	20000d3c 	.word	0x20000d3c
10005aa8:	20000cbc 	.word	0x20000cbc

10005aac <vTaskSetTimeOutState>:
10005aac:	b510      	push	{r4, lr}
10005aae:	0004      	movs	r4, r0
10005ab0:	f000 fd76 	bl	100065a0 <vPortEnterCritical>
10005ab4:	4b03      	ldr	r3, [pc, #12]	; (10005ac4 <vTaskSetTimeOutState+0x18>)
10005ab6:	6fda      	ldr	r2, [r3, #124]	; 0x7c
10005ab8:	6022      	str	r2, [r4, #0]
10005aba:	6edb      	ldr	r3, [r3, #108]	; 0x6c
10005abc:	6063      	str	r3, [r4, #4]
10005abe:	f000 fd7b 	bl	100065b8 <vPortExitCritical>
10005ac2:	bd10      	pop	{r4, pc}
10005ac4:	20000d3c 	.word	0x20000d3c

10005ac8 <vTaskInternalSetTimeOutState>:
10005ac8:	4b02      	ldr	r3, [pc, #8]	; (10005ad4 <vTaskInternalSetTimeOutState+0xc>)
10005aca:	6fda      	ldr	r2, [r3, #124]	; 0x7c
10005acc:	6002      	str	r2, [r0, #0]
10005ace:	6edb      	ldr	r3, [r3, #108]	; 0x6c
10005ad0:	6043      	str	r3, [r0, #4]
10005ad2:	4770      	bx	lr
10005ad4:	20000d3c 	.word	0x20000d3c

10005ad8 <xTaskCheckForTimeOut>:
10005ad8:	b5f8      	push	{r3, r4, r5, r6, r7, lr}
10005ada:	0004      	movs	r4, r0
10005adc:	000d      	movs	r5, r1
10005ade:	f000 fd5f 	bl	100065a0 <vPortEnterCritical>
10005ae2:	4b12      	ldr	r3, [pc, #72]	; (10005b2c <xTaskCheckForTimeOut+0x54>)
10005ae4:	6ed9      	ldr	r1, [r3, #108]	; 0x6c
10005ae6:	6863      	ldr	r3, [r4, #4]
10005ae8:	1ac8      	subs	r0, r1, r3
10005aea:	682a      	ldr	r2, [r5, #0]
10005aec:	1c56      	adds	r6, r2, #1
10005aee:	d018      	beq.n	10005b22 <xTaskCheckForTimeOut+0x4a>
10005af0:	4e0e      	ldr	r6, [pc, #56]	; (10005b2c <xTaskCheckForTimeOut+0x54>)
10005af2:	6ff6      	ldr	r6, [r6, #124]	; 0x7c
10005af4:	6827      	ldr	r7, [r4, #0]
10005af6:	42b7      	cmp	r7, r6
10005af8:	d005      	beq.n	10005b06 <xTaskCheckForTimeOut+0x2e>
10005afa:	428b      	cmp	r3, r1
10005afc:	d803      	bhi.n	10005b06 <xTaskCheckForTimeOut+0x2e>
10005afe:	2300      	movs	r3, #0
10005b00:	602b      	str	r3, [r5, #0]
10005b02:	2401      	movs	r4, #1
10005b04:	e00e      	b.n	10005b24 <xTaskCheckForTimeOut+0x4c>
10005b06:	4282      	cmp	r2, r0
10005b08:	d803      	bhi.n	10005b12 <xTaskCheckForTimeOut+0x3a>
10005b0a:	2300      	movs	r3, #0
10005b0c:	602b      	str	r3, [r5, #0]
10005b0e:	2401      	movs	r4, #1
10005b10:	e008      	b.n	10005b24 <xTaskCheckForTimeOut+0x4c>
10005b12:	1a5b      	subs	r3, r3, r1
10005b14:	189b      	adds	r3, r3, r2
10005b16:	602b      	str	r3, [r5, #0]
10005b18:	0020      	movs	r0, r4
10005b1a:	f7ff ffd5 	bl	10005ac8 <vTaskInternalSetTimeOutState>
10005b1e:	2400      	movs	r4, #0
10005b20:	e000      	b.n	10005b24 <xTaskCheckForTimeOut+0x4c>
10005b22:	2400      	movs	r4, #0
10005b24:	f000 fd48 	bl	100065b8 <vPortExitCritical>
10005b28:	0020      	movs	r0, r4
10005b2a:	bdf8      	pop	{r3, r4, r5, r6, r7, pc}
10005b2c:	20000d3c 	.word	0x20000d3c

10005b30 <vTaskMissedYield>:
10005b30:	4b01      	ldr	r3, [pc, #4]	; (10005b38 <vTaskMissedYield+0x8>)
10005b32:	2201      	movs	r2, #1
10005b34:	675a      	str	r2, [r3, #116]	; 0x74
10005b36:	4770      	bx	lr
10005b38:	20000d3c 	.word	0x20000d3c

10005b3c <vTaskSetThreadLocalStoragePointer>:
10005b3c:	2904      	cmp	r1, #4
10005b3e:	dc05      	bgt.n	10005b4c <vTaskSetThreadLocalStoragePointer+0x10>
10005b40:	2800      	cmp	r0, #0
10005b42:	d004      	beq.n	10005b4e <vTaskSetThreadLocalStoragePointer+0x12>
10005b44:	3110      	adds	r1, #16
10005b46:	0089      	lsls	r1, r1, #2
10005b48:	1841      	adds	r1, r0, r1
10005b4a:	604a      	str	r2, [r1, #4]
10005b4c:	4770      	bx	lr
10005b4e:	4b01      	ldr	r3, [pc, #4]	; (10005b54 <vTaskSetThreadLocalStoragePointer+0x18>)
10005b50:	6d98      	ldr	r0, [r3, #88]	; 0x58
10005b52:	e7f7      	b.n	10005b44 <vTaskSetThreadLocalStoragePointer+0x8>
10005b54:	20000d3c 	.word	0x20000d3c

10005b58 <pvTaskGetThreadLocalStoragePointer>:
10005b58:	2904      	cmp	r1, #4
10005b5a:	dc09      	bgt.n	10005b70 <pvTaskGetThreadLocalStoragePointer+0x18>
10005b5c:	2800      	cmp	r0, #0
10005b5e:	d004      	beq.n	10005b6a <pvTaskGetThreadLocalStoragePointer+0x12>
10005b60:	3110      	adds	r1, #16
10005b62:	0089      	lsls	r1, r1, #2
10005b64:	1841      	adds	r1, r0, r1
10005b66:	6848      	ldr	r0, [r1, #4]
10005b68:	4770      	bx	lr
10005b6a:	4b02      	ldr	r3, [pc, #8]	; (10005b74 <pvTaskGetThreadLocalStoragePointer+0x1c>)
10005b6c:	6d98      	ldr	r0, [r3, #88]	; 0x58
10005b6e:	e7f7      	b.n	10005b60 <pvTaskGetThreadLocalStoragePointer+0x8>
10005b70:	2000      	movs	r0, #0
10005b72:	e7f9      	b.n	10005b68 <pvTaskGetThreadLocalStoragePointer+0x10>
10005b74:	20000d3c 	.word	0x20000d3c

10005b78 <xTaskGetCurrentTaskHandle>:
10005b78:	4b01      	ldr	r3, [pc, #4]	; (10005b80 <xTaskGetCurrentTaskHandle+0x8>)
10005b7a:	6d98      	ldr	r0, [r3, #88]	; 0x58
10005b7c:	4770      	bx	lr
10005b7e:	46c0      	nop			; (mov r8, r8)
10005b80:	20000d3c 	.word	0x20000d3c

10005b84 <xTaskGetSchedulerState>:
10005b84:	4b06      	ldr	r3, [pc, #24]	; (10005ba0 <xTaskGetSchedulerState+0x1c>)
10005b86:	6ddb      	ldr	r3, [r3, #92]	; 0x5c
10005b88:	2b00      	cmp	r3, #0
10005b8a:	d007      	beq.n	10005b9c <xTaskGetSchedulerState+0x18>
10005b8c:	4b04      	ldr	r3, [pc, #16]	; (10005ba0 <xTaskGetSchedulerState+0x1c>)
10005b8e:	6f1b      	ldr	r3, [r3, #112]	; 0x70
10005b90:	2b00      	cmp	r3, #0
10005b92:	d001      	beq.n	10005b98 <xTaskGetSchedulerState+0x14>
10005b94:	2000      	movs	r0, #0
10005b96:	e002      	b.n	10005b9e <xTaskGetSchedulerState+0x1a>
10005b98:	2002      	movs	r0, #2
10005b9a:	e000      	b.n	10005b9e <xTaskGetSchedulerState+0x1a>
10005b9c:	2001      	movs	r0, #1
10005b9e:	4770      	bx	lr
10005ba0:	20000d3c 	.word	0x20000d3c

10005ba4 <uxTaskResetEventItemValue>:
10005ba4:	4a04      	ldr	r2, [pc, #16]	; (10005bb8 <uxTaskResetEventItemValue+0x14>)
10005ba6:	6d93      	ldr	r3, [r2, #88]	; 0x58
10005ba8:	6998      	ldr	r0, [r3, #24]
10005baa:	6d93      	ldr	r3, [r2, #88]	; 0x58
10005bac:	6ad9      	ldr	r1, [r3, #44]	; 0x2c
10005bae:	6d92      	ldr	r2, [r2, #88]	; 0x58
10005bb0:	2305      	movs	r3, #5
10005bb2:	1a5b      	subs	r3, r3, r1
10005bb4:	6193      	str	r3, [r2, #24]
10005bb6:	4770      	bx	lr
10005bb8:	20000d3c 	.word	0x20000d3c

10005bbc <ulTaskGenericNotifyTake>:
10005bbc:	b570      	push	{r4, r5, r6, lr}
10005bbe:	0004      	movs	r4, r0
10005bc0:	000d      	movs	r5, r1
10005bc2:	0016      	movs	r6, r2
10005bc4:	f000 fcec 	bl	100065a0 <vPortEnterCritical>
10005bc8:	4b1e      	ldr	r3, [pc, #120]	; (10005c44 <ulTaskGenericNotifyTake+0x88>)
10005bca:	6d9a      	ldr	r2, [r3, #88]	; 0x58
10005bcc:	0023      	movs	r3, r4
10005bce:	3316      	adds	r3, #22
10005bd0:	009b      	lsls	r3, r3, #2
10005bd2:	589b      	ldr	r3, [r3, r2]
10005bd4:	2b00      	cmp	r3, #0
10005bd6:	d107      	bne.n	10005be8 <ulTaskGenericNotifyTake+0x2c>
10005bd8:	4b1a      	ldr	r3, [pc, #104]	; (10005c44 <ulTaskGenericNotifyTake+0x88>)
10005bda:	6d9b      	ldr	r3, [r3, #88]	; 0x58
10005bdc:	191b      	adds	r3, r3, r4
10005bde:	3364      	adds	r3, #100	; 0x64
10005be0:	2201      	movs	r2, #1
10005be2:	701a      	strb	r2, [r3, #0]
10005be4:	2e00      	cmp	r6, #0
10005be6:	d11e      	bne.n	10005c26 <ulTaskGenericNotifyTake+0x6a>
10005be8:	f000 fce6 	bl	100065b8 <vPortExitCritical>
10005bec:	f000 fcd8 	bl	100065a0 <vPortEnterCritical>
10005bf0:	4b14      	ldr	r3, [pc, #80]	; (10005c44 <ulTaskGenericNotifyTake+0x88>)
10005bf2:	6d9a      	ldr	r2, [r3, #88]	; 0x58
10005bf4:	0023      	movs	r3, r4
10005bf6:	3316      	adds	r3, #22
10005bf8:	009b      	lsls	r3, r3, #2
10005bfa:	589e      	ldr	r6, [r3, r2]
10005bfc:	2e00      	cmp	r6, #0
10005bfe:	d008      	beq.n	10005c12 <ulTaskGenericNotifyTake+0x56>
10005c00:	2d00      	cmp	r5, #0
10005c02:	d017      	beq.n	10005c34 <ulTaskGenericNotifyTake+0x78>
10005c04:	4b0f      	ldr	r3, [pc, #60]	; (10005c44 <ulTaskGenericNotifyTake+0x88>)
10005c06:	6d9a      	ldr	r2, [r3, #88]	; 0x58
10005c08:	0023      	movs	r3, r4
10005c0a:	3316      	adds	r3, #22
10005c0c:	009b      	lsls	r3, r3, #2
10005c0e:	2100      	movs	r1, #0
10005c10:	5099      	str	r1, [r3, r2]
10005c12:	4b0c      	ldr	r3, [pc, #48]	; (10005c44 <ulTaskGenericNotifyTake+0x88>)
10005c14:	6d98      	ldr	r0, [r3, #88]	; 0x58
10005c16:	1904      	adds	r4, r0, r4
10005c18:	3464      	adds	r4, #100	; 0x64
10005c1a:	2300      	movs	r3, #0
10005c1c:	7023      	strb	r3, [r4, #0]
10005c1e:	f000 fccb 	bl	100065b8 <vPortExitCritical>
10005c22:	0030      	movs	r0, r6
10005c24:	bd70      	pop	{r4, r5, r6, pc}
10005c26:	2101      	movs	r1, #1
10005c28:	0030      	movs	r0, r6
10005c2a:	f7ff f9ff 	bl	1000502c <prvAddCurrentTaskToDelayedList>
10005c2e:	f000 fcab 	bl	10006588 <vPortYield>
10005c32:	e7d9      	b.n	10005be8 <ulTaskGenericNotifyTake+0x2c>
10005c34:	4b03      	ldr	r3, [pc, #12]	; (10005c44 <ulTaskGenericNotifyTake+0x88>)
10005c36:	6d99      	ldr	r1, [r3, #88]	; 0x58
10005c38:	1e72      	subs	r2, r6, #1
10005c3a:	0023      	movs	r3, r4
10005c3c:	3316      	adds	r3, #22
10005c3e:	009b      	lsls	r3, r3, #2
10005c40:	505a      	str	r2, [r3, r1]
10005c42:	e7e6      	b.n	10005c12 <ulTaskGenericNotifyTake+0x56>
10005c44:	20000d3c 	.word	0x20000d3c

10005c48 <xTaskGenericNotifyWait>:
10005c48:	b5f8      	push	{r3, r4, r5, r6, r7, lr}
10005c4a:	0004      	movs	r4, r0
10005c4c:	000e      	movs	r6, r1
10005c4e:	0015      	movs	r5, r2
10005c50:	001f      	movs	r7, r3
10005c52:	f000 fca5 	bl	100065a0 <vPortEnterCritical>
10005c56:	4b23      	ldr	r3, [pc, #140]	; (10005ce4 <xTaskGenericNotifyWait+0x9c>)
10005c58:	6d9a      	ldr	r2, [r3, #88]	; 0x58
10005c5a:	1912      	adds	r2, r2, r4
10005c5c:	3264      	adds	r2, #100	; 0x64
10005c5e:	7813      	ldrb	r3, [r2, #0]
10005c60:	2b02      	cmp	r3, #2
10005c62:	d00f      	beq.n	10005c84 <xTaskGenericNotifyWait+0x3c>
10005c64:	491f      	ldr	r1, [pc, #124]	; (10005ce4 <xTaskGenericNotifyWait+0x9c>)
10005c66:	6d88      	ldr	r0, [r1, #88]	; 0x58
10005c68:	0023      	movs	r3, r4
10005c6a:	3316      	adds	r3, #22
10005c6c:	009b      	lsls	r3, r3, #2
10005c6e:	581a      	ldr	r2, [r3, r0]
10005c70:	43b2      	bics	r2, r6
10005c72:	501a      	str	r2, [r3, r0]
10005c74:	6d8b      	ldr	r3, [r1, #88]	; 0x58
10005c76:	191b      	adds	r3, r3, r4
10005c78:	3364      	adds	r3, #100	; 0x64
10005c7a:	2201      	movs	r2, #1
10005c7c:	701a      	strb	r2, [r3, #0]
10005c7e:	9b06      	ldr	r3, [sp, #24]
10005c80:	2b00      	cmp	r3, #0
10005c82:	d11e      	bne.n	10005cc2 <xTaskGenericNotifyWait+0x7a>
10005c84:	f000 fc98 	bl	100065b8 <vPortExitCritical>
10005c88:	f000 fc8a 	bl	100065a0 <vPortEnterCritical>
10005c8c:	2f00      	cmp	r7, #0
10005c8e:	d006      	beq.n	10005c9e <xTaskGenericNotifyWait+0x56>
10005c90:	4b14      	ldr	r3, [pc, #80]	; (10005ce4 <xTaskGenericNotifyWait+0x9c>)
10005c92:	6d9a      	ldr	r2, [r3, #88]	; 0x58
10005c94:	0023      	movs	r3, r4
10005c96:	3316      	adds	r3, #22
10005c98:	009b      	lsls	r3, r3, #2
10005c9a:	589b      	ldr	r3, [r3, r2]
10005c9c:	603b      	str	r3, [r7, #0]
10005c9e:	4b11      	ldr	r3, [pc, #68]	; (10005ce4 <xTaskGenericNotifyWait+0x9c>)
10005ca0:	6d9b      	ldr	r3, [r3, #88]	; 0x58
10005ca2:	191b      	adds	r3, r3, r4
10005ca4:	3364      	adds	r3, #100	; 0x64
10005ca6:	781b      	ldrb	r3, [r3, #0]
10005ca8:	2b02      	cmp	r3, #2
10005caa:	d011      	beq.n	10005cd0 <xTaskGenericNotifyWait+0x88>
10005cac:	2500      	movs	r5, #0
10005cae:	4b0d      	ldr	r3, [pc, #52]	; (10005ce4 <xTaskGenericNotifyWait+0x9c>)
10005cb0:	6d98      	ldr	r0, [r3, #88]	; 0x58
10005cb2:	1904      	adds	r4, r0, r4
10005cb4:	3464      	adds	r4, #100	; 0x64
10005cb6:	2300      	movs	r3, #0
10005cb8:	7023      	strb	r3, [r4, #0]
10005cba:	f000 fc7d 	bl	100065b8 <vPortExitCritical>
10005cbe:	0028      	movs	r0, r5
10005cc0:	bdf8      	pop	{r3, r4, r5, r6, r7, pc}
10005cc2:	2101      	movs	r1, #1
10005cc4:	0018      	movs	r0, r3
10005cc6:	f7ff f9b1 	bl	1000502c <prvAddCurrentTaskToDelayedList>
10005cca:	f000 fc5d 	bl	10006588 <vPortYield>
10005cce:	e7d9      	b.n	10005c84 <xTaskGenericNotifyWait+0x3c>
10005cd0:	4b04      	ldr	r3, [pc, #16]	; (10005ce4 <xTaskGenericNotifyWait+0x9c>)
10005cd2:	6d99      	ldr	r1, [r3, #88]	; 0x58
10005cd4:	0023      	movs	r3, r4
10005cd6:	3316      	adds	r3, #22
10005cd8:	009b      	lsls	r3, r3, #2
10005cda:	585a      	ldr	r2, [r3, r1]
10005cdc:	43aa      	bics	r2, r5
10005cde:	505a      	str	r2, [r3, r1]
10005ce0:	2501      	movs	r5, #1
10005ce2:	e7e4      	b.n	10005cae <xTaskGenericNotifyWait+0x66>
10005ce4:	20000d3c 	.word	0x20000d3c

10005ce8 <xTaskGenericNotify>:
10005ce8:	b5f8      	push	{r3, r4, r5, r6, r7, lr}
10005cea:	0004      	movs	r4, r0
10005cec:	000d      	movs	r5, r1
10005cee:	0016      	movs	r6, r2
10005cf0:	001f      	movs	r7, r3
10005cf2:	f000 fc55 	bl	100065a0 <vPortEnterCritical>
10005cf6:	9b06      	ldr	r3, [sp, #24]
10005cf8:	2b00      	cmp	r3, #0
10005cfa:	d005      	beq.n	10005d08 <xTaskGenericNotify+0x20>
10005cfc:	002b      	movs	r3, r5
10005cfe:	3316      	adds	r3, #22
10005d00:	009b      	lsls	r3, r3, #2
10005d02:	591b      	ldr	r3, [r3, r4]
10005d04:	9a06      	ldr	r2, [sp, #24]
10005d06:	6013      	str	r3, [r2, #0]
10005d08:	1961      	adds	r1, r4, r5
10005d0a:	3164      	adds	r1, #100	; 0x64
10005d0c:	7808      	ldrb	r0, [r1, #0]
10005d0e:	b2c0      	uxtb	r0, r0
10005d10:	2302      	movs	r3, #2
10005d12:	700b      	strb	r3, [r1, #0]
10005d14:	2f03      	cmp	r7, #3
10005d16:	d024      	beq.n	10005d62 <xTaskGenericNotify+0x7a>
10005d18:	d80c      	bhi.n	10005d34 <xTaskGenericNotify+0x4c>
10005d1a:	2f01      	cmp	r7, #1
10005d1c:	d01a      	beq.n	10005d54 <xTaskGenericNotify+0x6c>
10005d1e:	2f02      	cmp	r7, #2
10005d20:	d106      	bne.n	10005d30 <xTaskGenericNotify+0x48>
10005d22:	3516      	adds	r5, #22
10005d24:	00ad      	lsls	r5, r5, #2
10005d26:	592b      	ldr	r3, [r5, r4]
10005d28:	3301      	adds	r3, #1
10005d2a:	512b      	str	r3, [r5, r4]
10005d2c:	2501      	movs	r5, #1
10005d2e:	e00b      	b.n	10005d48 <xTaskGenericNotify+0x60>
10005d30:	2501      	movs	r5, #1
10005d32:	e009      	b.n	10005d48 <xTaskGenericNotify+0x60>
10005d34:	2f04      	cmp	r7, #4
10005d36:	d106      	bne.n	10005d46 <xTaskGenericNotify+0x5e>
10005d38:	2802      	cmp	r0, #2
10005d3a:	d017      	beq.n	10005d6c <xTaskGenericNotify+0x84>
10005d3c:	3516      	adds	r5, #22
10005d3e:	00ad      	lsls	r5, r5, #2
10005d40:	512e      	str	r6, [r5, r4]
10005d42:	2501      	movs	r5, #1
10005d44:	e000      	b.n	10005d48 <xTaskGenericNotify+0x60>
10005d46:	2501      	movs	r5, #1
10005d48:	2801      	cmp	r0, #1
10005d4a:	d011      	beq.n	10005d70 <xTaskGenericNotify+0x88>
10005d4c:	f000 fc34 	bl	100065b8 <vPortExitCritical>
10005d50:	0028      	movs	r0, r5
10005d52:	bdf8      	pop	{r3, r4, r5, r6, r7, pc}
10005d54:	3516      	adds	r5, #22
10005d56:	00ad      	lsls	r5, r5, #2
10005d58:	592a      	ldr	r2, [r5, r4]
10005d5a:	4316      	orrs	r6, r2
10005d5c:	512e      	str	r6, [r5, r4]
10005d5e:	2501      	movs	r5, #1
10005d60:	e7f2      	b.n	10005d48 <xTaskGenericNotify+0x60>
10005d62:	3516      	adds	r5, #22
10005d64:	00ad      	lsls	r5, r5, #2
10005d66:	512e      	str	r6, [r5, r4]
10005d68:	2501      	movs	r5, #1
10005d6a:	e7ed      	b.n	10005d48 <xTaskGenericNotify+0x60>
10005d6c:	2500      	movs	r5, #0
10005d6e:	e7eb      	b.n	10005d48 <xTaskGenericNotify+0x60>
10005d70:	6963      	ldr	r3, [r4, #20]
10005d72:	68a2      	ldr	r2, [r4, #8]
10005d74:	68e1      	ldr	r1, [r4, #12]
10005d76:	6091      	str	r1, [r2, #8]
10005d78:	68e2      	ldr	r2, [r4, #12]
10005d7a:	68a1      	ldr	r1, [r4, #8]
10005d7c:	6051      	str	r1, [r2, #4]
10005d7e:	1d21      	adds	r1, r4, #4
10005d80:	685a      	ldr	r2, [r3, #4]
10005d82:	428a      	cmp	r2, r1
10005d84:	d02c      	beq.n	10005de0 <xTaskGenericNotify+0xf8>
10005d86:	2200      	movs	r2, #0
10005d88:	6162      	str	r2, [r4, #20]
10005d8a:	681a      	ldr	r2, [r3, #0]
10005d8c:	3a01      	subs	r2, #1
10005d8e:	601a      	str	r2, [r3, #0]
10005d90:	6ae3      	ldr	r3, [r4, #44]	; 0x2c
10005d92:	4a15      	ldr	r2, [pc, #84]	; (10005de8 <xTaskGenericNotify+0x100>)
10005d94:	6e52      	ldr	r2, [r2, #100]	; 0x64
10005d96:	4293      	cmp	r3, r2
10005d98:	d901      	bls.n	10005d9e <xTaskGenericNotify+0xb6>
10005d9a:	4a13      	ldr	r2, [pc, #76]	; (10005de8 <xTaskGenericNotify+0x100>)
10005d9c:	6653      	str	r3, [r2, #100]	; 0x64
10005d9e:	4813      	ldr	r0, [pc, #76]	; (10005dec <xTaskGenericNotify+0x104>)
10005da0:	009a      	lsls	r2, r3, #2
10005da2:	18d2      	adds	r2, r2, r3
10005da4:	0092      	lsls	r2, r2, #2
10005da6:	1882      	adds	r2, r0, r2
10005da8:	6b53      	ldr	r3, [r2, #52]	; 0x34
10005daa:	60a3      	str	r3, [r4, #8]
10005dac:	689a      	ldr	r2, [r3, #8]
10005dae:	60e2      	str	r2, [r4, #12]
10005db0:	6051      	str	r1, [r2, #4]
10005db2:	6099      	str	r1, [r3, #8]
10005db4:	6ae3      	ldr	r3, [r4, #44]	; 0x2c
10005db6:	0002      	movs	r2, r0
10005db8:	3230      	adds	r2, #48	; 0x30
10005dba:	0099      	lsls	r1, r3, #2
10005dbc:	18ce      	adds	r6, r1, r3
10005dbe:	00b6      	lsls	r6, r6, #2
10005dc0:	1992      	adds	r2, r2, r6
10005dc2:	6162      	str	r2, [r4, #20]
10005dc4:	1982      	adds	r2, r0, r6
10005dc6:	6b12      	ldr	r2, [r2, #48]	; 0x30
10005dc8:	3201      	adds	r2, #1
10005dca:	1983      	adds	r3, r0, r6
10005dcc:	631a      	str	r2, [r3, #48]	; 0x30
10005dce:	6ae2      	ldr	r2, [r4, #44]	; 0x2c
10005dd0:	4b05      	ldr	r3, [pc, #20]	; (10005de8 <xTaskGenericNotify+0x100>)
10005dd2:	6d9b      	ldr	r3, [r3, #88]	; 0x58
10005dd4:	6adb      	ldr	r3, [r3, #44]	; 0x2c
10005dd6:	429a      	cmp	r2, r3
10005dd8:	d9b8      	bls.n	10005d4c <xTaskGenericNotify+0x64>
10005dda:	f000 fbd5 	bl	10006588 <vPortYield>
10005dde:	e7b5      	b.n	10005d4c <xTaskGenericNotify+0x64>
10005de0:	68e2      	ldr	r2, [r4, #12]
10005de2:	605a      	str	r2, [r3, #4]
10005de4:	e7cf      	b.n	10005d86 <xTaskGenericNotify+0x9e>
10005de6:	46c0      	nop			; (mov r8, r8)
10005de8:	20000d3c 	.word	0x20000d3c
10005dec:	20000cbc 	.word	0x20000cbc

10005df0 <xTaskGenericNotifyFromISR>:
10005df0:	b5f0      	push	{r4, r5, r6, r7, lr}
10005df2:	b083      	sub	sp, #12
10005df4:	0004      	movs	r4, r0
10005df6:	000d      	movs	r5, r1
10005df8:	9201      	str	r2, [sp, #4]
10005dfa:	001e      	movs	r6, r3
10005dfc:	9f08      	ldr	r7, [sp, #32]
10005dfe:	f000 fbe5 	bl	100065cc <ulSetInterruptMaskFromISR>
10005e02:	2f00      	cmp	r7, #0
10005e04:	d004      	beq.n	10005e10 <xTaskGenericNotifyFromISR+0x20>
10005e06:	002b      	movs	r3, r5
10005e08:	3316      	adds	r3, #22
10005e0a:	009b      	lsls	r3, r3, #2
10005e0c:	591b      	ldr	r3, [r3, r4]
10005e0e:	603b      	str	r3, [r7, #0]
10005e10:	1963      	adds	r3, r4, r5
10005e12:	3364      	adds	r3, #100	; 0x64
10005e14:	781f      	ldrb	r7, [r3, #0]
10005e16:	b2ff      	uxtb	r7, r7
10005e18:	2202      	movs	r2, #2
10005e1a:	701a      	strb	r2, [r3, #0]
10005e1c:	2e03      	cmp	r6, #3
10005e1e:	d027      	beq.n	10005e70 <xTaskGenericNotifyFromISR+0x80>
10005e20:	d80c      	bhi.n	10005e3c <xTaskGenericNotifyFromISR+0x4c>
10005e22:	2e01      	cmp	r6, #1
10005e24:	d01c      	beq.n	10005e60 <xTaskGenericNotifyFromISR+0x70>
10005e26:	2e02      	cmp	r6, #2
10005e28:	d106      	bne.n	10005e38 <xTaskGenericNotifyFromISR+0x48>
10005e2a:	3516      	adds	r5, #22
10005e2c:	00ad      	lsls	r5, r5, #2
10005e2e:	592b      	ldr	r3, [r5, r4]
10005e30:	3301      	adds	r3, #1
10005e32:	512b      	str	r3, [r5, r4]
10005e34:	2501      	movs	r5, #1
10005e36:	e00c      	b.n	10005e52 <xTaskGenericNotifyFromISR+0x62>
10005e38:	2501      	movs	r5, #1
10005e3a:	e00a      	b.n	10005e52 <xTaskGenericNotifyFromISR+0x62>
10005e3c:	2e04      	cmp	r6, #4
10005e3e:	d107      	bne.n	10005e50 <xTaskGenericNotifyFromISR+0x60>
10005e40:	2f02      	cmp	r7, #2
10005e42:	d01b      	beq.n	10005e7c <xTaskGenericNotifyFromISR+0x8c>
10005e44:	3516      	adds	r5, #22
10005e46:	00ad      	lsls	r5, r5, #2
10005e48:	9b01      	ldr	r3, [sp, #4]
10005e4a:	512b      	str	r3, [r5, r4]
10005e4c:	2501      	movs	r5, #1
10005e4e:	e000      	b.n	10005e52 <xTaskGenericNotifyFromISR+0x62>
10005e50:	2501      	movs	r5, #1
10005e52:	2f01      	cmp	r7, #1
10005e54:	d014      	beq.n	10005e80 <xTaskGenericNotifyFromISR+0x90>
10005e56:	f000 fbbd 	bl	100065d4 <vClearInterruptMaskFromISR>
10005e5a:	0028      	movs	r0, r5
10005e5c:	b003      	add	sp, #12
10005e5e:	bdf0      	pop	{r4, r5, r6, r7, pc}
10005e60:	3516      	adds	r5, #22
10005e62:	00ad      	lsls	r5, r5, #2
10005e64:	592a      	ldr	r2, [r5, r4]
10005e66:	9e01      	ldr	r6, [sp, #4]
10005e68:	4316      	orrs	r6, r2
10005e6a:	512e      	str	r6, [r5, r4]
10005e6c:	2501      	movs	r5, #1
10005e6e:	e7f0      	b.n	10005e52 <xTaskGenericNotifyFromISR+0x62>
10005e70:	3516      	adds	r5, #22
10005e72:	00ad      	lsls	r5, r5, #2
10005e74:	9b01      	ldr	r3, [sp, #4]
10005e76:	512b      	str	r3, [r5, r4]
10005e78:	2501      	movs	r5, #1
10005e7a:	e7ea      	b.n	10005e52 <xTaskGenericNotifyFromISR+0x62>
10005e7c:	2500      	movs	r5, #0
10005e7e:	e7e8      	b.n	10005e52 <xTaskGenericNotifyFromISR+0x62>
10005e80:	4b2a      	ldr	r3, [pc, #168]	; (10005f2c <xTaskGenericNotifyFromISR+0x13c>)
10005e82:	6f1b      	ldr	r3, [r3, #112]	; 0x70
10005e84:	2b00      	cmp	r3, #0
10005e86:	d141      	bne.n	10005f0c <xTaskGenericNotifyFromISR+0x11c>
10005e88:	6963      	ldr	r3, [r4, #20]
10005e8a:	68a2      	ldr	r2, [r4, #8]
10005e8c:	68e1      	ldr	r1, [r4, #12]
10005e8e:	6091      	str	r1, [r2, #8]
10005e90:	68e2      	ldr	r2, [r4, #12]
10005e92:	68a1      	ldr	r1, [r4, #8]
10005e94:	6051      	str	r1, [r2, #4]
10005e96:	1d26      	adds	r6, r4, #4
10005e98:	685a      	ldr	r2, [r3, #4]
10005e9a:	42b2      	cmp	r2, r6
10005e9c:	d033      	beq.n	10005f06 <xTaskGenericNotifyFromISR+0x116>
10005e9e:	2200      	movs	r2, #0
10005ea0:	6162      	str	r2, [r4, #20]
10005ea2:	681a      	ldr	r2, [r3, #0]
10005ea4:	3a01      	subs	r2, #1
10005ea6:	601a      	str	r2, [r3, #0]
10005ea8:	6ae3      	ldr	r3, [r4, #44]	; 0x2c
10005eaa:	4a20      	ldr	r2, [pc, #128]	; (10005f2c <xTaskGenericNotifyFromISR+0x13c>)
10005eac:	6e52      	ldr	r2, [r2, #100]	; 0x64
10005eae:	4293      	cmp	r3, r2
10005eb0:	d901      	bls.n	10005eb6 <xTaskGenericNotifyFromISR+0xc6>
10005eb2:	4a1e      	ldr	r2, [pc, #120]	; (10005f2c <xTaskGenericNotifyFromISR+0x13c>)
10005eb4:	6653      	str	r3, [r2, #100]	; 0x64
10005eb6:	491e      	ldr	r1, [pc, #120]	; (10005f30 <xTaskGenericNotifyFromISR+0x140>)
10005eb8:	009a      	lsls	r2, r3, #2
10005eba:	18d2      	adds	r2, r2, r3
10005ebc:	0092      	lsls	r2, r2, #2
10005ebe:	188a      	adds	r2, r1, r2
10005ec0:	6b53      	ldr	r3, [r2, #52]	; 0x34
10005ec2:	60a3      	str	r3, [r4, #8]
10005ec4:	689a      	ldr	r2, [r3, #8]
10005ec6:	60e2      	str	r2, [r4, #12]
10005ec8:	6056      	str	r6, [r2, #4]
10005eca:	609e      	str	r6, [r3, #8]
10005ecc:	6ae6      	ldr	r6, [r4, #44]	; 0x2c
10005ece:	000a      	movs	r2, r1
10005ed0:	3230      	adds	r2, #48	; 0x30
10005ed2:	00b3      	lsls	r3, r6, #2
10005ed4:	199f      	adds	r7, r3, r6
10005ed6:	00bf      	lsls	r7, r7, #2
10005ed8:	19d2      	adds	r2, r2, r7
10005eda:	6162      	str	r2, [r4, #20]
10005edc:	19ca      	adds	r2, r1, r7
10005ede:	6b12      	ldr	r2, [r2, #48]	; 0x30
10005ee0:	3201      	adds	r2, #1
10005ee2:	19cb      	adds	r3, r1, r7
10005ee4:	631a      	str	r2, [r3, #48]	; 0x30
10005ee6:	6ae2      	ldr	r2, [r4, #44]	; 0x2c
10005ee8:	4b10      	ldr	r3, [pc, #64]	; (10005f2c <xTaskGenericNotifyFromISR+0x13c>)
10005eea:	6d9b      	ldr	r3, [r3, #88]	; 0x58
10005eec:	6adb      	ldr	r3, [r3, #44]	; 0x2c
10005eee:	429a      	cmp	r2, r3
10005ef0:	d9b1      	bls.n	10005e56 <xTaskGenericNotifyFromISR+0x66>
10005ef2:	9b09      	ldr	r3, [sp, #36]	; 0x24
10005ef4:	2b00      	cmp	r3, #0
10005ef6:	d002      	beq.n	10005efe <xTaskGenericNotifyFromISR+0x10e>
10005ef8:	2301      	movs	r3, #1
10005efa:	9a09      	ldr	r2, [sp, #36]	; 0x24
10005efc:	6013      	str	r3, [r2, #0]
10005efe:	4b0b      	ldr	r3, [pc, #44]	; (10005f2c <xTaskGenericNotifyFromISR+0x13c>)
10005f00:	2201      	movs	r2, #1
10005f02:	675a      	str	r2, [r3, #116]	; 0x74
10005f04:	e7a7      	b.n	10005e56 <xTaskGenericNotifyFromISR+0x66>
10005f06:	68e2      	ldr	r2, [r4, #12]
10005f08:	605a      	str	r2, [r3, #4]
10005f0a:	e7c8      	b.n	10005e9e <xTaskGenericNotifyFromISR+0xae>
10005f0c:	4b08      	ldr	r3, [pc, #32]	; (10005f30 <xTaskGenericNotifyFromISR+0x140>)
10005f0e:	699a      	ldr	r2, [r3, #24]
10005f10:	61e2      	str	r2, [r4, #28]
10005f12:	6896      	ldr	r6, [r2, #8]
10005f14:	6226      	str	r6, [r4, #32]
10005f16:	0021      	movs	r1, r4
10005f18:	3118      	adds	r1, #24
10005f1a:	6071      	str	r1, [r6, #4]
10005f1c:	6091      	str	r1, [r2, #8]
10005f1e:	001a      	movs	r2, r3
10005f20:	3214      	adds	r2, #20
10005f22:	62a2      	str	r2, [r4, #40]	; 0x28
10005f24:	695a      	ldr	r2, [r3, #20]
10005f26:	3201      	adds	r2, #1
10005f28:	615a      	str	r2, [r3, #20]
10005f2a:	e7dc      	b.n	10005ee6 <xTaskGenericNotifyFromISR+0xf6>
10005f2c:	20000d3c 	.word	0x20000d3c
10005f30:	20000cbc 	.word	0x20000cbc

10005f34 <vTaskGenericNotifyGiveFromISR>:
10005f34:	b5f8      	push	{r3, r4, r5, r6, r7, lr}
10005f36:	0006      	movs	r6, r0
10005f38:	000c      	movs	r4, r1
10005f3a:	0015      	movs	r5, r2
10005f3c:	f000 fb46 	bl	100065cc <ulSetInterruptMaskFromISR>
10005f40:	1933      	adds	r3, r6, r4
10005f42:	3364      	adds	r3, #100	; 0x64
10005f44:	781a      	ldrb	r2, [r3, #0]
10005f46:	2102      	movs	r1, #2
10005f48:	7019      	strb	r1, [r3, #0]
10005f4a:	3416      	adds	r4, #22
10005f4c:	00a4      	lsls	r4, r4, #2
10005f4e:	59a3      	ldr	r3, [r4, r6]
10005f50:	3301      	adds	r3, #1
10005f52:	51a3      	str	r3, [r4, r6]
10005f54:	2a01      	cmp	r2, #1
10005f56:	d002      	beq.n	10005f5e <vTaskGenericNotifyGiveFromISR+0x2a>
10005f58:	f000 fb3c 	bl	100065d4 <vClearInterruptMaskFromISR>
10005f5c:	bdf8      	pop	{r3, r4, r5, r6, r7, pc}
10005f5e:	4b2a      	ldr	r3, [pc, #168]	; (10006008 <vTaskGenericNotifyGiveFromISR+0xd4>)
10005f60:	6f1b      	ldr	r3, [r3, #112]	; 0x70
10005f62:	2b00      	cmp	r3, #0
10005f64:	d13f      	bne.n	10005fe6 <vTaskGenericNotifyGiveFromISR+0xb2>
10005f66:	6973      	ldr	r3, [r6, #20]
10005f68:	68b2      	ldr	r2, [r6, #8]
10005f6a:	68f1      	ldr	r1, [r6, #12]
10005f6c:	6091      	str	r1, [r2, #8]
10005f6e:	68f2      	ldr	r2, [r6, #12]
10005f70:	68b1      	ldr	r1, [r6, #8]
10005f72:	6051      	str	r1, [r2, #4]
10005f74:	1d34      	adds	r4, r6, #4
10005f76:	685a      	ldr	r2, [r3, #4]
10005f78:	42a2      	cmp	r2, r4
10005f7a:	d031      	beq.n	10005fe0 <vTaskGenericNotifyGiveFromISR+0xac>
10005f7c:	2200      	movs	r2, #0
10005f7e:	6172      	str	r2, [r6, #20]
10005f80:	681a      	ldr	r2, [r3, #0]
10005f82:	3a01      	subs	r2, #1
10005f84:	601a      	str	r2, [r3, #0]
10005f86:	6af3      	ldr	r3, [r6, #44]	; 0x2c
10005f88:	4a1f      	ldr	r2, [pc, #124]	; (10006008 <vTaskGenericNotifyGiveFromISR+0xd4>)
10005f8a:	6e52      	ldr	r2, [r2, #100]	; 0x64
10005f8c:	4293      	cmp	r3, r2
10005f8e:	d901      	bls.n	10005f94 <vTaskGenericNotifyGiveFromISR+0x60>
10005f90:	4a1d      	ldr	r2, [pc, #116]	; (10006008 <vTaskGenericNotifyGiveFromISR+0xd4>)
10005f92:	6653      	str	r3, [r2, #100]	; 0x64
10005f94:	491d      	ldr	r1, [pc, #116]	; (1000600c <vTaskGenericNotifyGiveFromISR+0xd8>)
10005f96:	009a      	lsls	r2, r3, #2
10005f98:	18d2      	adds	r2, r2, r3
10005f9a:	0092      	lsls	r2, r2, #2
10005f9c:	188a      	adds	r2, r1, r2
10005f9e:	6b53      	ldr	r3, [r2, #52]	; 0x34
10005fa0:	60b3      	str	r3, [r6, #8]
10005fa2:	689a      	ldr	r2, [r3, #8]
10005fa4:	60f2      	str	r2, [r6, #12]
10005fa6:	6054      	str	r4, [r2, #4]
10005fa8:	609c      	str	r4, [r3, #8]
10005faa:	6af4      	ldr	r4, [r6, #44]	; 0x2c
10005fac:	000a      	movs	r2, r1
10005fae:	3230      	adds	r2, #48	; 0x30
10005fb0:	00a3      	lsls	r3, r4, #2
10005fb2:	191f      	adds	r7, r3, r4
10005fb4:	00bf      	lsls	r7, r7, #2
10005fb6:	19d2      	adds	r2, r2, r7
10005fb8:	6172      	str	r2, [r6, #20]
10005fba:	19ca      	adds	r2, r1, r7
10005fbc:	6b12      	ldr	r2, [r2, #48]	; 0x30
10005fbe:	3201      	adds	r2, #1
10005fc0:	19cb      	adds	r3, r1, r7
10005fc2:	631a      	str	r2, [r3, #48]	; 0x30
10005fc4:	6af2      	ldr	r2, [r6, #44]	; 0x2c
10005fc6:	4b10      	ldr	r3, [pc, #64]	; (10006008 <vTaskGenericNotifyGiveFromISR+0xd4>)
10005fc8:	6d9b      	ldr	r3, [r3, #88]	; 0x58
10005fca:	6adb      	ldr	r3, [r3, #44]	; 0x2c
10005fcc:	429a      	cmp	r2, r3
10005fce:	d9c3      	bls.n	10005f58 <vTaskGenericNotifyGiveFromISR+0x24>
10005fd0:	2d00      	cmp	r5, #0
10005fd2:	d001      	beq.n	10005fd8 <vTaskGenericNotifyGiveFromISR+0xa4>
10005fd4:	2301      	movs	r3, #1
10005fd6:	602b      	str	r3, [r5, #0]
10005fd8:	4b0b      	ldr	r3, [pc, #44]	; (10006008 <vTaskGenericNotifyGiveFromISR+0xd4>)
10005fda:	2201      	movs	r2, #1
10005fdc:	675a      	str	r2, [r3, #116]	; 0x74
10005fde:	e7bb      	b.n	10005f58 <vTaskGenericNotifyGiveFromISR+0x24>
10005fe0:	68f2      	ldr	r2, [r6, #12]
10005fe2:	605a      	str	r2, [r3, #4]
10005fe4:	e7ca      	b.n	10005f7c <vTaskGenericNotifyGiveFromISR+0x48>
10005fe6:	4b09      	ldr	r3, [pc, #36]	; (1000600c <vTaskGenericNotifyGiveFromISR+0xd8>)
10005fe8:	699a      	ldr	r2, [r3, #24]
10005fea:	61f2      	str	r2, [r6, #28]
10005fec:	6894      	ldr	r4, [r2, #8]
10005fee:	6234      	str	r4, [r6, #32]
10005ff0:	0031      	movs	r1, r6
10005ff2:	3118      	adds	r1, #24
10005ff4:	6061      	str	r1, [r4, #4]
10005ff6:	6091      	str	r1, [r2, #8]
10005ff8:	001a      	movs	r2, r3
10005ffa:	3214      	adds	r2, #20
10005ffc:	62b2      	str	r2, [r6, #40]	; 0x28
10005ffe:	695a      	ldr	r2, [r3, #20]
10006000:	3201      	adds	r2, #1
10006002:	615a      	str	r2, [r3, #20]
10006004:	e7de      	b.n	10005fc4 <vTaskGenericNotifyGiveFromISR+0x90>
10006006:	46c0      	nop			; (mov r8, r8)
10006008:	20000d3c 	.word	0x20000d3c
1000600c:	20000cbc 	.word	0x20000cbc

10006010 <xTaskGenericNotifyStateClear>:
10006010:	b570      	push	{r4, r5, r6, lr}
10006012:	0004      	movs	r4, r0
10006014:	000d      	movs	r5, r1
10006016:	2800      	cmp	r0, #0
10006018:	d00b      	beq.n	10006032 <xTaskGenericNotifyStateClear+0x22>
1000601a:	f000 fac1 	bl	100065a0 <vPortEnterCritical>
1000601e:	1963      	adds	r3, r4, r5
10006020:	3364      	adds	r3, #100	; 0x64
10006022:	781b      	ldrb	r3, [r3, #0]
10006024:	2b02      	cmp	r3, #2
10006026:	d007      	beq.n	10006038 <xTaskGenericNotifyStateClear+0x28>
10006028:	2400      	movs	r4, #0
1000602a:	f000 fac5 	bl	100065b8 <vPortExitCritical>
1000602e:	0020      	movs	r0, r4
10006030:	bd70      	pop	{r4, r5, r6, pc}
10006032:	4b04      	ldr	r3, [pc, #16]	; (10006044 <xTaskGenericNotifyStateClear+0x34>)
10006034:	6d9c      	ldr	r4, [r3, #88]	; 0x58
10006036:	e7f0      	b.n	1000601a <xTaskGenericNotifyStateClear+0xa>
10006038:	1964      	adds	r4, r4, r5
1000603a:	3464      	adds	r4, #100	; 0x64
1000603c:	2300      	movs	r3, #0
1000603e:	7023      	strb	r3, [r4, #0]
10006040:	2401      	movs	r4, #1
10006042:	e7f2      	b.n	1000602a <xTaskGenericNotifyStateClear+0x1a>
10006044:	20000d3c 	.word	0x20000d3c

10006048 <ulTaskGenericNotifyValueClear>:
10006048:	b570      	push	{r4, r5, r6, lr}
1000604a:	0005      	movs	r5, r0
1000604c:	000c      	movs	r4, r1
1000604e:	0016      	movs	r6, r2
10006050:	2800      	cmp	r0, #0
10006052:	d00b      	beq.n	1000606c <ulTaskGenericNotifyValueClear+0x24>
10006054:	f000 faa4 	bl	100065a0 <vPortEnterCritical>
10006058:	3416      	adds	r4, #22
1000605a:	00a1      	lsls	r1, r4, #2
1000605c:	594c      	ldr	r4, [r1, r5]
1000605e:	594b      	ldr	r3, [r1, r5]
10006060:	43b3      	bics	r3, r6
10006062:	514b      	str	r3, [r1, r5]
10006064:	f000 faa8 	bl	100065b8 <vPortExitCritical>
10006068:	0020      	movs	r0, r4
1000606a:	bd70      	pop	{r4, r5, r6, pc}
1000606c:	4b01      	ldr	r3, [pc, #4]	; (10006074 <ulTaskGenericNotifyValueClear+0x2c>)
1000606e:	6d9d      	ldr	r5, [r3, #88]	; 0x58
10006070:	e7f0      	b.n	10006054 <ulTaskGenericNotifyValueClear+0xc>
10006072:	46c0      	nop			; (mov r8, r8)
10006074:	20000d3c 	.word	0x20000d3c

10006078 <prvGetNextExpireTime>:
10006078:	4b07      	ldr	r3, [pc, #28]	; (10006098 <prvGetNextExpireTime+0x20>)
1000607a:	681a      	ldr	r2, [r3, #0]
1000607c:	6813      	ldr	r3, [r2, #0]
1000607e:	2b00      	cmp	r3, #0
10006080:	d106      	bne.n	10006090 <prvGetNextExpireTime+0x18>
10006082:	3301      	adds	r3, #1
10006084:	6003      	str	r3, [r0, #0]
10006086:	2b00      	cmp	r3, #0
10006088:	d104      	bne.n	10006094 <prvGetNextExpireTime+0x1c>
1000608a:	68d3      	ldr	r3, [r2, #12]
1000608c:	6818      	ldr	r0, [r3, #0]
1000608e:	4770      	bx	lr
10006090:	2300      	movs	r3, #0
10006092:	e7f7      	b.n	10006084 <prvGetNextExpireTime+0xc>
10006094:	2000      	movs	r0, #0
10006096:	e7fa      	b.n	1000608e <prvGetNextExpireTime+0x16>
10006098:	20000dc0 	.word	0x20000dc0

1000609c <prvInsertTimerInActiveList>:
1000609c:	b510      	push	{r4, lr}
1000609e:	6041      	str	r1, [r0, #4]
100060a0:	6100      	str	r0, [r0, #16]
100060a2:	4291      	cmp	r1, r2
100060a4:	d80c      	bhi.n	100060c0 <prvInsertTimerInActiveList+0x24>
100060a6:	1ad2      	subs	r2, r2, r3
100060a8:	6983      	ldr	r3, [r0, #24]
100060aa:	429a      	cmp	r2, r3
100060ac:	d301      	bcc.n	100060b2 <prvInsertTimerInActiveList+0x16>
100060ae:	2001      	movs	r0, #1
100060b0:	bd10      	pop	{r4, pc}
100060b2:	1d01      	adds	r1, r0, #4
100060b4:	4b09      	ldr	r3, [pc, #36]	; (100060dc <prvInsertTimerInActiveList+0x40>)
100060b6:	6858      	ldr	r0, [r3, #4]
100060b8:	f000 fb11 	bl	100066de <vListInsert>
100060bc:	2000      	movs	r0, #0
100060be:	e7f7      	b.n	100060b0 <prvInsertTimerInActiveList+0x14>
100060c0:	429a      	cmp	r2, r3
100060c2:	d201      	bcs.n	100060c8 <prvInsertTimerInActiveList+0x2c>
100060c4:	4299      	cmp	r1, r3
100060c6:	d206      	bcs.n	100060d6 <prvInsertTimerInActiveList+0x3a>
100060c8:	1d01      	adds	r1, r0, #4
100060ca:	4b04      	ldr	r3, [pc, #16]	; (100060dc <prvInsertTimerInActiveList+0x40>)
100060cc:	6818      	ldr	r0, [r3, #0]
100060ce:	f000 fb06 	bl	100066de <vListInsert>
100060d2:	2000      	movs	r0, #0
100060d4:	e7ec      	b.n	100060b0 <prvInsertTimerInActiveList+0x14>
100060d6:	2001      	movs	r0, #1
100060d8:	e7ea      	b.n	100060b0 <prvInsertTimerInActiveList+0x14>
100060da:	46c0      	nop			; (mov r8, r8)
100060dc:	20000dc0 	.word	0x20000dc0

100060e0 <prvReloadTimer>:
100060e0:	b570      	push	{r4, r5, r6, lr}
100060e2:	0004      	movs	r4, r0
100060e4:	000d      	movs	r5, r1
100060e6:	0016      	movs	r6, r2
100060e8:	e005      	b.n	100060f6 <prvReloadTimer+0x16>
100060ea:	69a3      	ldr	r3, [r4, #24]
100060ec:	469c      	mov	ip, r3
100060ee:	4465      	add	r5, ip
100060f0:	0020      	movs	r0, r4
100060f2:	6a23      	ldr	r3, [r4, #32]
100060f4:	4798      	blx	r3
100060f6:	69a3      	ldr	r3, [r4, #24]
100060f8:	1959      	adds	r1, r3, r5
100060fa:	002b      	movs	r3, r5
100060fc:	0032      	movs	r2, r6
100060fe:	0020      	movs	r0, r4
10006100:	f7ff ffcc 	bl	1000609c <prvInsertTimerInActiveList>
10006104:	2800      	cmp	r0, #0
10006106:	d1f0      	bne.n	100060ea <prvReloadTimer+0xa>
10006108:	bd70      	pop	{r4, r5, r6, pc}

1000610a <prvProcessExpiredTimer>:
1000610a:	b570      	push	{r4, r5, r6, lr}
1000610c:	0005      	movs	r5, r0
1000610e:	000e      	movs	r6, r1
10006110:	4b0c      	ldr	r3, [pc, #48]	; (10006144 <prvProcessExpiredTimer+0x3a>)
10006112:	681b      	ldr	r3, [r3, #0]
10006114:	68db      	ldr	r3, [r3, #12]
10006116:	68dc      	ldr	r4, [r3, #12]
10006118:	1d20      	adds	r0, r4, #4
1000611a:	f000 faf7 	bl	1000670c <uxListRemove>
1000611e:	2324      	movs	r3, #36	; 0x24
10006120:	5ce3      	ldrb	r3, [r4, r3]
10006122:	075a      	lsls	r2, r3, #29
10006124:	d407      	bmi.n	10006136 <prvProcessExpiredTimer+0x2c>
10006126:	2201      	movs	r2, #1
10006128:	4393      	bics	r3, r2
1000612a:	3223      	adds	r2, #35	; 0x23
1000612c:	54a3      	strb	r3, [r4, r2]
1000612e:	6a23      	ldr	r3, [r4, #32]
10006130:	0020      	movs	r0, r4
10006132:	4798      	blx	r3
10006134:	bd70      	pop	{r4, r5, r6, pc}
10006136:	0032      	movs	r2, r6
10006138:	0029      	movs	r1, r5
1000613a:	0020      	movs	r0, r4
1000613c:	f7ff ffd0 	bl	100060e0 <prvReloadTimer>
10006140:	e7f5      	b.n	1000612e <prvProcessExpiredTimer+0x24>
10006142:	46c0      	nop			; (mov r8, r8)
10006144:	20000dc0 	.word	0x20000dc0

10006148 <prvSwitchTimerLists>:
10006148:	b510      	push	{r4, lr}
1000614a:	e005      	b.n	10006158 <prvSwitchTimerLists+0x10>
1000614c:	68db      	ldr	r3, [r3, #12]
1000614e:	6818      	ldr	r0, [r3, #0]
10006150:	2101      	movs	r1, #1
10006152:	4249      	negs	r1, r1
10006154:	f7ff ffd9 	bl	1000610a <prvProcessExpiredTimer>
10006158:	4b04      	ldr	r3, [pc, #16]	; (1000616c <prvSwitchTimerLists+0x24>)
1000615a:	681b      	ldr	r3, [r3, #0]
1000615c:	681a      	ldr	r2, [r3, #0]
1000615e:	2a00      	cmp	r2, #0
10006160:	d1f4      	bne.n	1000614c <prvSwitchTimerLists+0x4>
10006162:	4a02      	ldr	r2, [pc, #8]	; (1000616c <prvSwitchTimerLists+0x24>)
10006164:	6851      	ldr	r1, [r2, #4]
10006166:	6011      	str	r1, [r2, #0]
10006168:	6053      	str	r3, [r2, #4]
1000616a:	bd10      	pop	{r4, pc}
1000616c:	20000dc0 	.word	0x20000dc0

10006170 <prvSampleTimeNow>:
10006170:	b570      	push	{r4, r5, r6, lr}
10006172:	0005      	movs	r5, r0
10006174:	f7ff f968 	bl	10005448 <xTaskGetTickCount>
10006178:	0004      	movs	r4, r0
1000617a:	4b07      	ldr	r3, [pc, #28]	; (10006198 <prvSampleTimeNow+0x28>)
1000617c:	689b      	ldr	r3, [r3, #8]
1000617e:	4283      	cmp	r3, r0
10006180:	d805      	bhi.n	1000618e <prvSampleTimeNow+0x1e>
10006182:	2300      	movs	r3, #0
10006184:	602b      	str	r3, [r5, #0]
10006186:	4b04      	ldr	r3, [pc, #16]	; (10006198 <prvSampleTimeNow+0x28>)
10006188:	609c      	str	r4, [r3, #8]
1000618a:	0020      	movs	r0, r4
1000618c:	bd70      	pop	{r4, r5, r6, pc}
1000618e:	f7ff ffdb 	bl	10006148 <prvSwitchTimerLists>
10006192:	2301      	movs	r3, #1
10006194:	602b      	str	r3, [r5, #0]
10006196:	e7f6      	b.n	10006186 <prvSampleTimeNow+0x16>
10006198:	20000dc0 	.word	0x20000dc0

1000619c <prvProcessTimerOrBlockTask>:
1000619c:	b570      	push	{r4, r5, r6, lr}
1000619e:	b082      	sub	sp, #8
100061a0:	0004      	movs	r4, r0
100061a2:	000d      	movs	r5, r1
100061a4:	f7ff f948 	bl	10005438 <vTaskSuspendAll>
100061a8:	a801      	add	r0, sp, #4
100061aa:	f7ff ffe1 	bl	10006170 <prvSampleTimeNow>
100061ae:	0006      	movs	r6, r0
100061b0:	9b01      	ldr	r3, [sp, #4]
100061b2:	2b00      	cmp	r3, #0
100061b4:	d123      	bne.n	100061fe <prvProcessTimerOrBlockTask+0x62>
100061b6:	2d00      	cmp	r5, #0
100061b8:	d101      	bne.n	100061be <prvProcessTimerOrBlockTask+0x22>
100061ba:	42a0      	cmp	r0, r4
100061bc:	d213      	bcs.n	100061e6 <prvProcessTimerOrBlockTask+0x4a>
100061be:	2d00      	cmp	r5, #0
100061c0:	d005      	beq.n	100061ce <prvProcessTimerOrBlockTask+0x32>
100061c2:	4a10      	ldr	r2, [pc, #64]	; (10006204 <prvProcessTimerOrBlockTask+0x68>)
100061c4:	6852      	ldr	r2, [r2, #4]
100061c6:	6812      	ldr	r2, [r2, #0]
100061c8:	2a00      	cmp	r2, #0
100061ca:	d113      	bne.n	100061f4 <prvProcessTimerOrBlockTask+0x58>
100061cc:	2501      	movs	r5, #1
100061ce:	1ba1      	subs	r1, r4, r6
100061d0:	4b0c      	ldr	r3, [pc, #48]	; (10006204 <prvProcessTimerOrBlockTask+0x68>)
100061d2:	68d8      	ldr	r0, [r3, #12]
100061d4:	002a      	movs	r2, r5
100061d6:	f7fe fde1 	bl	10004d9c <vQueueWaitForMessageRestricted>
100061da:	f7ff f9e7 	bl	100055ac <xTaskResumeAll>
100061de:	2800      	cmp	r0, #0
100061e0:	d00a      	beq.n	100061f8 <prvProcessTimerOrBlockTask+0x5c>
100061e2:	b002      	add	sp, #8
100061e4:	bd70      	pop	{r4, r5, r6, pc}
100061e6:	f7ff f9e1 	bl	100055ac <xTaskResumeAll>
100061ea:	0031      	movs	r1, r6
100061ec:	0020      	movs	r0, r4
100061ee:	f7ff ff8c 	bl	1000610a <prvProcessExpiredTimer>
100061f2:	e7f6      	b.n	100061e2 <prvProcessTimerOrBlockTask+0x46>
100061f4:	001d      	movs	r5, r3
100061f6:	e7ea      	b.n	100061ce <prvProcessTimerOrBlockTask+0x32>
100061f8:	f000 f9c6 	bl	10006588 <vPortYield>
100061fc:	e7f1      	b.n	100061e2 <prvProcessTimerOrBlockTask+0x46>
100061fe:	f7ff f9d5 	bl	100055ac <xTaskResumeAll>
10006202:	e7ee      	b.n	100061e2 <prvProcessTimerOrBlockTask+0x46>
10006204:	20000dc0 	.word	0x20000dc0

10006208 <prvProcessReceivedCommands>:
10006208:	b530      	push	{r4, r5, lr}
1000620a:	b085      	sub	sp, #20
1000620c:	4b32      	ldr	r3, [pc, #200]	; (100062d8 <prvProcessReceivedCommands+0xd0>)
1000620e:	68d8      	ldr	r0, [r3, #12]
10006210:	2200      	movs	r2, #0
10006212:	a901      	add	r1, sp, #4
10006214:	f7fe fb97 	bl	10004946 <xQueueReceive>
10006218:	2800      	cmp	r0, #0
1000621a:	d05a      	beq.n	100062d2 <prvProcessReceivedCommands+0xca>
1000621c:	9b01      	ldr	r3, [sp, #4]
1000621e:	2b00      	cmp	r3, #0
10006220:	dbf4      	blt.n	1000620c <prvProcessReceivedCommands+0x4>
10006222:	9c03      	ldr	r4, [sp, #12]
10006224:	6963      	ldr	r3, [r4, #20]
10006226:	2b00      	cmp	r3, #0
10006228:	d002      	beq.n	10006230 <prvProcessReceivedCommands+0x28>
1000622a:	1d20      	adds	r0, r4, #4
1000622c:	f000 fa6e 	bl	1000670c <uxListRemove>
10006230:	4668      	mov	r0, sp
10006232:	f7ff ff9d 	bl	10006170 <prvSampleTimeNow>
10006236:	0005      	movs	r5, r0
10006238:	9901      	ldr	r1, [sp, #4]
1000623a:	2909      	cmp	r1, #9
1000623c:	d8e6      	bhi.n	1000620c <prvProcessReceivedCommands+0x4>
1000623e:	0089      	lsls	r1, r1, #2
10006240:	4b26      	ldr	r3, [pc, #152]	; (100062dc <prvProcessReceivedCommands+0xd4>)
10006242:	5859      	ldr	r1, [r3, r1]
10006244:	468f      	mov	pc, r1
10006246:	2224      	movs	r2, #36	; 0x24
10006248:	5ca3      	ldrb	r3, [r4, r2]
1000624a:	2101      	movs	r1, #1
1000624c:	430b      	orrs	r3, r1
1000624e:	54a3      	strb	r3, [r4, r2]
10006250:	9902      	ldr	r1, [sp, #8]
10006252:	69a3      	ldr	r3, [r4, #24]
10006254:	469c      	mov	ip, r3
10006256:	4461      	add	r1, ip
10006258:	9b02      	ldr	r3, [sp, #8]
1000625a:	0002      	movs	r2, r0
1000625c:	0020      	movs	r0, r4
1000625e:	f7ff ff1d 	bl	1000609c <prvInsertTimerInActiveList>
10006262:	2800      	cmp	r0, #0
10006264:	d0d2      	beq.n	1000620c <prvProcessReceivedCommands+0x4>
10006266:	2324      	movs	r3, #36	; 0x24
10006268:	5ce3      	ldrb	r3, [r4, r3]
1000626a:	075a      	lsls	r2, r3, #29
1000626c:	d407      	bmi.n	1000627e <prvProcessReceivedCommands+0x76>
1000626e:	2201      	movs	r2, #1
10006270:	4393      	bics	r3, r2
10006272:	3223      	adds	r2, #35	; 0x23
10006274:	54a3      	strb	r3, [r4, r2]
10006276:	6a23      	ldr	r3, [r4, #32]
10006278:	0020      	movs	r0, r4
1000627a:	4798      	blx	r3
1000627c:	e7c6      	b.n	1000620c <prvProcessReceivedCommands+0x4>
1000627e:	9902      	ldr	r1, [sp, #8]
10006280:	69a3      	ldr	r3, [r4, #24]
10006282:	469c      	mov	ip, r3
10006284:	4461      	add	r1, ip
10006286:	002a      	movs	r2, r5
10006288:	0020      	movs	r0, r4
1000628a:	f7ff ff29 	bl	100060e0 <prvReloadTimer>
1000628e:	e7f2      	b.n	10006276 <prvProcessReceivedCommands+0x6e>
10006290:	2224      	movs	r2, #36	; 0x24
10006292:	5ca3      	ldrb	r3, [r4, r2]
10006294:	2101      	movs	r1, #1
10006296:	438b      	bics	r3, r1
10006298:	54a3      	strb	r3, [r4, r2]
1000629a:	e7b7      	b.n	1000620c <prvProcessReceivedCommands+0x4>
1000629c:	2224      	movs	r2, #36	; 0x24
1000629e:	5ca3      	ldrb	r3, [r4, r2]
100062a0:	2101      	movs	r1, #1
100062a2:	430b      	orrs	r3, r1
100062a4:	54a3      	strb	r3, [r4, r2]
100062a6:	9902      	ldr	r1, [sp, #8]
100062a8:	61a1      	str	r1, [r4, #24]
100062aa:	1809      	adds	r1, r1, r0
100062ac:	0003      	movs	r3, r0
100062ae:	0002      	movs	r2, r0
100062b0:	0020      	movs	r0, r4
100062b2:	f7ff fef3 	bl	1000609c <prvInsertTimerInActiveList>
100062b6:	e7a9      	b.n	1000620c <prvProcessReceivedCommands+0x4>
100062b8:	2324      	movs	r3, #36	; 0x24
100062ba:	5ce3      	ldrb	r3, [r4, r3]
100062bc:	079a      	lsls	r2, r3, #30
100062be:	d504      	bpl.n	100062ca <prvProcessReceivedCommands+0xc2>
100062c0:	2201      	movs	r2, #1
100062c2:	4393      	bics	r3, r2
100062c4:	3223      	adds	r2, #35	; 0x23
100062c6:	54a3      	strb	r3, [r4, r2]
100062c8:	e7a0      	b.n	1000620c <prvProcessReceivedCommands+0x4>
100062ca:	0020      	movs	r0, r4
100062cc:	f000 f91c 	bl	10006508 <vPortFree>
100062d0:	e79c      	b.n	1000620c <prvProcessReceivedCommands+0x4>
100062d2:	b005      	add	sp, #20
100062d4:	bd30      	pop	{r4, r5, pc}
100062d6:	46c0      	nop			; (mov r8, r8)
100062d8:	20000dc0 	.word	0x20000dc0
100062dc:	10007ef4 	.word	0x10007ef4

100062e0 <prvTimerTask>:
100062e0:	b500      	push	{lr}
100062e2:	b083      	sub	sp, #12
100062e4:	a801      	add	r0, sp, #4
100062e6:	f7ff fec7 	bl	10006078 <prvGetNextExpireTime>
100062ea:	9901      	ldr	r1, [sp, #4]
100062ec:	f7ff ff56 	bl	1000619c <prvProcessTimerOrBlockTask>
100062f0:	f7ff ff8a 	bl	10006208 <prvProcessReceivedCommands>
100062f4:	e7f6      	b.n	100062e4 <prvTimerTask+0x4>

100062f6 <prvCheckForValidListAndQueue>:
100062f6:	b570      	push	{r4, r5, r6, lr}
100062f8:	f000 f952 	bl	100065a0 <vPortEnterCritical>
100062fc:	4b0f      	ldr	r3, [pc, #60]	; (1000633c <prvCheckForValidListAndQueue+0x46>)
100062fe:	68db      	ldr	r3, [r3, #12]
10006300:	2b00      	cmp	r3, #0
10006302:	d002      	beq.n	1000630a <prvCheckForValidListAndQueue+0x14>
10006304:	f000 f958 	bl	100065b8 <vPortExitCritical>
10006308:	bd70      	pop	{r4, r5, r6, pc}
1000630a:	4c0c      	ldr	r4, [pc, #48]	; (1000633c <prvCheckForValidListAndQueue+0x46>)
1000630c:	0026      	movs	r6, r4
1000630e:	3610      	adds	r6, #16
10006310:	0030      	movs	r0, r6
10006312:	f000 f9cb 	bl	100066ac <vListInitialise>
10006316:	0025      	movs	r5, r4
10006318:	3524      	adds	r5, #36	; 0x24
1000631a:	0028      	movs	r0, r5
1000631c:	f000 f9c6 	bl	100066ac <vListInitialise>
10006320:	6026      	str	r6, [r4, #0]
10006322:	6065      	str	r5, [r4, #4]
10006324:	2200      	movs	r2, #0
10006326:	210c      	movs	r1, #12
10006328:	200a      	movs	r0, #10
1000632a:	f7fe f9d9 	bl	100046e0 <xQueueGenericCreate>
1000632e:	60e0      	str	r0, [r4, #12]
10006330:	2800      	cmp	r0, #0
10006332:	d0e7      	beq.n	10006304 <prvCheckForValidListAndQueue+0xe>
10006334:	4902      	ldr	r1, [pc, #8]	; (10006340 <prvCheckForValidListAndQueue+0x4a>)
10006336:	f7fe fce1 	bl	10004cfc <vQueueAddToRegistry>
1000633a:	e7e3      	b.n	10006304 <prvCheckForValidListAndQueue+0xe>
1000633c:	20000dc0 	.word	0x20000dc0
10006340:	10007f1c 	.word	0x10007f1c

10006344 <prvInitialiseNewTimer>:
10006344:	b5f0      	push	{r4, r5, r6, r7, lr}
10006346:	46c6      	mov	lr, r8
10006348:	b500      	push	{lr}
1000634a:	4680      	mov	r8, r0
1000634c:	000f      	movs	r7, r1
1000634e:	0015      	movs	r5, r2
10006350:	001e      	movs	r6, r3
10006352:	9c07      	ldr	r4, [sp, #28]
10006354:	f7ff ffcf 	bl	100062f6 <prvCheckForValidListAndQueue>
10006358:	4643      	mov	r3, r8
1000635a:	6023      	str	r3, [r4, #0]
1000635c:	61a7      	str	r7, [r4, #24]
1000635e:	61e6      	str	r6, [r4, #28]
10006360:	9b06      	ldr	r3, [sp, #24]
10006362:	6223      	str	r3, [r4, #32]
10006364:	1d20      	adds	r0, r4, #4
10006366:	f000 f9ac 	bl	100066c2 <vListInitialiseItem>
1000636a:	2d00      	cmp	r5, #0
1000636c:	d004      	beq.n	10006378 <prvInitialiseNewTimer+0x34>
1000636e:	2224      	movs	r2, #36	; 0x24
10006370:	5ca3      	ldrb	r3, [r4, r2]
10006372:	2104      	movs	r1, #4
10006374:	430b      	orrs	r3, r1
10006376:	54a3      	strb	r3, [r4, r2]
10006378:	bc80      	pop	{r7}
1000637a:	46b8      	mov	r8, r7
1000637c:	bdf0      	pop	{r4, r5, r6, r7, pc}

1000637e <xTimerCreateTimerTask>:
1000637e:	b500      	push	{lr}
10006380:	b083      	sub	sp, #12
10006382:	f7ff ffb8 	bl	100062f6 <prvCheckForValidListAndQueue>
10006386:	4b09      	ldr	r3, [pc, #36]	; (100063ac <xTimerCreateTimerTask+0x2e>)
10006388:	68db      	ldr	r3, [r3, #12]
1000638a:	2b00      	cmp	r3, #0
1000638c:	d00c      	beq.n	100063a8 <xTimerCreateTimerTask+0x2a>
1000638e:	4b07      	ldr	r3, [pc, #28]	; (100063ac <xTimerCreateTimerTask+0x2e>)
10006390:	3338      	adds	r3, #56	; 0x38
10006392:	9301      	str	r3, [sp, #4]
10006394:	2303      	movs	r3, #3
10006396:	9300      	str	r3, [sp, #0]
10006398:	2300      	movs	r3, #0
1000639a:	2280      	movs	r2, #128	; 0x80
1000639c:	4904      	ldr	r1, [pc, #16]	; (100063b0 <xTimerCreateTimerTask+0x32>)
1000639e:	4805      	ldr	r0, [pc, #20]	; (100063b4 <xTimerCreateTimerTask+0x36>)
100063a0:	f7fe fe84 	bl	100050ac <xTaskCreate>
100063a4:	b003      	add	sp, #12
100063a6:	bd00      	pop	{pc}
100063a8:	2000      	movs	r0, #0
100063aa:	e7fb      	b.n	100063a4 <xTimerCreateTimerTask+0x26>
100063ac:	20000dc0 	.word	0x20000dc0
100063b0:	10007f24 	.word	0x10007f24
100063b4:	100062e1 	.word	0x100062e1

100063b8 <xTimerCreate>:
100063b8:	b5f0      	push	{r4, r5, r6, r7, lr}
100063ba:	b085      	sub	sp, #20
100063bc:	9003      	str	r0, [sp, #12]
100063be:	000d      	movs	r5, r1
100063c0:	0016      	movs	r6, r2
100063c2:	001f      	movs	r7, r3
100063c4:	2028      	movs	r0, #40	; 0x28
100063c6:	f000 f893 	bl	100064f0 <pvPortMalloc>
100063ca:	1e04      	subs	r4, r0, #0
100063cc:	d00b      	beq.n	100063e6 <xTimerCreate+0x2e>
100063ce:	2324      	movs	r3, #36	; 0x24
100063d0:	2200      	movs	r2, #0
100063d2:	54c2      	strb	r2, [r0, r3]
100063d4:	9001      	str	r0, [sp, #4]
100063d6:	9b0a      	ldr	r3, [sp, #40]	; 0x28
100063d8:	9300      	str	r3, [sp, #0]
100063da:	003b      	movs	r3, r7
100063dc:	0032      	movs	r2, r6
100063de:	0029      	movs	r1, r5
100063e0:	9803      	ldr	r0, [sp, #12]
100063e2:	f7ff ffaf 	bl	10006344 <prvInitialiseNewTimer>
100063e6:	0020      	movs	r0, r4
100063e8:	b005      	add	sp, #20
100063ea:	bdf0      	pop	{r4, r5, r6, r7, pc}

100063ec <xTimerGenericCommand>:
100063ec:	b530      	push	{r4, r5, lr}
100063ee:	b085      	sub	sp, #20
100063f0:	0004      	movs	r4, r0
100063f2:	001d      	movs	r5, r3
100063f4:	4b12      	ldr	r3, [pc, #72]	; (10006440 <xTimerGenericCommand+0x54>)
100063f6:	68d8      	ldr	r0, [r3, #12]
100063f8:	2800      	cmp	r0, #0
100063fa:	d01f      	beq.n	1000643c <xTimerGenericCommand+0x50>
100063fc:	9101      	str	r1, [sp, #4]
100063fe:	9202      	str	r2, [sp, #8]
10006400:	9403      	str	r4, [sp, #12]
10006402:	2905      	cmp	r1, #5
10006404:	dc13      	bgt.n	1000642e <xTimerGenericCommand+0x42>
10006406:	f7ff fbbd 	bl	10005b84 <xTaskGetSchedulerState>
1000640a:	2802      	cmp	r0, #2
1000640c:	d007      	beq.n	1000641e <xTimerGenericCommand+0x32>
1000640e:	4b0c      	ldr	r3, [pc, #48]	; (10006440 <xTimerGenericCommand+0x54>)
10006410:	68d8      	ldr	r0, [r3, #12]
10006412:	2300      	movs	r3, #0
10006414:	2200      	movs	r2, #0
10006416:	a901      	add	r1, sp, #4
10006418:	f7fe f9a1 	bl	1000475e <xQueueGenericSend>
1000641c:	e00c      	b.n	10006438 <xTimerGenericCommand+0x4c>
1000641e:	4b08      	ldr	r3, [pc, #32]	; (10006440 <xTimerGenericCommand+0x54>)
10006420:	68d8      	ldr	r0, [r3, #12]
10006422:	2300      	movs	r3, #0
10006424:	9a08      	ldr	r2, [sp, #32]
10006426:	a901      	add	r1, sp, #4
10006428:	f7fe f999 	bl	1000475e <xQueueGenericSend>
1000642c:	e004      	b.n	10006438 <xTimerGenericCommand+0x4c>
1000642e:	2300      	movs	r3, #0
10006430:	002a      	movs	r2, r5
10006432:	a901      	add	r1, sp, #4
10006434:	f7fe fa0c 	bl	10004850 <xQueueGenericSendFromISR>
10006438:	b005      	add	sp, #20
1000643a:	bd30      	pop	{r4, r5, pc}
1000643c:	2000      	movs	r0, #0
1000643e:	e7fb      	b.n	10006438 <xTimerGenericCommand+0x4c>
10006440:	20000dc0 	.word	0x20000dc0

10006444 <xTimerGetTimerDaemonTaskHandle>:
10006444:	4b01      	ldr	r3, [pc, #4]	; (1000644c <xTimerGetTimerDaemonTaskHandle+0x8>)
10006446:	6b98      	ldr	r0, [r3, #56]	; 0x38
10006448:	4770      	bx	lr
1000644a:	46c0      	nop			; (mov r8, r8)
1000644c:	20000dc0 	.word	0x20000dc0

10006450 <xTimerGetPeriod>:
10006450:	6980      	ldr	r0, [r0, #24]
10006452:	4770      	bx	lr

10006454 <vTimerSetReloadMode>:
10006454:	b570      	push	{r4, r5, r6, lr}
10006456:	0004      	movs	r4, r0
10006458:	000d      	movs	r5, r1
1000645a:	f000 f8a1 	bl	100065a0 <vPortEnterCritical>
1000645e:	2d00      	cmp	r5, #0
10006460:	d007      	beq.n	10006472 <vTimerSetReloadMode+0x1e>
10006462:	2224      	movs	r2, #36	; 0x24
10006464:	5ca3      	ldrb	r3, [r4, r2]
10006466:	2104      	movs	r1, #4
10006468:	430b      	orrs	r3, r1
1000646a:	54a3      	strb	r3, [r4, r2]
1000646c:	f000 f8a4 	bl	100065b8 <vPortExitCritical>
10006470:	bd70      	pop	{r4, r5, r6, pc}
10006472:	2224      	movs	r2, #36	; 0x24
10006474:	5ca3      	ldrb	r3, [r4, r2]
10006476:	2104      	movs	r1, #4
10006478:	438b      	bics	r3, r1
1000647a:	54a3      	strb	r3, [r4, r2]
1000647c:	e7f6      	b.n	1000646c <vTimerSetReloadMode+0x18>

1000647e <xTimerGetReloadMode>:
1000647e:	b510      	push	{r4, lr}
10006480:	0004      	movs	r4, r0
10006482:	f000 f88d 	bl	100065a0 <vPortEnterCritical>
10006486:	2324      	movs	r3, #36	; 0x24
10006488:	5ce3      	ldrb	r3, [r4, r3]
1000648a:	075b      	lsls	r3, r3, #29
1000648c:	d404      	bmi.n	10006498 <xTimerGetReloadMode+0x1a>
1000648e:	2400      	movs	r4, #0
10006490:	f000 f892 	bl	100065b8 <vPortExitCritical>
10006494:	0020      	movs	r0, r4
10006496:	bd10      	pop	{r4, pc}
10006498:	2401      	movs	r4, #1
1000649a:	e7f9      	b.n	10006490 <xTimerGetReloadMode+0x12>

1000649c <uxTimerGetReloadMode>:
1000649c:	b510      	push	{r4, lr}
1000649e:	f7ff ffee 	bl	1000647e <xTimerGetReloadMode>
100064a2:	bd10      	pop	{r4, pc}

100064a4 <xTimerGetExpiryTime>:
100064a4:	6840      	ldr	r0, [r0, #4]
100064a6:	4770      	bx	lr

100064a8 <pcTimerGetName>:
100064a8:	6800      	ldr	r0, [r0, #0]
100064aa:	4770      	bx	lr

100064ac <xTimerIsTimerActive>:
100064ac:	b510      	push	{r4, lr}
100064ae:	0004      	movs	r4, r0
100064b0:	f000 f876 	bl	100065a0 <vPortEnterCritical>
100064b4:	2324      	movs	r3, #36	; 0x24
100064b6:	5ce3      	ldrb	r3, [r4, r3]
100064b8:	07db      	lsls	r3, r3, #31
100064ba:	d404      	bmi.n	100064c6 <xTimerIsTimerActive+0x1a>
100064bc:	2400      	movs	r4, #0
100064be:	f000 f87b 	bl	100065b8 <vPortExitCritical>
100064c2:	0020      	movs	r0, r4
100064c4:	bd10      	pop	{r4, pc}
100064c6:	2401      	movs	r4, #1
100064c8:	e7f9      	b.n	100064be <xTimerIsTimerActive+0x12>

100064ca <pvTimerGetTimerID>:
100064ca:	b510      	push	{r4, lr}
100064cc:	0004      	movs	r4, r0
100064ce:	f000 f867 	bl	100065a0 <vPortEnterCritical>
100064d2:	69e4      	ldr	r4, [r4, #28]
100064d4:	f000 f870 	bl	100065b8 <vPortExitCritical>
100064d8:	0020      	movs	r0, r4
100064da:	bd10      	pop	{r4, pc}

100064dc <vTimerSetTimerID>:
100064dc:	b570      	push	{r4, r5, r6, lr}
100064de:	0004      	movs	r4, r0
100064e0:	000d      	movs	r5, r1
100064e2:	f000 f85d 	bl	100065a0 <vPortEnterCritical>
100064e6:	61e5      	str	r5, [r4, #28]
100064e8:	f000 f866 	bl	100065b8 <vPortExitCritical>
100064ec:	bd70      	pop	{r4, r5, r6, pc}
100064ee:	46c0      	nop			; (mov r8, r8)

100064f0 <pvPortMalloc>:
100064f0:	b510      	push	{r4, lr}
100064f2:	0004      	movs	r4, r0
100064f4:	f7fe ffa0 	bl	10005438 <vTaskSuspendAll>
100064f8:	0020      	movs	r0, r4
100064fa:	f7fd fd57 	bl	10003fac <__wrap_malloc>
100064fe:	0004      	movs	r4, r0
10006500:	f7ff f854 	bl	100055ac <xTaskResumeAll>
10006504:	0020      	movs	r0, r4
10006506:	bd10      	pop	{r4, pc}

10006508 <vPortFree>:
10006508:	b510      	push	{r4, lr}
1000650a:	1e04      	subs	r4, r0, #0
1000650c:	d006      	beq.n	1000651c <vPortFree+0x14>
1000650e:	f7fe ff93 	bl	10005438 <vTaskSuspendAll>
10006512:	0020      	movs	r0, r4
10006514:	f7fd fd5c 	bl	10003fd0 <__wrap_free>
10006518:	f7ff f848 	bl	100055ac <xTaskResumeAll>
1000651c:	bd10      	pop	{r4, pc}
	...

10006520 <prvTaskExitError>:
10006520:	b082      	sub	sp, #8
10006522:	2300      	movs	r3, #0
10006524:	9301      	str	r3, [sp, #4]
10006526:	b672      	cpsid	i
10006528:	9b01      	ldr	r3, [sp, #4]
1000652a:	2b00      	cmp	r3, #0
1000652c:	d0fc      	beq.n	10006528 <prvTaskExitError+0x8>
1000652e:	b002      	add	sp, #8
10006530:	4770      	bx	lr

10006532 <vPortStartFirstTask>:
10006532:	4a0b      	ldr	r2, [pc, #44]	; (10006560 <pxCurrentTCBConst2>)
10006534:	6813      	ldr	r3, [r2, #0]
10006536:	6818      	ldr	r0, [r3, #0]
10006538:	3020      	adds	r0, #32
1000653a:	f380 8809 	msr	PSP, r0
1000653e:	2002      	movs	r0, #2
10006540:	f380 8814 	msr	CONTROL, r0
10006544:	f3bf 8f6f 	isb	sy
10006548:	bc3f      	pop	{r0, r1, r2, r3, r4, r5}
1000654a:	46ae      	mov	lr, r5
1000654c:	bc08      	pop	{r3}
1000654e:	bc04      	pop	{r2}
10006550:	b662      	cpsie	i
10006552:	4718      	bx	r3
10006554:	46c0      	nop			; (mov r8, r8)
10006556:	46c0      	nop			; (mov r8, r8)
10006558:	46c0      	nop			; (mov r8, r8)
1000655a:	46c0      	nop			; (mov r8, r8)
1000655c:	46c0      	nop			; (mov r8, r8)
1000655e:	46c0      	nop			; (mov r8, r8)

10006560 <pxCurrentTCBConst2>:
10006560:	20000d94 	.word	0x20000d94

10006564 <pxPortInitialiseStack>:
10006564:	b510      	push	{r4, lr}
10006566:	1f03      	subs	r3, r0, #4
10006568:	2480      	movs	r4, #128	; 0x80
1000656a:	0464      	lsls	r4, r4, #17
1000656c:	601c      	str	r4, [r3, #0]
1000656e:	3b04      	subs	r3, #4
10006570:	6019      	str	r1, [r3, #0]
10006572:	3b04      	subs	r3, #4
10006574:	4902      	ldr	r1, [pc, #8]	; (10006580 <pxPortInitialiseStack+0x1c>)
10006576:	6019      	str	r1, [r3, #0]
10006578:	3b14      	subs	r3, #20
1000657a:	601a      	str	r2, [r3, #0]
1000657c:	3840      	subs	r0, #64	; 0x40
1000657e:	bd10      	pop	{r4, pc}
10006580:	10006521 	.word	0x10006521

10006584 <isr_svcall>:
10006584:	4770      	bx	lr

10006586 <vPortEndScheduler>:
10006586:	4770      	bx	lr

10006588 <vPortYield>:
10006588:	4b04      	ldr	r3, [pc, #16]	; (1000659c <vPortYield+0x14>)
1000658a:	2280      	movs	r2, #128	; 0x80
1000658c:	0552      	lsls	r2, r2, #21
1000658e:	601a      	str	r2, [r3, #0]
10006590:	f3bf 8f4f 	dsb	sy
10006594:	f3bf 8f6f 	isb	sy
10006598:	4770      	bx	lr
1000659a:	46c0      	nop			; (mov r8, r8)
1000659c:	e000ed04 	.word	0xe000ed04

100065a0 <vPortEnterCritical>:
100065a0:	b672      	cpsid	i
100065a2:	4a04      	ldr	r2, [pc, #16]	; (100065b4 <vPortEnterCritical+0x14>)
100065a4:	6813      	ldr	r3, [r2, #0]
100065a6:	3301      	adds	r3, #1
100065a8:	6013      	str	r3, [r2, #0]
100065aa:	f3bf 8f4f 	dsb	sy
100065ae:	f3bf 8f6f 	isb	sy
100065b2:	4770      	bx	lr
100065b4:	200002ec 	.word	0x200002ec

100065b8 <vPortExitCritical>:
100065b8:	4a03      	ldr	r2, [pc, #12]	; (100065c8 <vPortExitCritical+0x10>)
100065ba:	6813      	ldr	r3, [r2, #0]
100065bc:	3b01      	subs	r3, #1
100065be:	6013      	str	r3, [r2, #0]
100065c0:	2b00      	cmp	r3, #0
100065c2:	d100      	bne.n	100065c6 <vPortExitCritical+0xe>
100065c4:	b662      	cpsie	i
100065c6:	4770      	bx	lr
100065c8:	200002ec 	.word	0x200002ec

100065cc <ulSetInterruptMaskFromISR>:
100065cc:	f3ef 8010 	mrs	r0, PRIMASK
100065d0:	b672      	cpsid	i
100065d2:	4770      	bx	lr

100065d4 <vClearInterruptMaskFromISR>:
100065d4:	f380 8810 	msr	PRIMASK, r0
100065d8:	4770      	bx	lr

100065da <isr_pendsv>:
100065da:	f3ef 8009 	mrs	r0, PSP
100065de:	4b10      	ldr	r3, [pc, #64]	; (10006620 <pxCurrentTCBConst>)
100065e0:	681a      	ldr	r2, [r3, #0]
100065e2:	3820      	subs	r0, #32
100065e4:	6010      	str	r0, [r2, #0]
100065e6:	c0f0      	stmia	r0!, {r4, r5, r6, r7}
100065e8:	4644      	mov	r4, r8
100065ea:	464d      	mov	r5, r9
100065ec:	4656      	mov	r6, sl
100065ee:	465f      	mov	r7, fp
100065f0:	c0f0      	stmia	r0!, {r4, r5, r6, r7}
100065f2:	b508      	push	{r3, lr}
100065f4:	b672      	cpsid	i
100065f6:	f7ff f8bb 	bl	10005770 <vTaskSwitchContext>
100065fa:	b662      	cpsie	i
100065fc:	bc0c      	pop	{r2, r3}
100065fe:	6811      	ldr	r1, [r2, #0]
10006600:	6808      	ldr	r0, [r1, #0]
10006602:	3010      	adds	r0, #16
10006604:	c8f0      	ldmia	r0!, {r4, r5, r6, r7}
10006606:	46a0      	mov	r8, r4
10006608:	46a9      	mov	r9, r5
1000660a:	46b2      	mov	sl, r6
1000660c:	46bb      	mov	fp, r7
1000660e:	f380 8809 	msr	PSP, r0
10006612:	3820      	subs	r0, #32
10006614:	c8f0      	ldmia	r0!, {r4, r5, r6, r7}
10006616:	4718      	bx	r3
10006618:	46c0      	nop			; (mov r8, r8)
1000661a:	46c0      	nop			; (mov r8, r8)
1000661c:	46c0      	nop			; (mov r8, r8)
1000661e:	46c0      	nop			; (mov r8, r8)

10006620 <pxCurrentTCBConst>:
10006620:	20000d94 	.word	0x20000d94

10006624 <isr_systick>:
10006624:	b510      	push	{r4, lr}
10006626:	f7ff ffd1 	bl	100065cc <ulSetInterruptMaskFromISR>
1000662a:	0004      	movs	r4, r0
1000662c:	f7fe ff28 	bl	10005480 <xTaskIncrementTick>
10006630:	2800      	cmp	r0, #0
10006632:	d003      	beq.n	1000663c <isr_systick+0x18>
10006634:	4b03      	ldr	r3, [pc, #12]	; (10006644 <isr_systick+0x20>)
10006636:	2280      	movs	r2, #128	; 0x80
10006638:	0552      	lsls	r2, r2, #21
1000663a:	601a      	str	r2, [r3, #0]
1000663c:	0020      	movs	r0, r4
1000663e:	f7ff ffc9 	bl	100065d4 <vClearInterruptMaskFromISR>
10006642:	bd10      	pop	{r4, pc}
10006644:	e000ed04 	.word	0xe000ed04

10006648 <vPortSetupTimerInterrupt>:
10006648:	4b05      	ldr	r3, [pc, #20]	; (10006660 <vPortSetupTimerInterrupt+0x18>)
1000664a:	2200      	movs	r2, #0
1000664c:	601a      	str	r2, [r3, #0]
1000664e:	4905      	ldr	r1, [pc, #20]	; (10006664 <vPortSetupTimerInterrupt+0x1c>)
10006650:	600a      	str	r2, [r1, #0]
10006652:	4a05      	ldr	r2, [pc, #20]	; (10006668 <vPortSetupTimerInterrupt+0x20>)
10006654:	4905      	ldr	r1, [pc, #20]	; (1000666c <vPortSetupTimerInterrupt+0x24>)
10006656:	6011      	str	r1, [r2, #0]
10006658:	2207      	movs	r2, #7
1000665a:	601a      	str	r2, [r3, #0]
1000665c:	4770      	bx	lr
1000665e:	46c0      	nop			; (mov r8, r8)
10006660:	e000e010 	.word	0xe000e010
10006664:	e000e018 	.word	0xe000e018
10006668:	e000e014 	.word	0xe000e014
1000666c:	00144b4f 	.word	0x00144b4f

10006670 <xPortStartScheduler>:
10006670:	b510      	push	{r4, lr}
10006672:	4b0c      	ldr	r3, [pc, #48]	; (100066a4 <xPortStartScheduler+0x34>)
10006674:	6819      	ldr	r1, [r3, #0]
10006676:	22ff      	movs	r2, #255	; 0xff
10006678:	0412      	lsls	r2, r2, #16
1000667a:	430a      	orrs	r2, r1
1000667c:	601a      	str	r2, [r3, #0]
1000667e:	6819      	ldr	r1, [r3, #0]
10006680:	22ff      	movs	r2, #255	; 0xff
10006682:	0612      	lsls	r2, r2, #24
10006684:	430a      	orrs	r2, r1
10006686:	601a      	str	r2, [r3, #0]
10006688:	f7ff ffde 	bl	10006648 <vPortSetupTimerInterrupt>
1000668c:	4b06      	ldr	r3, [pc, #24]	; (100066a8 <xPortStartScheduler+0x38>)
1000668e:	2200      	movs	r2, #0
10006690:	601a      	str	r2, [r3, #0]
10006692:	f7ff ff4e 	bl	10006532 <vPortStartFirstTask>
10006696:	f7ff f86b 	bl	10005770 <vTaskSwitchContext>
1000669a:	f7ff ff41 	bl	10006520 <prvTaskExitError>
1000669e:	2000      	movs	r0, #0
100066a0:	bd10      	pop	{r4, pc}
100066a2:	46c0      	nop			; (mov r8, r8)
100066a4:	e000ed20 	.word	0xe000ed20
100066a8:	200002ec 	.word	0x200002ec

100066ac <vListInitialise>:
100066ac:	0003      	movs	r3, r0
100066ae:	3308      	adds	r3, #8
100066b0:	6043      	str	r3, [r0, #4]
100066b2:	2201      	movs	r2, #1
100066b4:	4252      	negs	r2, r2
100066b6:	6082      	str	r2, [r0, #8]
100066b8:	60c3      	str	r3, [r0, #12]
100066ba:	6103      	str	r3, [r0, #16]
100066bc:	2300      	movs	r3, #0
100066be:	6003      	str	r3, [r0, #0]
100066c0:	4770      	bx	lr

100066c2 <vListInitialiseItem>:
100066c2:	2300      	movs	r3, #0
100066c4:	6103      	str	r3, [r0, #16]
100066c6:	4770      	bx	lr

100066c8 <vListInsertEnd>:
100066c8:	6843      	ldr	r3, [r0, #4]
100066ca:	604b      	str	r3, [r1, #4]
100066cc:	689a      	ldr	r2, [r3, #8]
100066ce:	608a      	str	r2, [r1, #8]
100066d0:	6051      	str	r1, [r2, #4]
100066d2:	6099      	str	r1, [r3, #8]
100066d4:	6108      	str	r0, [r1, #16]
100066d6:	6803      	ldr	r3, [r0, #0]
100066d8:	3301      	adds	r3, #1
100066da:	6003      	str	r3, [r0, #0]
100066dc:	4770      	bx	lr

100066de <vListInsert>:
100066de:	b530      	push	{r4, r5, lr}
100066e0:	680c      	ldr	r4, [r1, #0]
100066e2:	1c63      	adds	r3, r4, #1
100066e4:	d010      	beq.n	10006708 <vListInsert+0x2a>
100066e6:	0003      	movs	r3, r0
100066e8:	3308      	adds	r3, #8
100066ea:	001a      	movs	r2, r3
100066ec:	685b      	ldr	r3, [r3, #4]
100066ee:	681d      	ldr	r5, [r3, #0]
100066f0:	42a5      	cmp	r5, r4
100066f2:	d9fa      	bls.n	100066ea <vListInsert+0xc>
100066f4:	6853      	ldr	r3, [r2, #4]
100066f6:	604b      	str	r3, [r1, #4]
100066f8:	6099      	str	r1, [r3, #8]
100066fa:	608a      	str	r2, [r1, #8]
100066fc:	6051      	str	r1, [r2, #4]
100066fe:	6108      	str	r0, [r1, #16]
10006700:	6803      	ldr	r3, [r0, #0]
10006702:	3301      	adds	r3, #1
10006704:	6003      	str	r3, [r0, #0]
10006706:	bd30      	pop	{r4, r5, pc}
10006708:	6902      	ldr	r2, [r0, #16]
1000670a:	e7f3      	b.n	100066f4 <vListInsert+0x16>

1000670c <uxListRemove>:
1000670c:	6903      	ldr	r3, [r0, #16]
1000670e:	6841      	ldr	r1, [r0, #4]
10006710:	6882      	ldr	r2, [r0, #8]
10006712:	608a      	str	r2, [r1, #8]
10006714:	6841      	ldr	r1, [r0, #4]
10006716:	6051      	str	r1, [r2, #4]
10006718:	685a      	ldr	r2, [r3, #4]
1000671a:	4282      	cmp	r2, r0
1000671c:	d006      	beq.n	1000672c <uxListRemove+0x20>
1000671e:	2200      	movs	r2, #0
10006720:	6102      	str	r2, [r0, #16]
10006722:	681a      	ldr	r2, [r3, #0]
10006724:	3a01      	subs	r2, #1
10006726:	601a      	str	r2, [r3, #0]
10006728:	6818      	ldr	r0, [r3, #0]
1000672a:	4770      	bx	lr
1000672c:	6882      	ldr	r2, [r0, #8]
1000672e:	605a      	str	r2, [r3, #4]
10006730:	e7f5      	b.n	1000671e <uxListRemove+0x12>
	...

10006734 <malloc>:
10006734:	b510      	push	{r4, lr}
10006736:	4b03      	ldr	r3, [pc, #12]	; (10006744 <malloc+0x10>)
10006738:	0001      	movs	r1, r0
1000673a:	6818      	ldr	r0, [r3, #0]
1000673c:	f000 f80e 	bl	1000675c <_malloc_r>
10006740:	bd10      	pop	{r4, pc}
10006742:	46c0      	nop			; (mov r8, r8)
10006744:	200002f0 	.word	0x200002f0

10006748 <free>:
10006748:	b510      	push	{r4, lr}
1000674a:	4b03      	ldr	r3, [pc, #12]	; (10006758 <free+0x10>)
1000674c:	0001      	movs	r1, r0
1000674e:	6818      	ldr	r0, [r3, #0]
10006750:	f000 fb64 	bl	10006e1c <_free_r>
10006754:	bd10      	pop	{r4, pc}
10006756:	46c0      	nop			; (mov r8, r8)
10006758:	200002f0 	.word	0x200002f0

1000675c <_malloc_r>:
1000675c:	b5f0      	push	{r4, r5, r6, r7, lr}
1000675e:	464e      	mov	r6, r9
10006760:	4645      	mov	r5, r8
10006762:	46de      	mov	lr, fp
10006764:	4657      	mov	r7, sl
10006766:	b5e0      	push	{r5, r6, r7, lr}
10006768:	000d      	movs	r5, r1
1000676a:	350b      	adds	r5, #11
1000676c:	0006      	movs	r6, r0
1000676e:	b083      	sub	sp, #12
10006770:	2d16      	cmp	r5, #22
10006772:	d822      	bhi.n	100067ba <_malloc_r+0x5e>
10006774:	2910      	cmp	r1, #16
10006776:	d900      	bls.n	1000677a <_malloc_r+0x1e>
10006778:	e0b2      	b.n	100068e0 <_malloc_r+0x184>
1000677a:	f000 fab1 	bl	10006ce0 <__malloc_lock>
1000677e:	2510      	movs	r5, #16
10006780:	2318      	movs	r3, #24
10006782:	2002      	movs	r0, #2
10006784:	4fcc      	ldr	r7, [pc, #816]	; (10006ab8 <_malloc_r+0x35c>)
10006786:	18fb      	adds	r3, r7, r3
10006788:	001a      	movs	r2, r3
1000678a:	685c      	ldr	r4, [r3, #4]
1000678c:	3a08      	subs	r2, #8
1000678e:	4294      	cmp	r4, r2
10006790:	d100      	bne.n	10006794 <_malloc_r+0x38>
10006792:	e0b5      	b.n	10006900 <_malloc_r+0x1a4>
10006794:	2303      	movs	r3, #3
10006796:	6862      	ldr	r2, [r4, #4]
10006798:	439a      	bics	r2, r3
1000679a:	0013      	movs	r3, r2
1000679c:	68e2      	ldr	r2, [r4, #12]
1000679e:	68a1      	ldr	r1, [r4, #8]
100067a0:	60ca      	str	r2, [r1, #12]
100067a2:	6091      	str	r1, [r2, #8]
100067a4:	2201      	movs	r2, #1
100067a6:	18e3      	adds	r3, r4, r3
100067a8:	6859      	ldr	r1, [r3, #4]
100067aa:	0030      	movs	r0, r6
100067ac:	430a      	orrs	r2, r1
100067ae:	605a      	str	r2, [r3, #4]
100067b0:	f000 fa9e 	bl	10006cf0 <__malloc_unlock>
100067b4:	0020      	movs	r0, r4
100067b6:	3008      	adds	r0, #8
100067b8:	e095      	b.n	100068e6 <_malloc_r+0x18a>
100067ba:	2307      	movs	r3, #7
100067bc:	439d      	bics	r5, r3
100067be:	d500      	bpl.n	100067c2 <_malloc_r+0x66>
100067c0:	e08e      	b.n	100068e0 <_malloc_r+0x184>
100067c2:	42a9      	cmp	r1, r5
100067c4:	d900      	bls.n	100067c8 <_malloc_r+0x6c>
100067c6:	e08b      	b.n	100068e0 <_malloc_r+0x184>
100067c8:	f000 fa8a 	bl	10006ce0 <__malloc_lock>
100067cc:	23fc      	movs	r3, #252	; 0xfc
100067ce:	005b      	lsls	r3, r3, #1
100067d0:	429d      	cmp	r5, r3
100067d2:	d200      	bcs.n	100067d6 <_malloc_r+0x7a>
100067d4:	e1a7      	b.n	10006b26 <_malloc_r+0x3ca>
100067d6:	0a68      	lsrs	r0, r5, #9
100067d8:	d100      	bne.n	100067dc <_malloc_r+0x80>
100067da:	e08b      	b.n	100068f4 <_malloc_r+0x198>
100067dc:	2804      	cmp	r0, #4
100067de:	d900      	bls.n	100067e2 <_malloc_r+0x86>
100067e0:	e17a      	b.n	10006ad8 <_malloc_r+0x37c>
100067e2:	2338      	movs	r3, #56	; 0x38
100067e4:	4698      	mov	r8, r3
100067e6:	09a8      	lsrs	r0, r5, #6
100067e8:	4480      	add	r8, r0
100067ea:	3039      	adds	r0, #57	; 0x39
100067ec:	00c1      	lsls	r1, r0, #3
100067ee:	4fb2      	ldr	r7, [pc, #712]	; (10006ab8 <_malloc_r+0x35c>)
100067f0:	1879      	adds	r1, r7, r1
100067f2:	684c      	ldr	r4, [r1, #4]
100067f4:	3908      	subs	r1, #8
100067f6:	42a1      	cmp	r1, r4
100067f8:	d00e      	beq.n	10006818 <_malloc_r+0xbc>
100067fa:	2303      	movs	r3, #3
100067fc:	469c      	mov	ip, r3
100067fe:	e004      	b.n	1000680a <_malloc_r+0xae>
10006800:	2a00      	cmp	r2, #0
10006802:	dacb      	bge.n	1000679c <_malloc_r+0x40>
10006804:	68e4      	ldr	r4, [r4, #12]
10006806:	42a1      	cmp	r1, r4
10006808:	d006      	beq.n	10006818 <_malloc_r+0xbc>
1000680a:	4662      	mov	r2, ip
1000680c:	6863      	ldr	r3, [r4, #4]
1000680e:	4393      	bics	r3, r2
10006810:	1b5a      	subs	r2, r3, r5
10006812:	2a0f      	cmp	r2, #15
10006814:	ddf4      	ble.n	10006800 <_malloc_r+0xa4>
10006816:	4640      	mov	r0, r8
10006818:	003a      	movs	r2, r7
1000681a:	693c      	ldr	r4, [r7, #16]
1000681c:	3208      	adds	r2, #8
1000681e:	4294      	cmp	r4, r2
10006820:	d100      	bne.n	10006824 <_malloc_r+0xc8>
10006822:	e078      	b.n	10006916 <_malloc_r+0x1ba>
10006824:	2303      	movs	r3, #3
10006826:	6861      	ldr	r1, [r4, #4]
10006828:	4399      	bics	r1, r3
1000682a:	4689      	mov	r9, r1
1000682c:	000b      	movs	r3, r1
1000682e:	1b49      	subs	r1, r1, r5
10006830:	290f      	cmp	r1, #15
10006832:	dd00      	ble.n	10006836 <_malloc_r+0xda>
10006834:	e17b      	b.n	10006b2e <_malloc_r+0x3d2>
10006836:	617a      	str	r2, [r7, #20]
10006838:	613a      	str	r2, [r7, #16]
1000683a:	2900      	cmp	r1, #0
1000683c:	dab2      	bge.n	100067a4 <_malloc_r+0x48>
1000683e:	2280      	movs	r2, #128	; 0x80
10006840:	0092      	lsls	r2, r2, #2
10006842:	4591      	cmp	r9, r2
10006844:	d300      	bcc.n	10006848 <_malloc_r+0xec>
10006846:	e10f      	b.n	10006a68 <_malloc_r+0x30c>
10006848:	0959      	lsrs	r1, r3, #5
1000684a:	08da      	lsrs	r2, r3, #3
1000684c:	2301      	movs	r3, #1
1000684e:	408b      	lsls	r3, r1
10006850:	00d2      	lsls	r2, r2, #3
10006852:	6879      	ldr	r1, [r7, #4]
10006854:	19d2      	adds	r2, r2, r7
10006856:	430b      	orrs	r3, r1
10006858:	6891      	ldr	r1, [r2, #8]
1000685a:	607b      	str	r3, [r7, #4]
1000685c:	60e2      	str	r2, [r4, #12]
1000685e:	60a1      	str	r1, [r4, #8]
10006860:	6094      	str	r4, [r2, #8]
10006862:	60cc      	str	r4, [r1, #12]
10006864:	2101      	movs	r1, #1
10006866:	1082      	asrs	r2, r0, #2
10006868:	4091      	lsls	r1, r2
1000686a:	4299      	cmp	r1, r3
1000686c:	d859      	bhi.n	10006922 <_malloc_r+0x1c6>
1000686e:	420b      	tst	r3, r1
10006870:	d105      	bne.n	1000687e <_malloc_r+0x122>
10006872:	2203      	movs	r2, #3
10006874:	4390      	bics	r0, r2
10006876:	0049      	lsls	r1, r1, #1
10006878:	3004      	adds	r0, #4
1000687a:	420b      	tst	r3, r1
1000687c:	d0fb      	beq.n	10006876 <_malloc_r+0x11a>
1000687e:	2303      	movs	r3, #3
10006880:	4698      	mov	r8, r3
10006882:	00c3      	lsls	r3, r0, #3
10006884:	4699      	mov	r9, r3
10006886:	44b9      	add	r9, r7
10006888:	46cc      	mov	ip, r9
1000688a:	4682      	mov	sl, r0
1000688c:	4663      	mov	r3, ip
1000688e:	68dc      	ldr	r4, [r3, #12]
10006890:	45a4      	cmp	ip, r4
10006892:	d107      	bne.n	100068a4 <_malloc_r+0x148>
10006894:	e12c      	b.n	10006af0 <_malloc_r+0x394>
10006896:	2a00      	cmp	r2, #0
10006898:	db00      	blt.n	1000689c <_malloc_r+0x140>
1000689a:	e135      	b.n	10006b08 <_malloc_r+0x3ac>
1000689c:	68e4      	ldr	r4, [r4, #12]
1000689e:	45a4      	cmp	ip, r4
100068a0:	d100      	bne.n	100068a4 <_malloc_r+0x148>
100068a2:	e125      	b.n	10006af0 <_malloc_r+0x394>
100068a4:	4642      	mov	r2, r8
100068a6:	6863      	ldr	r3, [r4, #4]
100068a8:	4393      	bics	r3, r2
100068aa:	1b5a      	subs	r2, r3, r5
100068ac:	2a0f      	cmp	r2, #15
100068ae:	ddf2      	ble.n	10006896 <_malloc_r+0x13a>
100068b0:	2001      	movs	r0, #1
100068b2:	4680      	mov	r8, r0
100068b4:	1961      	adds	r1, r4, r5
100068b6:	4305      	orrs	r5, r0
100068b8:	6065      	str	r5, [r4, #4]
100068ba:	68a0      	ldr	r0, [r4, #8]
100068bc:	68e5      	ldr	r5, [r4, #12]
100068be:	3708      	adds	r7, #8
100068c0:	60c5      	str	r5, [r0, #12]
100068c2:	60a8      	str	r0, [r5, #8]
100068c4:	4640      	mov	r0, r8
100068c6:	4310      	orrs	r0, r2
100068c8:	60f9      	str	r1, [r7, #12]
100068ca:	60b9      	str	r1, [r7, #8]
100068cc:	6048      	str	r0, [r1, #4]
100068ce:	60cf      	str	r7, [r1, #12]
100068d0:	0030      	movs	r0, r6
100068d2:	608f      	str	r7, [r1, #8]
100068d4:	50e2      	str	r2, [r4, r3]
100068d6:	f000 fa0b 	bl	10006cf0 <__malloc_unlock>
100068da:	0020      	movs	r0, r4
100068dc:	3008      	adds	r0, #8
100068de:	e002      	b.n	100068e6 <_malloc_r+0x18a>
100068e0:	230c      	movs	r3, #12
100068e2:	2000      	movs	r0, #0
100068e4:	6033      	str	r3, [r6, #0]
100068e6:	b003      	add	sp, #12
100068e8:	bcf0      	pop	{r4, r5, r6, r7}
100068ea:	46bb      	mov	fp, r7
100068ec:	46b2      	mov	sl, r6
100068ee:	46a9      	mov	r9, r5
100068f0:	46a0      	mov	r8, r4
100068f2:	bdf0      	pop	{r4, r5, r6, r7, pc}
100068f4:	2180      	movs	r1, #128	; 0x80
100068f6:	233f      	movs	r3, #63	; 0x3f
100068f8:	2040      	movs	r0, #64	; 0x40
100068fa:	4698      	mov	r8, r3
100068fc:	0089      	lsls	r1, r1, #2
100068fe:	e776      	b.n	100067ee <_malloc_r+0x92>
10006900:	68dc      	ldr	r4, [r3, #12]
10006902:	3002      	adds	r0, #2
10006904:	42a3      	cmp	r3, r4
10006906:	d000      	beq.n	1000690a <_malloc_r+0x1ae>
10006908:	e744      	b.n	10006794 <_malloc_r+0x38>
1000690a:	003a      	movs	r2, r7
1000690c:	693c      	ldr	r4, [r7, #16]
1000690e:	3208      	adds	r2, #8
10006910:	4294      	cmp	r4, r2
10006912:	d000      	beq.n	10006916 <_malloc_r+0x1ba>
10006914:	e786      	b.n	10006824 <_malloc_r+0xc8>
10006916:	2101      	movs	r1, #1
10006918:	687b      	ldr	r3, [r7, #4]
1000691a:	1082      	asrs	r2, r0, #2
1000691c:	4091      	lsls	r1, r2
1000691e:	4299      	cmp	r1, r3
10006920:	d9a5      	bls.n	1000686e <_malloc_r+0x112>
10006922:	2303      	movs	r3, #3
10006924:	68bc      	ldr	r4, [r7, #8]
10006926:	6862      	ldr	r2, [r4, #4]
10006928:	439a      	bics	r2, r3
1000692a:	4691      	mov	r9, r2
1000692c:	4295      	cmp	r5, r2
1000692e:	d803      	bhi.n	10006938 <_malloc_r+0x1dc>
10006930:	1b53      	subs	r3, r2, r5
10006932:	2b0f      	cmp	r3, #15
10006934:	dd00      	ble.n	10006938 <_malloc_r+0x1dc>
10006936:	e089      	b.n	10006a4c <_malloc_r+0x2f0>
10006938:	0023      	movs	r3, r4
1000693a:	444b      	add	r3, r9
1000693c:	4a5f      	ldr	r2, [pc, #380]	; (10006abc <_malloc_r+0x360>)
1000693e:	9301      	str	r3, [sp, #4]
10006940:	4b5f      	ldr	r3, [pc, #380]	; (10006ac0 <_malloc_r+0x364>)
10006942:	4693      	mov	fp, r2
10006944:	681b      	ldr	r3, [r3, #0]
10006946:	6812      	ldr	r2, [r2, #0]
10006948:	18eb      	adds	r3, r5, r3
1000694a:	3201      	adds	r2, #1
1000694c:	d100      	bne.n	10006950 <_malloc_r+0x1f4>
1000694e:	e13d      	b.n	10006bcc <_malloc_r+0x470>
10006950:	4a5c      	ldr	r2, [pc, #368]	; (10006ac4 <_malloc_r+0x368>)
10006952:	4694      	mov	ip, r2
10006954:	4463      	add	r3, ip
10006956:	0b1b      	lsrs	r3, r3, #12
10006958:	031b      	lsls	r3, r3, #12
1000695a:	9300      	str	r3, [sp, #0]
1000695c:	0030      	movs	r0, r6
1000695e:	9900      	ldr	r1, [sp, #0]
10006960:	f000 f9ce 	bl	10006d00 <_sbrk_r>
10006964:	0003      	movs	r3, r0
10006966:	4680      	mov	r8, r0
10006968:	3301      	adds	r3, #1
1000696a:	d100      	bne.n	1000696e <_malloc_r+0x212>
1000696c:	e0fa      	b.n	10006b64 <_malloc_r+0x408>
1000696e:	9b01      	ldr	r3, [sp, #4]
10006970:	4283      	cmp	r3, r0
10006972:	d900      	bls.n	10006976 <_malloc_r+0x21a>
10006974:	e0f4      	b.n	10006b60 <_malloc_r+0x404>
10006976:	4b54      	ldr	r3, [pc, #336]	; (10006ac8 <_malloc_r+0x36c>)
10006978:	9800      	ldr	r0, [sp, #0]
1000697a:	001a      	movs	r2, r3
1000697c:	469a      	mov	sl, r3
1000697e:	6812      	ldr	r2, [r2, #0]
10006980:	0003      	movs	r3, r0
10006982:	4694      	mov	ip, r2
10006984:	4651      	mov	r1, sl
10006986:	4463      	add	r3, ip
10006988:	600b      	str	r3, [r1, #0]
1000698a:	9901      	ldr	r1, [sp, #4]
1000698c:	001a      	movs	r2, r3
1000698e:	4541      	cmp	r1, r8
10006990:	d100      	bne.n	10006994 <_malloc_r+0x238>
10006992:	e151      	b.n	10006c38 <_malloc_r+0x4dc>
10006994:	465b      	mov	r3, fp
10006996:	681b      	ldr	r3, [r3, #0]
10006998:	3301      	adds	r3, #1
1000699a:	d100      	bne.n	1000699e <_malloc_r+0x242>
1000699c:	e156      	b.n	10006c4c <_malloc_r+0x4f0>
1000699e:	4643      	mov	r3, r8
100069a0:	9901      	ldr	r1, [sp, #4]
100069a2:	1a5b      	subs	r3, r3, r1
100069a4:	189a      	adds	r2, r3, r2
100069a6:	4653      	mov	r3, sl
100069a8:	601a      	str	r2, [r3, #0]
100069aa:	2307      	movs	r3, #7
100069ac:	4642      	mov	r2, r8
100069ae:	4641      	mov	r1, r8
100069b0:	401a      	ands	r2, r3
100069b2:	9201      	str	r2, [sp, #4]
100069b4:	4219      	tst	r1, r3
100069b6:	d100      	bne.n	100069ba <_malloc_r+0x25e>
100069b8:	e112      	b.n	10006be0 <_malloc_r+0x484>
100069ba:	2308      	movs	r3, #8
100069bc:	4698      	mov	r8, r3
100069be:	1a88      	subs	r0, r1, r2
100069c0:	4b42      	ldr	r3, [pc, #264]	; (10006acc <_malloc_r+0x370>)
100069c2:	9900      	ldr	r1, [sp, #0]
100069c4:	4480      	add	r8, r0
100069c6:	4441      	add	r1, r8
100069c8:	1a9b      	subs	r3, r3, r2
100069ca:	1a5b      	subs	r3, r3, r1
100069cc:	051b      	lsls	r3, r3, #20
100069ce:	0d1b      	lsrs	r3, r3, #20
100069d0:	9100      	str	r1, [sp, #0]
100069d2:	0030      	movs	r0, r6
100069d4:	0019      	movs	r1, r3
100069d6:	469b      	mov	fp, r3
100069d8:	f000 f992 	bl	10006d00 <_sbrk_r>
100069dc:	1c43      	adds	r3, r0, #1
100069de:	d100      	bne.n	100069e2 <_malloc_r+0x286>
100069e0:	e150      	b.n	10006c84 <_malloc_r+0x528>
100069e2:	4643      	mov	r3, r8
100069e4:	1ac0      	subs	r0, r0, r3
100069e6:	0003      	movs	r3, r0
100069e8:	445b      	add	r3, fp
100069ea:	9300      	str	r3, [sp, #0]
100069ec:	4653      	mov	r3, sl
100069ee:	4652      	mov	r2, sl
100069f0:	681b      	ldr	r3, [r3, #0]
100069f2:	2101      	movs	r1, #1
100069f4:	445b      	add	r3, fp
100069f6:	6013      	str	r3, [r2, #0]
100069f8:	4642      	mov	r2, r8
100069fa:	4640      	mov	r0, r8
100069fc:	60ba      	str	r2, [r7, #8]
100069fe:	9a00      	ldr	r2, [sp, #0]
10006a00:	430a      	orrs	r2, r1
10006a02:	6042      	str	r2, [r0, #4]
10006a04:	42bc      	cmp	r4, r7
10006a06:	d100      	bne.n	10006a0a <_malloc_r+0x2ae>
10006a08:	e124      	b.n	10006c54 <_malloc_r+0x4f8>
10006a0a:	464a      	mov	r2, r9
10006a0c:	2a0f      	cmp	r2, #15
10006a0e:	d800      	bhi.n	10006a12 <_malloc_r+0x2b6>
10006a10:	e122      	b.n	10006c58 <_malloc_r+0x4fc>
10006a12:	2007      	movs	r0, #7
10006a14:	3a0c      	subs	r2, #12
10006a16:	4382      	bics	r2, r0
10006a18:	6860      	ldr	r0, [r4, #4]
10006a1a:	4001      	ands	r1, r0
10006a1c:	2005      	movs	r0, #5
10006a1e:	4311      	orrs	r1, r2
10006a20:	6061      	str	r1, [r4, #4]
10006a22:	18a1      	adds	r1, r4, r2
10006a24:	6048      	str	r0, [r1, #4]
10006a26:	6088      	str	r0, [r1, #8]
10006a28:	2a0f      	cmp	r2, #15
10006a2a:	d900      	bls.n	10006a2e <_malloc_r+0x2d2>
10006a2c:	e135      	b.n	10006c9a <_malloc_r+0x53e>
10006a2e:	4642      	mov	r2, r8
10006a30:	4644      	mov	r4, r8
10006a32:	6852      	ldr	r2, [r2, #4]
10006a34:	4926      	ldr	r1, [pc, #152]	; (10006ad0 <_malloc_r+0x374>)
10006a36:	6808      	ldr	r0, [r1, #0]
10006a38:	4298      	cmp	r0, r3
10006a3a:	d200      	bcs.n	10006a3e <_malloc_r+0x2e2>
10006a3c:	600b      	str	r3, [r1, #0]
10006a3e:	4925      	ldr	r1, [pc, #148]	; (10006ad4 <_malloc_r+0x378>)
10006a40:	6808      	ldr	r0, [r1, #0]
10006a42:	4298      	cmp	r0, r3
10006a44:	d300      	bcc.n	10006a48 <_malloc_r+0x2ec>
10006a46:	e08f      	b.n	10006b68 <_malloc_r+0x40c>
10006a48:	600b      	str	r3, [r1, #0]
10006a4a:	e08d      	b.n	10006b68 <_malloc_r+0x40c>
10006a4c:	2201      	movs	r2, #1
10006a4e:	0029      	movs	r1, r5
10006a50:	4313      	orrs	r3, r2
10006a52:	4311      	orrs	r1, r2
10006a54:	1965      	adds	r5, r4, r5
10006a56:	6061      	str	r1, [r4, #4]
10006a58:	0030      	movs	r0, r6
10006a5a:	60bd      	str	r5, [r7, #8]
10006a5c:	606b      	str	r3, [r5, #4]
10006a5e:	f000 f947 	bl	10006cf0 <__malloc_unlock>
10006a62:	0020      	movs	r0, r4
10006a64:	3008      	adds	r0, #8
10006a66:	e73e      	b.n	100068e6 <_malloc_r+0x18a>
10006a68:	0a5a      	lsrs	r2, r3, #9
10006a6a:	2a04      	cmp	r2, #4
10006a6c:	d972      	bls.n	10006b54 <_malloc_r+0x3f8>
10006a6e:	2a14      	cmp	r2, #20
10006a70:	d900      	bls.n	10006a74 <_malloc_r+0x318>
10006a72:	e0c5      	b.n	10006c00 <_malloc_r+0x4a4>
10006a74:	0011      	movs	r1, r2
10006a76:	325c      	adds	r2, #92	; 0x5c
10006a78:	315b      	adds	r1, #91	; 0x5b
10006a7a:	00d2      	lsls	r2, r2, #3
10006a7c:	2308      	movs	r3, #8
10006a7e:	425b      	negs	r3, r3
10006a80:	469c      	mov	ip, r3
10006a82:	18ba      	adds	r2, r7, r2
10006a84:	4494      	add	ip, r2
10006a86:	4663      	mov	r3, ip
10006a88:	689a      	ldr	r2, [r3, #8]
10006a8a:	2303      	movs	r3, #3
10006a8c:	4698      	mov	r8, r3
10006a8e:	4594      	cmp	ip, r2
10006a90:	d100      	bne.n	10006a94 <_malloc_r+0x338>
10006a92:	e09e      	b.n	10006bd2 <_malloc_r+0x476>
10006a94:	4643      	mov	r3, r8
10006a96:	6851      	ldr	r1, [r2, #4]
10006a98:	4399      	bics	r1, r3
10006a9a:	4549      	cmp	r1, r9
10006a9c:	d902      	bls.n	10006aa4 <_malloc_r+0x348>
10006a9e:	6892      	ldr	r2, [r2, #8]
10006aa0:	4594      	cmp	ip, r2
10006aa2:	d1f7      	bne.n	10006a94 <_malloc_r+0x338>
10006aa4:	68d3      	ldr	r3, [r2, #12]
10006aa6:	469c      	mov	ip, r3
10006aa8:	687b      	ldr	r3, [r7, #4]
10006aaa:	4661      	mov	r1, ip
10006aac:	60a2      	str	r2, [r4, #8]
10006aae:	60e1      	str	r1, [r4, #12]
10006ab0:	608c      	str	r4, [r1, #8]
10006ab2:	60d4      	str	r4, [r2, #12]
10006ab4:	e6d6      	b.n	10006864 <_malloc_r+0x108>
10006ab6:	46c0      	nop			; (mov r8, r8)
10006ab8:	20000720 	.word	0x20000720
10006abc:	20000b28 	.word	0x20000b28
10006ac0:	20000e30 	.word	0x20000e30
10006ac4:	0000100f 	.word	0x0000100f
10006ac8:	20000e00 	.word	0x20000e00
10006acc:	00001008 	.word	0x00001008
10006ad0:	20000e28 	.word	0x20000e28
10006ad4:	20000e2c 	.word	0x20000e2c
10006ad8:	2814      	cmp	r0, #20
10006ada:	d952      	bls.n	10006b82 <_malloc_r+0x426>
10006adc:	2854      	cmp	r0, #84	; 0x54
10006ade:	d900      	bls.n	10006ae2 <_malloc_r+0x386>
10006ae0:	e096      	b.n	10006c10 <_malloc_r+0x4b4>
10006ae2:	236e      	movs	r3, #110	; 0x6e
10006ae4:	4698      	mov	r8, r3
10006ae6:	0b28      	lsrs	r0, r5, #12
10006ae8:	4480      	add	r8, r0
10006aea:	306f      	adds	r0, #111	; 0x6f
10006aec:	00c1      	lsls	r1, r0, #3
10006aee:	e67e      	b.n	100067ee <_malloc_r+0x92>
10006af0:	2308      	movs	r3, #8
10006af2:	469b      	mov	fp, r3
10006af4:	3b07      	subs	r3, #7
10006af6:	44dc      	add	ip, fp
10006af8:	469b      	mov	fp, r3
10006afa:	44da      	add	sl, fp
10006afc:	4643      	mov	r3, r8
10006afe:	4652      	mov	r2, sl
10006b00:	4213      	tst	r3, r2
10006b02:	d000      	beq.n	10006b06 <_malloc_r+0x3aa>
10006b04:	e6c2      	b.n	1000688c <_malloc_r+0x130>
10006b06:	e04c      	b.n	10006ba2 <_malloc_r+0x446>
10006b08:	2201      	movs	r2, #1
10006b0a:	18e3      	adds	r3, r4, r3
10006b0c:	6859      	ldr	r1, [r3, #4]
10006b0e:	0030      	movs	r0, r6
10006b10:	430a      	orrs	r2, r1
10006b12:	605a      	str	r2, [r3, #4]
10006b14:	68e3      	ldr	r3, [r4, #12]
10006b16:	68a2      	ldr	r2, [r4, #8]
10006b18:	60d3      	str	r3, [r2, #12]
10006b1a:	609a      	str	r2, [r3, #8]
10006b1c:	f000 f8e8 	bl	10006cf0 <__malloc_unlock>
10006b20:	0020      	movs	r0, r4
10006b22:	3008      	adds	r0, #8
10006b24:	e6df      	b.n	100068e6 <_malloc_r+0x18a>
10006b26:	002b      	movs	r3, r5
10006b28:	08e8      	lsrs	r0, r5, #3
10006b2a:	3308      	adds	r3, #8
10006b2c:	e62a      	b.n	10006784 <_malloc_r+0x28>
10006b2e:	2301      	movs	r3, #1
10006b30:	1960      	adds	r0, r4, r5
10006b32:	431d      	orrs	r5, r3
10006b34:	6065      	str	r5, [r4, #4]
10006b36:	6178      	str	r0, [r7, #20]
10006b38:	6138      	str	r0, [r7, #16]
10006b3a:	60c2      	str	r2, [r0, #12]
10006b3c:	6082      	str	r2, [r0, #8]
10006b3e:	001a      	movs	r2, r3
10006b40:	464b      	mov	r3, r9
10006b42:	430a      	orrs	r2, r1
10006b44:	6042      	str	r2, [r0, #4]
10006b46:	0030      	movs	r0, r6
10006b48:	50e1      	str	r1, [r4, r3]
10006b4a:	f000 f8d1 	bl	10006cf0 <__malloc_unlock>
10006b4e:	0020      	movs	r0, r4
10006b50:	3008      	adds	r0, #8
10006b52:	e6c8      	b.n	100068e6 <_malloc_r+0x18a>
10006b54:	099a      	lsrs	r2, r3, #6
10006b56:	0011      	movs	r1, r2
10006b58:	3239      	adds	r2, #57	; 0x39
10006b5a:	3138      	adds	r1, #56	; 0x38
10006b5c:	00d2      	lsls	r2, r2, #3
10006b5e:	e78d      	b.n	10006a7c <_malloc_r+0x320>
10006b60:	42bc      	cmp	r4, r7
10006b62:	d060      	beq.n	10006c26 <_malloc_r+0x4ca>
10006b64:	68bc      	ldr	r4, [r7, #8]
10006b66:	6862      	ldr	r2, [r4, #4]
10006b68:	2303      	movs	r3, #3
10006b6a:	439a      	bics	r2, r3
10006b6c:	1b53      	subs	r3, r2, r5
10006b6e:	4295      	cmp	r5, r2
10006b70:	d802      	bhi.n	10006b78 <_malloc_r+0x41c>
10006b72:	2b0f      	cmp	r3, #15
10006b74:	dd00      	ble.n	10006b78 <_malloc_r+0x41c>
10006b76:	e769      	b.n	10006a4c <_malloc_r+0x2f0>
10006b78:	0030      	movs	r0, r6
10006b7a:	f000 f8b9 	bl	10006cf0 <__malloc_unlock>
10006b7e:	2000      	movs	r0, #0
10006b80:	e6b1      	b.n	100068e6 <_malloc_r+0x18a>
10006b82:	235b      	movs	r3, #91	; 0x5b
10006b84:	4698      	mov	r8, r3
10006b86:	4480      	add	r8, r0
10006b88:	305c      	adds	r0, #92	; 0x5c
10006b8a:	00c1      	lsls	r1, r0, #3
10006b8c:	e62f      	b.n	100067ee <_malloc_r+0x92>
10006b8e:	2308      	movs	r3, #8
10006b90:	425b      	negs	r3, r3
10006b92:	469c      	mov	ip, r3
10006b94:	44e1      	add	r9, ip
10006b96:	464b      	mov	r3, r9
10006b98:	689b      	ldr	r3, [r3, #8]
10006b9a:	3801      	subs	r0, #1
10006b9c:	454b      	cmp	r3, r9
10006b9e:	d000      	beq.n	10006ba2 <_malloc_r+0x446>
10006ba0:	e098      	b.n	10006cd4 <_malloc_r+0x578>
10006ba2:	4643      	mov	r3, r8
10006ba4:	4203      	tst	r3, r0
10006ba6:	d1f2      	bne.n	10006b8e <_malloc_r+0x432>
10006ba8:	687b      	ldr	r3, [r7, #4]
10006baa:	438b      	bics	r3, r1
10006bac:	607b      	str	r3, [r7, #4]
10006bae:	0049      	lsls	r1, r1, #1
10006bb0:	4299      	cmp	r1, r3
10006bb2:	d900      	bls.n	10006bb6 <_malloc_r+0x45a>
10006bb4:	e6b5      	b.n	10006922 <_malloc_r+0x1c6>
10006bb6:	2900      	cmp	r1, #0
10006bb8:	d104      	bne.n	10006bc4 <_malloc_r+0x468>
10006bba:	e6b2      	b.n	10006922 <_malloc_r+0x1c6>
10006bbc:	2204      	movs	r2, #4
10006bbe:	4694      	mov	ip, r2
10006bc0:	0049      	lsls	r1, r1, #1
10006bc2:	44e2      	add	sl, ip
10006bc4:	420b      	tst	r3, r1
10006bc6:	d0f9      	beq.n	10006bbc <_malloc_r+0x460>
10006bc8:	4650      	mov	r0, sl
10006bca:	e65a      	b.n	10006882 <_malloc_r+0x126>
10006bcc:	3310      	adds	r3, #16
10006bce:	9300      	str	r3, [sp, #0]
10006bd0:	e6c4      	b.n	1000695c <_malloc_r+0x200>
10006bd2:	1089      	asrs	r1, r1, #2
10006bd4:	3b02      	subs	r3, #2
10006bd6:	408b      	lsls	r3, r1
10006bd8:	6879      	ldr	r1, [r7, #4]
10006bda:	430b      	orrs	r3, r1
10006bdc:	607b      	str	r3, [r7, #4]
10006bde:	e764      	b.n	10006aaa <_malloc_r+0x34e>
10006be0:	9b00      	ldr	r3, [sp, #0]
10006be2:	0030      	movs	r0, r6
10006be4:	4443      	add	r3, r8
10006be6:	425b      	negs	r3, r3
10006be8:	051b      	lsls	r3, r3, #20
10006bea:	0d1b      	lsrs	r3, r3, #20
10006bec:	0019      	movs	r1, r3
10006bee:	469b      	mov	fp, r3
10006bf0:	f000 f886 	bl	10006d00 <_sbrk_r>
10006bf4:	1c43      	adds	r3, r0, #1
10006bf6:	d000      	beq.n	10006bfa <_malloc_r+0x49e>
10006bf8:	e6f3      	b.n	100069e2 <_malloc_r+0x286>
10006bfa:	2300      	movs	r3, #0
10006bfc:	469b      	mov	fp, r3
10006bfe:	e6f5      	b.n	100069ec <_malloc_r+0x290>
10006c00:	2a54      	cmp	r2, #84	; 0x54
10006c02:	d82b      	bhi.n	10006c5c <_malloc_r+0x500>
10006c04:	0b1a      	lsrs	r2, r3, #12
10006c06:	0011      	movs	r1, r2
10006c08:	326f      	adds	r2, #111	; 0x6f
10006c0a:	316e      	adds	r1, #110	; 0x6e
10006c0c:	00d2      	lsls	r2, r2, #3
10006c0e:	e735      	b.n	10006a7c <_malloc_r+0x320>
10006c10:	23aa      	movs	r3, #170	; 0xaa
10006c12:	005b      	lsls	r3, r3, #1
10006c14:	4298      	cmp	r0, r3
10006c16:	d82b      	bhi.n	10006c70 <_malloc_r+0x514>
10006c18:	3bdd      	subs	r3, #221	; 0xdd
10006c1a:	4698      	mov	r8, r3
10006c1c:	0be8      	lsrs	r0, r5, #15
10006c1e:	4480      	add	r8, r0
10006c20:	3078      	adds	r0, #120	; 0x78
10006c22:	00c1      	lsls	r1, r0, #3
10006c24:	e5e3      	b.n	100067ee <_malloc_r+0x92>
10006c26:	4b2c      	ldr	r3, [pc, #176]	; (10006cd8 <_malloc_r+0x57c>)
10006c28:	9a00      	ldr	r2, [sp, #0]
10006c2a:	469a      	mov	sl, r3
10006c2c:	681b      	ldr	r3, [r3, #0]
10006c2e:	469c      	mov	ip, r3
10006c30:	4653      	mov	r3, sl
10006c32:	4462      	add	r2, ip
10006c34:	601a      	str	r2, [r3, #0]
10006c36:	e6ad      	b.n	10006994 <_malloc_r+0x238>
10006c38:	0509      	lsls	r1, r1, #20
10006c3a:	d000      	beq.n	10006c3e <_malloc_r+0x4e2>
10006c3c:	e6aa      	b.n	10006994 <_malloc_r+0x238>
10006c3e:	0002      	movs	r2, r0
10006c40:	68bc      	ldr	r4, [r7, #8]
10006c42:	444a      	add	r2, r9
10006c44:	3101      	adds	r1, #1
10006c46:	430a      	orrs	r2, r1
10006c48:	6062      	str	r2, [r4, #4]
10006c4a:	e6f3      	b.n	10006a34 <_malloc_r+0x2d8>
10006c4c:	465b      	mov	r3, fp
10006c4e:	4642      	mov	r2, r8
10006c50:	601a      	str	r2, [r3, #0]
10006c52:	e6aa      	b.n	100069aa <_malloc_r+0x24e>
10006c54:	4644      	mov	r4, r8
10006c56:	e6ed      	b.n	10006a34 <_malloc_r+0x2d8>
10006c58:	6041      	str	r1, [r0, #4]
10006c5a:	e78d      	b.n	10006b78 <_malloc_r+0x41c>
10006c5c:	21aa      	movs	r1, #170	; 0xaa
10006c5e:	0049      	lsls	r1, r1, #1
10006c60:	428a      	cmp	r2, r1
10006c62:	d824      	bhi.n	10006cae <_malloc_r+0x552>
10006c64:	0bda      	lsrs	r2, r3, #15
10006c66:	0011      	movs	r1, r2
10006c68:	3278      	adds	r2, #120	; 0x78
10006c6a:	3177      	adds	r1, #119	; 0x77
10006c6c:	00d2      	lsls	r2, r2, #3
10006c6e:	e705      	b.n	10006a7c <_malloc_r+0x320>
10006c70:	4b1a      	ldr	r3, [pc, #104]	; (10006cdc <_malloc_r+0x580>)
10006c72:	4298      	cmp	r0, r3
10006c74:	d824      	bhi.n	10006cc0 <_malloc_r+0x564>
10006c76:	237c      	movs	r3, #124	; 0x7c
10006c78:	4698      	mov	r8, r3
10006c7a:	0ca8      	lsrs	r0, r5, #18
10006c7c:	4480      	add	r8, r0
10006c7e:	307d      	adds	r0, #125	; 0x7d
10006c80:	00c1      	lsls	r1, r0, #3
10006c82:	e5b4      	b.n	100067ee <_malloc_r+0x92>
10006c84:	9a00      	ldr	r2, [sp, #0]
10006c86:	9b01      	ldr	r3, [sp, #4]
10006c88:	4694      	mov	ip, r2
10006c8a:	4642      	mov	r2, r8
10006c8c:	3b08      	subs	r3, #8
10006c8e:	4463      	add	r3, ip
10006c90:	1a9b      	subs	r3, r3, r2
10006c92:	9300      	str	r3, [sp, #0]
10006c94:	2300      	movs	r3, #0
10006c96:	469b      	mov	fp, r3
10006c98:	e6a8      	b.n	100069ec <_malloc_r+0x290>
10006c9a:	0021      	movs	r1, r4
10006c9c:	0030      	movs	r0, r6
10006c9e:	3108      	adds	r1, #8
10006ca0:	f000 f8bc 	bl	10006e1c <_free_r>
10006ca4:	4653      	mov	r3, sl
10006ca6:	68bc      	ldr	r4, [r7, #8]
10006ca8:	681b      	ldr	r3, [r3, #0]
10006caa:	6862      	ldr	r2, [r4, #4]
10006cac:	e6c2      	b.n	10006a34 <_malloc_r+0x2d8>
10006cae:	490b      	ldr	r1, [pc, #44]	; (10006cdc <_malloc_r+0x580>)
10006cb0:	428a      	cmp	r2, r1
10006cb2:	d80b      	bhi.n	10006ccc <_malloc_r+0x570>
10006cb4:	0c9a      	lsrs	r2, r3, #18
10006cb6:	0011      	movs	r1, r2
10006cb8:	327d      	adds	r2, #125	; 0x7d
10006cba:	317c      	adds	r1, #124	; 0x7c
10006cbc:	00d2      	lsls	r2, r2, #3
10006cbe:	e6dd      	b.n	10006a7c <_malloc_r+0x320>
10006cc0:	21fe      	movs	r1, #254	; 0xfe
10006cc2:	237e      	movs	r3, #126	; 0x7e
10006cc4:	207f      	movs	r0, #127	; 0x7f
10006cc6:	4698      	mov	r8, r3
10006cc8:	0089      	lsls	r1, r1, #2
10006cca:	e590      	b.n	100067ee <_malloc_r+0x92>
10006ccc:	22fe      	movs	r2, #254	; 0xfe
10006cce:	217e      	movs	r1, #126	; 0x7e
10006cd0:	0092      	lsls	r2, r2, #2
10006cd2:	e6d3      	b.n	10006a7c <_malloc_r+0x320>
10006cd4:	687b      	ldr	r3, [r7, #4]
10006cd6:	e76a      	b.n	10006bae <_malloc_r+0x452>
10006cd8:	20000e00 	.word	0x20000e00
10006cdc:	00000554 	.word	0x00000554

10006ce0 <__malloc_lock>:
10006ce0:	b510      	push	{r4, lr}
10006ce2:	4802      	ldr	r0, [pc, #8]	; (10006cec <__malloc_lock+0xc>)
10006ce4:	f000 f97c 	bl	10006fe0 <__retarget_lock_acquire_recursive>
10006ce8:	bd10      	pop	{r4, pc}
10006cea:	46c0      	nop			; (mov r8, r8)
10006cec:	20000dfc 	.word	0x20000dfc

10006cf0 <__malloc_unlock>:
10006cf0:	b510      	push	{r4, lr}
10006cf2:	4802      	ldr	r0, [pc, #8]	; (10006cfc <__malloc_unlock+0xc>)
10006cf4:	f000 f976 	bl	10006fe4 <__retarget_lock_release_recursive>
10006cf8:	bd10      	pop	{r4, pc}
10006cfa:	46c0      	nop			; (mov r8, r8)
10006cfc:	20000dfc 	.word	0x20000dfc

10006d00 <_sbrk_r>:
10006d00:	2300      	movs	r3, #0
10006d02:	b570      	push	{r4, r5, r6, lr}
10006d04:	4d06      	ldr	r5, [pc, #24]	; (10006d20 <_sbrk_r+0x20>)
10006d06:	0004      	movs	r4, r0
10006d08:	0008      	movs	r0, r1
10006d0a:	602b      	str	r3, [r5, #0]
10006d0c:	f7fb f8ac 	bl	10001e68 <_sbrk>
10006d10:	1c43      	adds	r3, r0, #1
10006d12:	d000      	beq.n	10006d16 <_sbrk_r+0x16>
10006d14:	bd70      	pop	{r4, r5, r6, pc}
10006d16:	682b      	ldr	r3, [r5, #0]
10006d18:	2b00      	cmp	r3, #0
10006d1a:	d0fb      	beq.n	10006d14 <_sbrk_r+0x14>
10006d1c:	6023      	str	r3, [r4, #0]
10006d1e:	e7f9      	b.n	10006d14 <_sbrk_r+0x14>
10006d20:	20000eb8 	.word	0x20000eb8

10006d24 <strlen>:
10006d24:	b510      	push	{r4, lr}
10006d26:	0783      	lsls	r3, r0, #30
10006d28:	d00a      	beq.n	10006d40 <strlen+0x1c>
10006d2a:	0003      	movs	r3, r0
10006d2c:	2103      	movs	r1, #3
10006d2e:	e002      	b.n	10006d36 <strlen+0x12>
10006d30:	3301      	adds	r3, #1
10006d32:	420b      	tst	r3, r1
10006d34:	d005      	beq.n	10006d42 <strlen+0x1e>
10006d36:	781a      	ldrb	r2, [r3, #0]
10006d38:	2a00      	cmp	r2, #0
10006d3a:	d1f9      	bne.n	10006d30 <strlen+0xc>
10006d3c:	1a18      	subs	r0, r3, r0
10006d3e:	bd10      	pop	{r4, pc}
10006d40:	0003      	movs	r3, r0
10006d42:	6819      	ldr	r1, [r3, #0]
10006d44:	4a0c      	ldr	r2, [pc, #48]	; (10006d78 <strlen+0x54>)
10006d46:	4c0d      	ldr	r4, [pc, #52]	; (10006d7c <strlen+0x58>)
10006d48:	188a      	adds	r2, r1, r2
10006d4a:	438a      	bics	r2, r1
10006d4c:	4222      	tst	r2, r4
10006d4e:	d10f      	bne.n	10006d70 <strlen+0x4c>
10006d50:	6859      	ldr	r1, [r3, #4]
10006d52:	4a09      	ldr	r2, [pc, #36]	; (10006d78 <strlen+0x54>)
10006d54:	3304      	adds	r3, #4
10006d56:	188a      	adds	r2, r1, r2
10006d58:	438a      	bics	r2, r1
10006d5a:	4222      	tst	r2, r4
10006d5c:	d108      	bne.n	10006d70 <strlen+0x4c>
10006d5e:	6859      	ldr	r1, [r3, #4]
10006d60:	4a05      	ldr	r2, [pc, #20]	; (10006d78 <strlen+0x54>)
10006d62:	3304      	adds	r3, #4
10006d64:	188a      	adds	r2, r1, r2
10006d66:	438a      	bics	r2, r1
10006d68:	4222      	tst	r2, r4
10006d6a:	d0f1      	beq.n	10006d50 <strlen+0x2c>
10006d6c:	e000      	b.n	10006d70 <strlen+0x4c>
10006d6e:	3301      	adds	r3, #1
10006d70:	781a      	ldrb	r2, [r3, #0]
10006d72:	2a00      	cmp	r2, #0
10006d74:	d1fb      	bne.n	10006d6e <strlen+0x4a>
10006d76:	e7e1      	b.n	10006d3c <strlen+0x18>
10006d78:	fefefeff 	.word	0xfefefeff
10006d7c:	80808080 	.word	0x80808080

10006d80 <_malloc_trim_r>:
10006d80:	b5f8      	push	{r3, r4, r5, r6, r7, lr}
10006d82:	000c      	movs	r4, r1
10006d84:	0005      	movs	r5, r0
10006d86:	f7ff ffab 	bl	10006ce0 <__malloc_lock>
10006d8a:	4f20      	ldr	r7, [pc, #128]	; (10006e0c <_malloc_trim_r+0x8c>)
10006d8c:	68bb      	ldr	r3, [r7, #8]
10006d8e:	685e      	ldr	r6, [r3, #4]
10006d90:	2303      	movs	r3, #3
10006d92:	439e      	bics	r6, r3
10006d94:	4b1e      	ldr	r3, [pc, #120]	; (10006e10 <_malloc_trim_r+0x90>)
10006d96:	1b34      	subs	r4, r6, r4
10006d98:	469c      	mov	ip, r3
10006d9a:	4464      	add	r4, ip
10006d9c:	0b24      	lsrs	r4, r4, #12
10006d9e:	3c01      	subs	r4, #1
10006da0:	3311      	adds	r3, #17
10006da2:	0324      	lsls	r4, r4, #12
10006da4:	429c      	cmp	r4, r3
10006da6:	db07      	blt.n	10006db8 <_malloc_trim_r+0x38>
10006da8:	2100      	movs	r1, #0
10006daa:	0028      	movs	r0, r5
10006dac:	f7ff ffa8 	bl	10006d00 <_sbrk_r>
10006db0:	68bb      	ldr	r3, [r7, #8]
10006db2:	199b      	adds	r3, r3, r6
10006db4:	4298      	cmp	r0, r3
10006db6:	d004      	beq.n	10006dc2 <_malloc_trim_r+0x42>
10006db8:	0028      	movs	r0, r5
10006dba:	f7ff ff99 	bl	10006cf0 <__malloc_unlock>
10006dbe:	2000      	movs	r0, #0
10006dc0:	bdf8      	pop	{r3, r4, r5, r6, r7, pc}
10006dc2:	0028      	movs	r0, r5
10006dc4:	4261      	negs	r1, r4
10006dc6:	f7ff ff9b 	bl	10006d00 <_sbrk_r>
10006dca:	1c43      	adds	r3, r0, #1
10006dcc:	d00d      	beq.n	10006dea <_malloc_trim_r+0x6a>
10006dce:	2201      	movs	r2, #1
10006dd0:	68bb      	ldr	r3, [r7, #8]
10006dd2:	1b36      	subs	r6, r6, r4
10006dd4:	4316      	orrs	r6, r2
10006dd6:	605e      	str	r6, [r3, #4]
10006dd8:	4b0e      	ldr	r3, [pc, #56]	; (10006e14 <_malloc_trim_r+0x94>)
10006dda:	0028      	movs	r0, r5
10006ddc:	681a      	ldr	r2, [r3, #0]
10006dde:	1b14      	subs	r4, r2, r4
10006de0:	601c      	str	r4, [r3, #0]
10006de2:	f7ff ff85 	bl	10006cf0 <__malloc_unlock>
10006de6:	2001      	movs	r0, #1
10006de8:	e7ea      	b.n	10006dc0 <_malloc_trim_r+0x40>
10006dea:	2100      	movs	r1, #0
10006dec:	0028      	movs	r0, r5
10006dee:	f7ff ff87 	bl	10006d00 <_sbrk_r>
10006df2:	68ba      	ldr	r2, [r7, #8]
10006df4:	1a83      	subs	r3, r0, r2
10006df6:	2b0f      	cmp	r3, #15
10006df8:	ddde      	ble.n	10006db8 <_malloc_trim_r+0x38>
10006dfa:	4907      	ldr	r1, [pc, #28]	; (10006e18 <_malloc_trim_r+0x98>)
10006dfc:	6809      	ldr	r1, [r1, #0]
10006dfe:	1a40      	subs	r0, r0, r1
10006e00:	4904      	ldr	r1, [pc, #16]	; (10006e14 <_malloc_trim_r+0x94>)
10006e02:	6008      	str	r0, [r1, #0]
10006e04:	2101      	movs	r1, #1
10006e06:	430b      	orrs	r3, r1
10006e08:	6053      	str	r3, [r2, #4]
10006e0a:	e7d5      	b.n	10006db8 <_malloc_trim_r+0x38>
10006e0c:	20000720 	.word	0x20000720
10006e10:	00000fef 	.word	0x00000fef
10006e14:	20000e00 	.word	0x20000e00
10006e18:	20000b28 	.word	0x20000b28

10006e1c <_free_r>:
10006e1c:	b5f0      	push	{r4, r5, r6, r7, lr}
10006e1e:	46c6      	mov	lr, r8
10006e20:	0005      	movs	r5, r0
10006e22:	000c      	movs	r4, r1
10006e24:	b500      	push	{lr}
10006e26:	2900      	cmp	r1, #0
10006e28:	d04f      	beq.n	10006eca <_free_r+0xae>
10006e2a:	f7ff ff59 	bl	10006ce0 <__malloc_lock>
10006e2e:	0021      	movs	r1, r4
10006e30:	3908      	subs	r1, #8
10006e32:	684c      	ldr	r4, [r1, #4]
10006e34:	2601      	movs	r6, #1
10006e36:	0022      	movs	r2, r4
10006e38:	2003      	movs	r0, #3
10006e3a:	43b2      	bics	r2, r6
10006e3c:	188f      	adds	r7, r1, r2
10006e3e:	687b      	ldr	r3, [r7, #4]
10006e40:	4383      	bics	r3, r0
10006e42:	4862      	ldr	r0, [pc, #392]	; (10006fcc <_free_r+0x1b0>)
10006e44:	4698      	mov	r8, r3
10006e46:	6883      	ldr	r3, [r0, #8]
10006e48:	42bb      	cmp	r3, r7
10006e4a:	d06a      	beq.n	10006f22 <_free_r+0x106>
10006e4c:	4643      	mov	r3, r8
10006e4e:	607b      	str	r3, [r7, #4]
10006e50:	4226      	tst	r6, r4
10006e52:	d11e      	bne.n	10006e92 <_free_r+0x76>
10006e54:	2308      	movs	r3, #8
10006e56:	469c      	mov	ip, r3
10006e58:	680c      	ldr	r4, [r1, #0]
10006e5a:	4484      	add	ip, r0
10006e5c:	1b09      	subs	r1, r1, r4
10006e5e:	1912      	adds	r2, r2, r4
10006e60:	688c      	ldr	r4, [r1, #8]
10006e62:	4564      	cmp	r4, ip
10006e64:	d04f      	beq.n	10006f06 <_free_r+0xea>
10006e66:	68cb      	ldr	r3, [r1, #12]
10006e68:	60e3      	str	r3, [r4, #12]
10006e6a:	609c      	str	r4, [r3, #8]
10006e6c:	4643      	mov	r3, r8
10006e6e:	18fc      	adds	r4, r7, r3
10006e70:	6864      	ldr	r4, [r4, #4]
10006e72:	4234      	tst	r4, r6
10006e74:	d111      	bne.n	10006e9a <_free_r+0x7e>
10006e76:	68bb      	ldr	r3, [r7, #8]
10006e78:	4c55      	ldr	r4, [pc, #340]	; (10006fd0 <_free_r+0x1b4>)
10006e7a:	4442      	add	r2, r8
10006e7c:	42a3      	cmp	r3, r4
10006e7e:	d100      	bne.n	10006e82 <_free_r+0x66>
10006e80:	e07e      	b.n	10006f80 <_free_r+0x164>
10006e82:	68fc      	ldr	r4, [r7, #12]
10006e84:	60dc      	str	r4, [r3, #12]
10006e86:	60a3      	str	r3, [r4, #8]
10006e88:	2301      	movs	r3, #1
10006e8a:	4313      	orrs	r3, r2
10006e8c:	604b      	str	r3, [r1, #4]
10006e8e:	508a      	str	r2, [r1, r2]
10006e90:	e006      	b.n	10006ea0 <_free_r+0x84>
10006e92:	18fc      	adds	r4, r7, r3
10006e94:	6864      	ldr	r4, [r4, #4]
10006e96:	4234      	tst	r4, r6
10006e98:	d0ed      	beq.n	10006e76 <_free_r+0x5a>
10006e9a:	4316      	orrs	r6, r2
10006e9c:	604e      	str	r6, [r1, #4]
10006e9e:	603a      	str	r2, [r7, #0]
10006ea0:	2380      	movs	r3, #128	; 0x80
10006ea2:	009b      	lsls	r3, r3, #2
10006ea4:	429a      	cmp	r2, r3
10006ea6:	d213      	bcs.n	10006ed0 <_free_r+0xb4>
10006ea8:	0954      	lsrs	r4, r2, #5
10006eaa:	08d3      	lsrs	r3, r2, #3
10006eac:	2201      	movs	r2, #1
10006eae:	40a2      	lsls	r2, r4
10006eb0:	6844      	ldr	r4, [r0, #4]
10006eb2:	00db      	lsls	r3, r3, #3
10006eb4:	4322      	orrs	r2, r4
10006eb6:	6042      	str	r2, [r0, #4]
10006eb8:	1818      	adds	r0, r3, r0
10006eba:	6883      	ldr	r3, [r0, #8]
10006ebc:	60c8      	str	r0, [r1, #12]
10006ebe:	608b      	str	r3, [r1, #8]
10006ec0:	6081      	str	r1, [r0, #8]
10006ec2:	60d9      	str	r1, [r3, #12]
10006ec4:	0028      	movs	r0, r5
10006ec6:	f7ff ff13 	bl	10006cf0 <__malloc_unlock>
10006eca:	bc80      	pop	{r7}
10006ecc:	46b8      	mov	r8, r7
10006ece:	bdf0      	pop	{r4, r5, r6, r7, pc}
10006ed0:	0a53      	lsrs	r3, r2, #9
10006ed2:	2b04      	cmp	r3, #4
10006ed4:	d83e      	bhi.n	10006f54 <_free_r+0x138>
10006ed6:	0994      	lsrs	r4, r2, #6
10006ed8:	0026      	movs	r6, r4
10006eda:	3439      	adds	r4, #57	; 0x39
10006edc:	3638      	adds	r6, #56	; 0x38
10006ede:	00e4      	lsls	r4, r4, #3
10006ee0:	1904      	adds	r4, r0, r4
10006ee2:	6823      	ldr	r3, [r4, #0]
10006ee4:	3c08      	subs	r4, #8
10006ee6:	2703      	movs	r7, #3
10006ee8:	429c      	cmp	r4, r3
10006eea:	d042      	beq.n	10006f72 <_free_r+0x156>
10006eec:	6858      	ldr	r0, [r3, #4]
10006eee:	43b8      	bics	r0, r7
10006ef0:	4290      	cmp	r0, r2
10006ef2:	d902      	bls.n	10006efa <_free_r+0xde>
10006ef4:	689b      	ldr	r3, [r3, #8]
10006ef6:	429c      	cmp	r4, r3
10006ef8:	d1f8      	bne.n	10006eec <_free_r+0xd0>
10006efa:	68dc      	ldr	r4, [r3, #12]
10006efc:	60cc      	str	r4, [r1, #12]
10006efe:	608b      	str	r3, [r1, #8]
10006f00:	60a1      	str	r1, [r4, #8]
10006f02:	60d9      	str	r1, [r3, #12]
10006f04:	e7de      	b.n	10006ec4 <_free_r+0xa8>
10006f06:	4643      	mov	r3, r8
10006f08:	18f8      	adds	r0, r7, r3
10006f0a:	6840      	ldr	r0, [r0, #4]
10006f0c:	4230      	tst	r0, r6
10006f0e:	d157      	bne.n	10006fc0 <_free_r+0x1a4>
10006f10:	68fb      	ldr	r3, [r7, #12]
10006f12:	68b8      	ldr	r0, [r7, #8]
10006f14:	4442      	add	r2, r8
10006f16:	4316      	orrs	r6, r2
10006f18:	60c3      	str	r3, [r0, #12]
10006f1a:	6098      	str	r0, [r3, #8]
10006f1c:	604e      	str	r6, [r1, #4]
10006f1e:	508a      	str	r2, [r1, r2]
10006f20:	e7d0      	b.n	10006ec4 <_free_r+0xa8>
10006f22:	0013      	movs	r3, r2
10006f24:	4443      	add	r3, r8
10006f26:	4226      	tst	r6, r4
10006f28:	d106      	bne.n	10006f38 <_free_r+0x11c>
10006f2a:	680a      	ldr	r2, [r1, #0]
10006f2c:	1a89      	subs	r1, r1, r2
10006f2e:	688c      	ldr	r4, [r1, #8]
10006f30:	189b      	adds	r3, r3, r2
10006f32:	68ca      	ldr	r2, [r1, #12]
10006f34:	60e2      	str	r2, [r4, #12]
10006f36:	6094      	str	r4, [r2, #8]
10006f38:	2201      	movs	r2, #1
10006f3a:	431a      	orrs	r2, r3
10006f3c:	604a      	str	r2, [r1, #4]
10006f3e:	4a25      	ldr	r2, [pc, #148]	; (10006fd4 <_free_r+0x1b8>)
10006f40:	6081      	str	r1, [r0, #8]
10006f42:	6812      	ldr	r2, [r2, #0]
10006f44:	429a      	cmp	r2, r3
10006f46:	d8bd      	bhi.n	10006ec4 <_free_r+0xa8>
10006f48:	4b23      	ldr	r3, [pc, #140]	; (10006fd8 <_free_r+0x1bc>)
10006f4a:	0028      	movs	r0, r5
10006f4c:	6819      	ldr	r1, [r3, #0]
10006f4e:	f7ff ff17 	bl	10006d80 <_malloc_trim_r>
10006f52:	e7b7      	b.n	10006ec4 <_free_r+0xa8>
10006f54:	2b14      	cmp	r3, #20
10006f56:	d907      	bls.n	10006f68 <_free_r+0x14c>
10006f58:	2b54      	cmp	r3, #84	; 0x54
10006f5a:	d81a      	bhi.n	10006f92 <_free_r+0x176>
10006f5c:	0b14      	lsrs	r4, r2, #12
10006f5e:	0026      	movs	r6, r4
10006f60:	346f      	adds	r4, #111	; 0x6f
10006f62:	366e      	adds	r6, #110	; 0x6e
10006f64:	00e4      	lsls	r4, r4, #3
10006f66:	e7bb      	b.n	10006ee0 <_free_r+0xc4>
10006f68:	001e      	movs	r6, r3
10006f6a:	335c      	adds	r3, #92	; 0x5c
10006f6c:	365b      	adds	r6, #91	; 0x5b
10006f6e:	00dc      	lsls	r4, r3, #3
10006f70:	e7b6      	b.n	10006ee0 <_free_r+0xc4>
10006f72:	2201      	movs	r2, #1
10006f74:	10b6      	asrs	r6, r6, #2
10006f76:	40b2      	lsls	r2, r6
10006f78:	6846      	ldr	r6, [r0, #4]
10006f7a:	4332      	orrs	r2, r6
10006f7c:	6042      	str	r2, [r0, #4]
10006f7e:	e7bd      	b.n	10006efc <_free_r+0xe0>
10006f80:	60d9      	str	r1, [r3, #12]
10006f82:	6099      	str	r1, [r3, #8]
10006f84:	60cb      	str	r3, [r1, #12]
10006f86:	608b      	str	r3, [r1, #8]
10006f88:	2301      	movs	r3, #1
10006f8a:	4313      	orrs	r3, r2
10006f8c:	604b      	str	r3, [r1, #4]
10006f8e:	508a      	str	r2, [r1, r2]
10006f90:	e798      	b.n	10006ec4 <_free_r+0xa8>
10006f92:	24aa      	movs	r4, #170	; 0xaa
10006f94:	0064      	lsls	r4, r4, #1
10006f96:	42a3      	cmp	r3, r4
10006f98:	d805      	bhi.n	10006fa6 <_free_r+0x18a>
10006f9a:	0bd4      	lsrs	r4, r2, #15
10006f9c:	0026      	movs	r6, r4
10006f9e:	3478      	adds	r4, #120	; 0x78
10006fa0:	3677      	adds	r6, #119	; 0x77
10006fa2:	00e4      	lsls	r4, r4, #3
10006fa4:	e79c      	b.n	10006ee0 <_free_r+0xc4>
10006fa6:	4c0d      	ldr	r4, [pc, #52]	; (10006fdc <_free_r+0x1c0>)
10006fa8:	42a3      	cmp	r3, r4
10006faa:	d805      	bhi.n	10006fb8 <_free_r+0x19c>
10006fac:	0c94      	lsrs	r4, r2, #18
10006fae:	0026      	movs	r6, r4
10006fb0:	347d      	adds	r4, #125	; 0x7d
10006fb2:	367c      	adds	r6, #124	; 0x7c
10006fb4:	00e4      	lsls	r4, r4, #3
10006fb6:	e793      	b.n	10006ee0 <_free_r+0xc4>
10006fb8:	24fe      	movs	r4, #254	; 0xfe
10006fba:	267e      	movs	r6, #126	; 0x7e
10006fbc:	00a4      	lsls	r4, r4, #2
10006fbe:	e78f      	b.n	10006ee0 <_free_r+0xc4>
10006fc0:	0033      	movs	r3, r6
10006fc2:	4313      	orrs	r3, r2
10006fc4:	604b      	str	r3, [r1, #4]
10006fc6:	603a      	str	r2, [r7, #0]
10006fc8:	e77c      	b.n	10006ec4 <_free_r+0xa8>
10006fca:	46c0      	nop			; (mov r8, r8)
10006fcc:	20000720 	.word	0x20000720
10006fd0:	20000728 	.word	0x20000728
10006fd4:	20000b2c 	.word	0x20000b2c
10006fd8:	20000e30 	.word	0x20000e30
10006fdc:	00000554 	.word	0x00000554

10006fe0 <__retarget_lock_acquire_recursive>:
10006fe0:	4770      	bx	lr
10006fe2:	46c0      	nop			; (mov r8, r8)

10006fe4 <__retarget_lock_release_recursive>:
10006fe4:	4770      	bx	lr
10006fe6:	46c0      	nop			; (mov r8, r8)

10006fe8 <_fini>:
10006fe8:	b5f8      	push	{r3, r4, r5, r6, r7, lr}
10006fea:	46c0      	nop			; (mov r8, r8)
10006fec:	0000      	movs	r0, r0
	...

10006ff0 <__mutex_exit_veneer>:
10006ff0:	b401      	push	{r0}
10006ff2:	4802      	ldr	r0, [pc, #8]	; (10006ffc <__mutex_exit_veneer+0xc>)
10006ff4:	4684      	mov	ip, r0
10006ff6:	bc01      	pop	{r0}
10006ff8:	4760      	bx	ip
10006ffa:	bf00      	nop
10006ffc:	200001c9 	.word	0x200001c9

10007000 <____aeabi_ldiv0_veneer>:
10007000:	b401      	push	{r0}
10007002:	4802      	ldr	r0, [pc, #8]	; (1000700c <____aeabi_ldiv0_veneer+0xc>)
10007004:	4684      	mov	ip, r0
10007006:	bc01      	pop	{r0}
10007008:	4760      	bx	ip
1000700a:	bf00      	nop
1000700c:	20000215 	.word	0x20000215

10007010 <____aeabi_idiv0_veneer>:
10007010:	b401      	push	{r0}
10007012:	4802      	ldr	r0, [pc, #8]	; (1000701c <____aeabi_idiv0_veneer+0xc>)
10007014:	4684      	mov	ip, r0
10007016:	bc01      	pop	{r0}
10007018:	4760      	bx	ip
1000701a:	bf00      	nop
1000701c:	20000215 	.word	0x20000215

10007020 <__mutex_try_enter_block_until_veneer>:
10007020:	b401      	push	{r0}
10007022:	4802      	ldr	r0, [pc, #8]	; (1000702c <__mutex_try_enter_block_until_veneer+0xc>)
10007024:	4684      	mov	ip, r0
10007026:	bc01      	pop	{r0}
10007028:	4760      	bx	ip
1000702a:	bf00      	nop
1000702c:	20000195 	.word	0x20000195

Disassembly of section .data:

200000c0 <mutex_try_enter>:
200000c0:	0003      	movs	r3, r0
200000c2:	6800      	ldr	r0, [r0, #0]
200000c4:	f3ef 8c10 	mrs	ip, PRIMASK
200000c8:	b672      	cpsid	i
200000ca:	6802      	ldr	r2, [r0, #0]
200000cc:	2a00      	cmp	r2, #0
200000ce:	d0fc      	beq.n	200000ca <mutex_try_enter+0xa>
200000d0:	f3bf 8f5f 	dmb	sy
200000d4:	2204      	movs	r2, #4
200000d6:	569a      	ldrsb	r2, [r3, r2]
200000d8:	2a00      	cmp	r2, #0
200000da:	db0b      	blt.n	200000f4 <mutex_try_enter+0x34>
200000dc:	2900      	cmp	r1, #0
200000de:	d010      	beq.n	20000102 <mutex_try_enter+0x42>
200000e0:	600a      	str	r2, [r1, #0]
200000e2:	2000      	movs	r0, #0
200000e4:	681b      	ldr	r3, [r3, #0]
200000e6:	f3bf 8f5f 	dmb	sy
200000ea:	2200      	movs	r2, #0
200000ec:	601a      	str	r2, [r3, #0]
200000ee:	f38c 8810 	msr	PRIMASK, ip
200000f2:	4770      	bx	lr
200000f4:	22d0      	movs	r2, #208	; 0xd0
200000f6:	0612      	lsls	r2, r2, #24
200000f8:	7812      	ldrb	r2, [r2, #0]
200000fa:	b252      	sxtb	r2, r2
200000fc:	711a      	strb	r2, [r3, #4]
200000fe:	2001      	movs	r0, #1
20000100:	e7f0      	b.n	200000e4 <mutex_try_enter+0x24>
20000102:	2000      	movs	r0, #0
20000104:	e7ee      	b.n	200000e4 <mutex_try_enter+0x24>
	...

20000108 <mutex_enter_block_until>:
20000108:	b5f8      	push	{r3, r4, r5, r6, r7, lr}
2000010a:	46ce      	mov	lr, r9
2000010c:	4647      	mov	r7, r8
2000010e:	b580      	push	{r7, lr}
20000110:	0004      	movs	r4, r0
20000112:	0017      	movs	r7, r2
20000114:	4698      	mov	r8, r3
20000116:	6803      	ldr	r3, [r0, #0]
20000118:	2b00      	cmp	r3, #0
2000011a:	d020      	beq.n	2000015e <mutex_enter_block_until+0x56>
2000011c:	23d0      	movs	r3, #208	; 0xd0
2000011e:	061b      	lsls	r3, r3, #24
20000120:	781b      	ldrb	r3, [r3, #0]
20000122:	b25b      	sxtb	r3, r3
20000124:	4699      	mov	r9, r3
20000126:	6826      	ldr	r6, [r4, #0]
20000128:	f3ef 8c10 	mrs	ip, PRIMASK
2000012c:	b672      	cpsid	i
2000012e:	6835      	ldr	r5, [r6, #0]
20000130:	2d00      	cmp	r5, #0
20000132:	d0fc      	beq.n	2000012e <mutex_enter_block_until+0x26>
20000134:	f3bf 8f5f 	dmb	sy
20000138:	2504      	movs	r5, #4
2000013a:	5765      	ldrsb	r5, [r4, r5]
2000013c:	2d00      	cmp	r5, #0
2000013e:	db14      	blt.n	2000016a <mutex_enter_block_until+0x62>
20000140:	6823      	ldr	r3, [r4, #0]
20000142:	f3bf 8f5f 	dmb	sy
20000146:	2200      	movs	r2, #0
20000148:	601a      	str	r2, [r3, #0]
2000014a:	f38c 8810 	msr	PRIMASK, ip
2000014e:	0038      	movs	r0, r7
20000150:	4641      	mov	r1, r8
20000152:	f000 f861 	bl	20000218 <__best_effort_wfe_or_timeout_veneer>
20000156:	2800      	cmp	r0, #0
20000158:	d0e5      	beq.n	20000126 <mutex_enter_block_until+0x1e>
2000015a:	2000      	movs	r0, #0
2000015c:	e00f      	b.n	2000017e <mutex_enter_block_until+0x76>
2000015e:	4b0a      	ldr	r3, [pc, #40]	; (20000188 <mutex_enter_block_until+0x80>)
20000160:	4a0a      	ldr	r2, [pc, #40]	; (2000018c <mutex_enter_block_until+0x84>)
20000162:	2185      	movs	r1, #133	; 0x85
20000164:	480a      	ldr	r0, [pc, #40]	; (20000190 <mutex_enter_block_until+0x88>)
20000166:	f000 f85f 	bl	20000228 <____assert_func_veneer>
2000016a:	464b      	mov	r3, r9
2000016c:	7123      	strb	r3, [r4, #4]
2000016e:	6823      	ldr	r3, [r4, #0]
20000170:	f3bf 8f5f 	dmb	sy
20000174:	2200      	movs	r2, #0
20000176:	601a      	str	r2, [r3, #0]
20000178:	f38c 8810 	msr	PRIMASK, ip
2000017c:	2001      	movs	r0, #1
2000017e:	bcc0      	pop	{r6, r7}
20000180:	46b9      	mov	r9, r7
20000182:	46b0      	mov	r8, r6
20000184:	bdf8      	pop	{r3, r4, r5, r6, r7, pc}
20000186:	46c0      	nop			; (mov r8, r8)
20000188:	1000731c 	.word	0x1000731c
2000018c:	100073cc 	.word	0x100073cc
20000190:	100072ec 	.word	0x100072ec

20000194 <mutex_try_enter_block_until>:
20000194:	b570      	push	{r4, r5, r6, lr}
20000196:	b082      	sub	sp, #8
20000198:	0006      	movs	r6, r0
2000019a:	0015      	movs	r5, r2
2000019c:	001c      	movs	r4, r3
2000019e:	a901      	add	r1, sp, #4
200001a0:	f7ff ff8e 	bl	200000c0 <mutex_try_enter>
200001a4:	2800      	cmp	r0, #0
200001a6:	d107      	bne.n	200001b8 <mutex_try_enter_block_until+0x24>
200001a8:	9b01      	ldr	r3, [sp, #4]
200001aa:	b25b      	sxtb	r3, r3
200001ac:	22d0      	movs	r2, #208	; 0xd0
200001ae:	0612      	lsls	r2, r2, #24
200001b0:	7812      	ldrb	r2, [r2, #0]
200001b2:	b252      	sxtb	r2, r2
200001b4:	4293      	cmp	r3, r2
200001b6:	d101      	bne.n	200001bc <mutex_try_enter_block_until+0x28>
200001b8:	b002      	add	sp, #8
200001ba:	bd70      	pop	{r4, r5, r6, pc}
200001bc:	002a      	movs	r2, r5
200001be:	0023      	movs	r3, r4
200001c0:	0030      	movs	r0, r6
200001c2:	f7ff ffa1 	bl	20000108 <mutex_enter_block_until>
200001c6:	e7f7      	b.n	200001b8 <mutex_try_enter_block_until+0x24>

200001c8 <mutex_exit>:
200001c8:	b510      	push	{r4, lr}
200001ca:	6802      	ldr	r2, [r0, #0]
200001cc:	f3ef 8110 	mrs	r1, PRIMASK
200001d0:	b672      	cpsid	i
200001d2:	6813      	ldr	r3, [r2, #0]
200001d4:	2b00      	cmp	r3, #0
200001d6:	d0fc      	beq.n	200001d2 <mutex_exit+0xa>
200001d8:	f3bf 8f5f 	dmb	sy
200001dc:	2304      	movs	r3, #4
200001de:	56c3      	ldrsb	r3, [r0, r3]
200001e0:	2b00      	cmp	r3, #0
200001e2:	db0a      	blt.n	200001fa <mutex_exit+0x32>
200001e4:	23ff      	movs	r3, #255	; 0xff
200001e6:	7103      	strb	r3, [r0, #4]
200001e8:	6803      	ldr	r3, [r0, #0]
200001ea:	f3bf 8f5f 	dmb	sy
200001ee:	2200      	movs	r2, #0
200001f0:	601a      	str	r2, [r3, #0]
200001f2:	f381 8810 	msr	PRIMASK, r1
200001f6:	bf40      	sev
200001f8:	bd10      	pop	{r4, pc}
200001fa:	4b03      	ldr	r3, [pc, #12]	; (20000208 <mutex_exit+0x40>)
200001fc:	4a03      	ldr	r2, [pc, #12]	; (2000020c <mutex_exit+0x44>)
200001fe:	21b4      	movs	r1, #180	; 0xb4
20000200:	4803      	ldr	r0, [pc, #12]	; (20000210 <mutex_exit+0x48>)
20000202:	f000 f811 	bl	20000228 <____assert_func_veneer>
20000206:	46c0      	nop			; (mov r8, r8)
20000208:	10007388 	.word	0x10007388
2000020c:	100073c0 	.word	0x100073c0
20000210:	100072ec 	.word	0x100072ec

20000214 <__aeabi_idiv0>:
20000214:	4770      	bx	lr
20000216:	46c0      	nop			; (mov r8, r8)

20000218 <__best_effort_wfe_or_timeout_veneer>:
20000218:	b401      	push	{r0}
2000021a:	4802      	ldr	r0, [pc, #8]	; (20000224 <__best_effort_wfe_or_timeout_veneer+0xc>)
2000021c:	4684      	mov	ip, r0
2000021e:	bc01      	pop	{r0}
20000220:	4760      	bx	ip
20000222:	bf00      	nop
20000224:	10001289 	.word	0x10001289

20000228 <____assert_func_veneer>:
20000228:	b401      	push	{r0}
2000022a:	4802      	ldr	r0, [pc, #8]	; (20000234 <____assert_func_veneer+0xc>)
2000022c:	4684      	mov	ip, r0
2000022e:	bc01      	pop	{r0}
20000230:	4760      	bx	ip
20000232:	bf00      	nop
20000234:	10001ea9 	.word	0x10001ea9

20000238 <striped_spin_lock_num>:
20000238:	00000010                                ....

2000023c <irq_handler_chain_slots>:
2000023c:	00000000 	.word	0x00000000
20000240:	00010000 	.word	0x00010000
	...
2000024c:	00020000 	.word	0x00020000
	...
20000258:	00030000 	.word	0x00030000
	...
20000264:	00ff0000 	.word	0x00ff0000
20000268:	00000000 	.word	0x00000000

2000026c <irq_handler_chain_first_slot>:
2000026c:	b501      	push	{r0, lr}
2000026e:	6848      	ldr	r0, [r1, #4]
20000270:	3101      	adds	r1, #1
20000272:	468e      	mov	lr, r1
20000274:	4700      	bx	r0

20000276 <irq_handler_chain_remove_tail>:
20000276:	4670      	mov	r0, lr
20000278:	3809      	subs	r0, #9
2000027a:	4901      	ldr	r1, [pc, #4]	; (20000280 <irq_handler_chain_remove_tail+0xa>)
2000027c:	4788      	blx	r1
2000027e:	bd01      	pop	{r0, pc}
20000280:	100007f1 	.word	0x100007f1

20000284 <default_alarm_pool>:
20000284:	2000029c 00000000 20000b50 20000e74     ... ....P.. t.. 
	...

2000029c <default_alarm_pool_heap>:
2000029c:	20000e84 00000000 00000000 00000010     ... ............
200002ac:	00000000                                ....

200002b0 <aeabi_bits_funcs>:
200002b0:	00003350 	.word	0x00003350
200002b4:	0000334c 	.word	0x0000334c
200002b8:	00003354 	.word	0x00003354
200002bc:	00003352 	.word	0x00003352

200002c0 <aeabi_bits_funcs_end>:
200002c0:	0000534d 	.word	0x0000534d
200002c4:	0000434d 	.word	0x0000434d
200002c8:	00003453 	.word	0x00003453
200002cc:	00003443 	.word	0x00003443

200002d0 <stdio_uart>:
200002d0:	100042c9 00000000 1000433d 100043e5     .B......=C...C..
200002e0:	00000000 00000100                       ........

200002e8 <uxTopUsedPriority>:
200002e8:	00000004                                ....

200002ec <uxCriticalNesting>:
200002ec:	aaaaaaaa                                ....

200002f0 <_impure_ptr>:
200002f0:	200002f8 00000000                       ... ....

200002f8 <impure_data>:
200002f8:	00000000 200005e4 2000064c 200006b4     ....... L.. ... 
	...
200003a0:	00000001 00000000 abcd330e e66d1234     .........3..4.m.
200003b0:	0005deec 0000000b 00000000 00000000     ................
	...

20000720 <__malloc_av_>:
	...
20000728:	20000720 20000720 20000728 20000728      ..  .. (.. (.. 
20000738:	20000730 20000730 20000738 20000738     0.. 0.. 8.. 8.. 
20000748:	20000740 20000740 20000748 20000748     @.. @.. H.. H.. 
20000758:	20000750 20000750 20000758 20000758     P.. P.. X.. X.. 
20000768:	20000760 20000760 20000768 20000768     `.. `.. h.. h.. 
20000778:	20000770 20000770 20000778 20000778     p.. p.. x.. x.. 
20000788:	20000780 20000780 20000788 20000788     ... ... ... ... 
20000798:	20000790 20000790 20000798 20000798     ... ... ... ... 
200007a8:	200007a0 200007a0 200007a8 200007a8     ... ... ... ... 
200007b8:	200007b0 200007b0 200007b8 200007b8     ... ... ... ... 
200007c8:	200007c0 200007c0 200007c8 200007c8     ... ... ... ... 
200007d8:	200007d0 200007d0 200007d8 200007d8     ... ... ... ... 
200007e8:	200007e0 200007e0 200007e8 200007e8     ... ... ... ... 
200007f8:	200007f0 200007f0 200007f8 200007f8     ... ... ... ... 
20000808:	20000800 20000800 20000808 20000808     ... ... ... ... 
20000818:	20000810 20000810 20000818 20000818     ... ... ... ... 
20000828:	20000820 20000820 20000828 20000828      ..  .. (.. (.. 
20000838:	20000830 20000830 20000838 20000838     0.. 0.. 8.. 8.. 
20000848:	20000840 20000840 20000848 20000848     @.. @.. H.. H.. 
20000858:	20000850 20000850 20000858 20000858     P.. P.. X.. X.. 
20000868:	20000860 20000860 20000868 20000868     `.. `.. h.. h.. 
20000878:	20000870 20000870 20000878 20000878     p.. p.. x.. x.. 
20000888:	20000880 20000880 20000888 20000888     ... ... ... ... 
20000898:	20000890 20000890 20000898 20000898     ... ... ... ... 
200008a8:	200008a0 200008a0 200008a8 200008a8     ... ... ... ... 
200008b8:	200008b0 200008b0 200008b8 200008b8     ... ... ... ... 
200008c8:	200008c0 200008c0 200008c8 200008c8     ... ... ... ... 
200008d8:	200008d0 200008d0 200008d8 200008d8     ... ... ... ... 
200008e8:	200008e0 200008e0 200008e8 200008e8     ... ... ... ... 
200008f8:	200008f0 200008f0 200008f8 200008f8     ... ... ... ... 
20000908:	20000900 20000900 20000908 20000908     ... ... ... ... 
20000918:	20000910 20000910 20000918 20000918     ... ... ... ... 
20000928:	20000920 20000920 20000928 20000928      ..  .. (.. (.. 
20000938:	20000930 20000930 20000938 20000938     0.. 0.. 8.. 8.. 
20000948:	20000940 20000940 20000948 20000948     @.. @.. H.. H.. 
20000958:	20000950 20000950 20000958 20000958     P.. P.. X.. X.. 
20000968:	20000960 20000960 20000968 20000968     `.. `.. h.. h.. 
20000978:	20000970 20000970 20000978 20000978     p.. p.. x.. x.. 
20000988:	20000980 20000980 20000988 20000988     ... ... ... ... 
20000998:	20000990 20000990 20000998 20000998     ... ... ... ... 
200009a8:	200009a0 200009a0 200009a8 200009a8     ... ... ... ... 
200009b8:	200009b0 200009b0 200009b8 200009b8     ... ... ... ... 
200009c8:	200009c0 200009c0 200009c8 200009c8     ... ... ... ... 
200009d8:	200009d0 200009d0 200009d8 200009d8     ... ... ... ... 
200009e8:	200009e0 200009e0 200009e8 200009e8     ... ... ... ... 
200009f8:	200009f0 200009f0 200009f8 200009f8     ... ... ... ... 
20000a08:	20000a00 20000a00 20000a08 20000a08     ... ... ... ... 
20000a18:	20000a10 20000a10 20000a18 20000a18     ... ... ... ... 
20000a28:	20000a20 20000a20 20000a28 20000a28      ..  .. (.. (.. 
20000a38:	20000a30 20000a30 20000a38 20000a38     0.. 0.. 8.. 8.. 
20000a48:	20000a40 20000a40 20000a48 20000a48     @.. @.. H.. H.. 
20000a58:	20000a50 20000a50 20000a58 20000a58     P.. P.. X.. X.. 
20000a68:	20000a60 20000a60 20000a68 20000a68     `.. `.. h.. h.. 
20000a78:	20000a70 20000a70 20000a78 20000a78     p.. p.. x.. x.. 
20000a88:	20000a80 20000a80 20000a88 20000a88     ... ... ... ... 
20000a98:	20000a90 20000a90 20000a98 20000a98     ... ... ... ... 
20000aa8:	20000aa0 20000aa0 20000aa8 20000aa8     ... ... ... ... 
20000ab8:	20000ab0 20000ab0 20000ab8 20000ab8     ... ... ... ... 
20000ac8:	20000ac0 20000ac0 20000ac8 20000ac8     ... ... ... ... 
20000ad8:	20000ad0 20000ad0 20000ad8 20000ad8     ... ... ... ... 
20000ae8:	20000ae0 20000ae0 20000ae8 20000ae8     ... ... ... ... 
20000af8:	20000af0 20000af0 20000af8 20000af8     ... ... ... ... 
20000b08:	20000b00 20000b00 20000b08 20000b08     ... ... ... ... 
20000b18:	20000b10 20000b10 20000b18 20000b18     ... ... ... ... 

20000b28 <__malloc_sbrk_base>:
20000b28:	ffffffff                                ....

20000b2c <__malloc_trim_threshold>:
20000b2c:	00020000                                ....

20000b30 <print_mutex>:
	...

20000b38 <__mutex_array_end>:
20000b38:	10003fd9 	.word	0x10003fd9
20000b3c:	1000314d 	.word	0x1000314d
20000b40:	1000384d 	.word	0x1000384d
20000b44:	10003e7d 	.word	0x10003e7d

20000b48 <__frame_dummy_init_array_entry>:
20000b48:	100002e5                                ....
